
prj1.elf:     file format elf32-littlearm

Sections:
Idx Name          Size      VMA       LMA       File off  Algn
  0 .isr_vector   0000010c  08000000  08000000  00001000  2**0
                  CONTENTS, ALLOC, LOAD, READONLY, DATA
  1 .text         0000aa00  08000110  08000110  00001110  2**3
                  CONTENTS, ALLOC, LOAD, READONLY, CODE
  2 .rodata       00002224  0800ab10  0800ab10  0000bb10  2**3
                  CONTENTS, ALLOC, LOAD, READONLY, DATA
  3 .ARM.extab    00000000  0800cd34  0800cd34  0000e2d0  2**0
                  CONTENTS
  4 .ARM          00000008  0800cd34  0800cd34  0000dd34  2**2
                  CONTENTS, ALLOC, LOAD, READONLY, DATA
  5 .preinit_array 00000000  0800cd3c  0800cd3c  0000e2d0  2**0
                  CONTENTS, ALLOC, LOAD, DATA
  6 .init_array   00000004  0800cd3c  0800cd3c  0000dd3c  2**2
                  CONTENTS, ALLOC, LOAD, READONLY, DATA
  7 .fini_array   00000004  0800cd40  0800cd40  0000dd40  2**2
                  CONTENTS, ALLOC, LOAD, READONLY, DATA
  8 .data         000002d0  20000000  0800cd44  0000e000  2**2
                  CONTENTS, ALLOC, LOAD, DATA
  9 .bss          00000958  200002d0  0800d014  0000e2d0  2**2
                  ALLOC
 10 ._user_heap_stack 00000600  20000c28  0800d014  0000ec28  2**0
                  ALLOC
 11 .ARM.attributes 00000029  00000000  00000000  0000e2d0  2**0
                  CONTENTS, READONLY
 12 .debug_info   0001ca6a  00000000  00000000  0000e2f9  2**0
                  CONTENTS, READONLY, DEBUGGING, OCTETS
 13 .debug_abbrev 00003908  00000000  00000000  0002ad63  2**0
                  CONTENTS, READONLY, DEBUGGING, OCTETS
 14 .debug_loclists 0000ccfd  00000000  00000000  0002e66b  2**0
                  CONTENTS, READONLY, DEBUGGING, OCTETS
 15 .debug_aranges 000011d8  00000000  00000000  0003b368  2**3
                  CONTENTS, READONLY, DEBUGGING, OCTETS
 16 .debug_rnglists 00000f88  00000000  00000000  0003c540  2**0
                  CONTENTS, READONLY, DEBUGGING, OCTETS
 17 .debug_macro  0001a35e  00000000  00000000  0003d4c8  2**0
                  CONTENTS, READONLY, DEBUGGING, OCTETS
 18 .debug_line   0001f5d7  00000000  00000000  00057826  2**0
                  CONTENTS, READONLY, DEBUGGING, OCTETS
 19 .debug_str    00096daa  00000000  00000000  00076dfd  2**0
                  CONTENTS, READONLY, DEBUGGING, OCTETS
 20 .comment      00000043  00000000  00000000  0010dba7  2**0
                  CONTENTS, READONLY
 21 .debug_frame  00004910  00000000  00000000  0010dbec  2**2
                  CONTENTS, READONLY, DEBUGGING, OCTETS
 22 .debug_line_str 0000005a  00000000  00000000  001124fc  2**0
                  CONTENTS, READONLY, DEBUGGING, OCTETS

Disassembly of section .text:

08000110 <__do_global_dtors_aux>:
 8000110:	b510      	push	{r4, lr}
 8000112:	4c05      	ldr	r4, [pc, #20]	@ (8000128 <__do_global_dtors_aux+0x18>)
 8000114:	7823      	ldrb	r3, [r4, #0]
 8000116:	b933      	cbnz	r3, 8000126 <__do_global_dtors_aux+0x16>
 8000118:	4b04      	ldr	r3, [pc, #16]	@ (800012c <__do_global_dtors_aux+0x1c>)
 800011a:	b113      	cbz	r3, 8000122 <__do_global_dtors_aux+0x12>
 800011c:	4804      	ldr	r0, [pc, #16]	@ (8000130 <__do_global_dtors_aux+0x20>)
 800011e:	f3af 8000 	nop.w
 8000122:	2301      	movs	r3, #1
 8000124:	7023      	strb	r3, [r4, #0]
 8000126:	bd10      	pop	{r4, pc}
 8000128:	200002d0 	.word	0x200002d0
 800012c:	00000000 	.word	0x00000000
 8000130:	0800aaf8 	.word	0x0800aaf8

08000134 <frame_dummy>:
 8000134:	b508      	push	{r3, lr}
 8000136:	4b03      	ldr	r3, [pc, #12]	@ (8000144 <frame_dummy+0x10>)
 8000138:	b11b      	cbz	r3, 8000142 <frame_dummy+0xe>
 800013a:	4903      	ldr	r1, [pc, #12]	@ (8000148 <frame_dummy+0x14>)
 800013c:	4803      	ldr	r0, [pc, #12]	@ (800014c <frame_dummy+0x18>)
 800013e:	f3af 8000 	nop.w
 8000142:	bd08      	pop	{r3, pc}
 8000144:	00000000 	.word	0x00000000
 8000148:	200002d4 	.word	0x200002d4
 800014c:	0800aaf8 	.word	0x0800aaf8

08000150 <strlen>:
 8000150:	4603      	mov	r3, r0
 8000152:	f813 2b01 	ldrb.w	r2, [r3], #1
 8000156:	2a00      	cmp	r2, #0
 8000158:	d1fb      	bne.n	8000152 <strlen+0x2>
 800015a:	1a18      	subs	r0, r3, r0
 800015c:	3801      	subs	r0, #1
 800015e:	4770      	bx	lr

08000160 <__aeabi_fmul>:
 8000160:	f04f 0cff 	mov.w	ip, #255	@ 0xff
 8000164:	ea1c 52d0 	ands.w	r2, ip, r0, lsr #23
 8000168:	bf1e      	ittt	ne
 800016a:	ea1c 53d1 	andsne.w	r3, ip, r1, lsr #23
 800016e:	ea92 0f0c 	teqne	r2, ip
 8000172:	ea93 0f0c 	teqne	r3, ip
 8000176:	d06f      	beq.n	8000258 <__aeabi_fmul+0xf8>
 8000178:	441a      	add	r2, r3
 800017a:	ea80 0c01 	eor.w	ip, r0, r1
 800017e:	0240      	lsls	r0, r0, #9
 8000180:	bf18      	it	ne
 8000182:	ea5f 2141 	movsne.w	r1, r1, lsl #9
 8000186:	d01e      	beq.n	80001c6 <__aeabi_fmul+0x66>
 8000188:	f04f 6300 	mov.w	r3, #134217728	@ 0x8000000
 800018c:	ea43 1050 	orr.w	r0, r3, r0, lsr #5
 8000190:	ea43 1151 	orr.w	r1, r3, r1, lsr #5
 8000194:	fba0 3101 	umull	r3, r1, r0, r1
 8000198:	f00c 4000 	and.w	r0, ip, #2147483648	@ 0x80000000
 800019c:	f5b1 0f00 	cmp.w	r1, #8388608	@ 0x800000
 80001a0:	bf3e      	ittt	cc
 80001a2:	0049      	lslcc	r1, r1, #1
 80001a4:	ea41 71d3 	orrcc.w	r1, r1, r3, lsr #31
 80001a8:	005b      	lslcc	r3, r3, #1
 80001aa:	ea40 0001 	orr.w	r0, r0, r1
 80001ae:	f162 027f 	sbc.w	r2, r2, #127	@ 0x7f
 80001b2:	2afd      	cmp	r2, #253	@ 0xfd
 80001b4:	d81d      	bhi.n	80001f2 <__aeabi_fmul+0x92>
 80001b6:	f1b3 4f00 	cmp.w	r3, #2147483648	@ 0x80000000
 80001ba:	eb40 50c2 	adc.w	r0, r0, r2, lsl #23
 80001be:	bf08      	it	eq
 80001c0:	f020 0001 	biceq.w	r0, r0, #1
 80001c4:	4770      	bx	lr
 80001c6:	f090 0f00 	teq	r0, #0
 80001ca:	f00c 4c00 	and.w	ip, ip, #2147483648	@ 0x80000000
 80001ce:	bf08      	it	eq
 80001d0:	0249      	lsleq	r1, r1, #9
 80001d2:	ea4c 2050 	orr.w	r0, ip, r0, lsr #9
 80001d6:	ea40 2051 	orr.w	r0, r0, r1, lsr #9
 80001da:	3a7f      	subs	r2, #127	@ 0x7f
 80001dc:	bfc2      	ittt	gt
 80001de:	f1d2 03ff 	rsbsgt	r3, r2, #255	@ 0xff
 80001e2:	ea40 50c2 	orrgt.w	r0, r0, r2, lsl #23
 80001e6:	4770      	bxgt	lr
 80001e8:	f440 0000 	orr.w	r0, r0, #8388608	@ 0x800000
 80001ec:	f04f 0300 	mov.w	r3, #0
 80001f0:	3a01      	subs	r2, #1
 80001f2:	dc5d      	bgt.n	80002b0 <__aeabi_fmul+0x150>
 80001f4:	f112 0f19 	cmn.w	r2, #25
 80001f8:	bfdc      	itt	le
 80001fa:	f000 4000 	andle.w	r0, r0, #2147483648	@ 0x80000000
 80001fe:	4770      	bxle	lr
 8000200:	f1c2 0200 	rsb	r2, r2, #0
 8000204:	0041      	lsls	r1, r0, #1
 8000206:	fa21 f102 	lsr.w	r1, r1, r2
 800020a:	f1c2 0220 	rsb	r2, r2, #32
 800020e:	fa00 fc02 	lsl.w	ip, r0, r2
 8000212:	ea5f 0031 	movs.w	r0, r1, rrx
 8000216:	f140 0000 	adc.w	r0, r0, #0
 800021a:	ea53 034c 	orrs.w	r3, r3, ip, lsl #1
 800021e:	bf08      	it	eq
 8000220:	ea20 70dc 	biceq.w	r0, r0, ip, lsr #31
 8000224:	4770      	bx	lr
 8000226:	f092 0f00 	teq	r2, #0
 800022a:	f000 4c00 	and.w	ip, r0, #2147483648	@ 0x80000000
 800022e:	bf02      	ittt	eq
 8000230:	0040      	lsleq	r0, r0, #1
 8000232:	f410 0f00 	tsteq.w	r0, #8388608	@ 0x800000
 8000236:	3a01      	subeq	r2, #1
 8000238:	d0f9      	beq.n	800022e <__aeabi_fmul+0xce>
 800023a:	ea40 000c 	orr.w	r0, r0, ip
 800023e:	f093 0f00 	teq	r3, #0
 8000242:	f001 4c00 	and.w	ip, r1, #2147483648	@ 0x80000000
 8000246:	bf02      	ittt	eq
 8000248:	0049      	lsleq	r1, r1, #1
 800024a:	f411 0f00 	tsteq.w	r1, #8388608	@ 0x800000
 800024e:	3b01      	subeq	r3, #1
 8000250:	d0f9      	beq.n	8000246 <__aeabi_fmul+0xe6>
 8000252:	ea41 010c 	orr.w	r1, r1, ip
 8000256:	e78f      	b.n	8000178 <__aeabi_fmul+0x18>
 8000258:	ea0c 53d1 	and.w	r3, ip, r1, lsr #23
 800025c:	ea92 0f0c 	teq	r2, ip
 8000260:	bf18      	it	ne
 8000262:	ea93 0f0c 	teqne	r3, ip
 8000266:	d00a      	beq.n	800027e <__aeabi_fmul+0x11e>
 8000268:	f030 4c00 	bics.w	ip, r0, #2147483648	@ 0x80000000
 800026c:	bf18      	it	ne
 800026e:	f031 4c00 	bicsne.w	ip, r1, #2147483648	@ 0x80000000
 8000272:	d1d8      	bne.n	8000226 <__aeabi_fmul+0xc6>
 8000274:	ea80 0001 	eor.w	r0, r0, r1
 8000278:	f000 4000 	and.w	r0, r0, #2147483648	@ 0x80000000
 800027c:	4770      	bx	lr
 800027e:	f090 0f00 	teq	r0, #0
 8000282:	bf17      	itett	ne
 8000284:	f090 4f00 	teqne	r0, #2147483648	@ 0x80000000
 8000288:	4608      	moveq	r0, r1
 800028a:	f091 0f00 	teqne	r1, #0
 800028e:	f091 4f00 	teqne	r1, #2147483648	@ 0x80000000
 8000292:	d014      	beq.n	80002be <__aeabi_fmul+0x15e>
 8000294:	ea92 0f0c 	teq	r2, ip
 8000298:	d101      	bne.n	800029e <__aeabi_fmul+0x13e>
 800029a:	0242      	lsls	r2, r0, #9
 800029c:	d10f      	bne.n	80002be <__aeabi_fmul+0x15e>
 800029e:	ea93 0f0c 	teq	r3, ip
 80002a2:	d103      	bne.n	80002ac <__aeabi_fmul+0x14c>
 80002a4:	024b      	lsls	r3, r1, #9
 80002a6:	bf18      	it	ne
 80002a8:	4608      	movne	r0, r1
 80002aa:	d108      	bne.n	80002be <__aeabi_fmul+0x15e>
 80002ac:	ea80 0001 	eor.w	r0, r0, r1
 80002b0:	f000 4000 	and.w	r0, r0, #2147483648	@ 0x80000000
 80002b4:	f040 40fe 	orr.w	r0, r0, #2130706432	@ 0x7f000000
 80002b8:	f440 0000 	orr.w	r0, r0, #8388608	@ 0x800000
 80002bc:	4770      	bx	lr
 80002be:	f040 40fe 	orr.w	r0, r0, #2130706432	@ 0x7f000000
 80002c2:	f440 0040 	orr.w	r0, r0, #12582912	@ 0xc00000
 80002c6:	4770      	bx	lr

080002c8 <__aeabi_drsub>:
 80002c8:	f081 4100 	eor.w	r1, r1, #2147483648	@ 0x80000000
 80002cc:	e002      	b.n	80002d4 <__adddf3>
 80002ce:	bf00      	nop

080002d0 <__aeabi_dsub>:
 80002d0:	f083 4300 	eor.w	r3, r3, #2147483648	@ 0x80000000

080002d4 <__adddf3>:
 80002d4:	b530      	push	{r4, r5, lr}
 80002d6:	ea4f 0441 	mov.w	r4, r1, lsl #1
 80002da:	ea4f 0543 	mov.w	r5, r3, lsl #1
 80002de:	ea94 0f05 	teq	r4, r5
 80002e2:	bf08      	it	eq
 80002e4:	ea90 0f02 	teqeq	r0, r2
 80002e8:	bf1f      	itttt	ne
 80002ea:	ea54 0c00 	orrsne.w	ip, r4, r0
 80002ee:	ea55 0c02 	orrsne.w	ip, r5, r2
 80002f2:	ea7f 5c64 	mvnsne.w	ip, r4, asr #21
 80002f6:	ea7f 5c65 	mvnsne.w	ip, r5, asr #21
 80002fa:	f000 80e2 	beq.w	80004c2 <__adddf3+0x1ee>
 80002fe:	ea4f 5454 	mov.w	r4, r4, lsr #21
 8000302:	ebd4 5555 	rsbs	r5, r4, r5, lsr #21
 8000306:	bfb8      	it	lt
 8000308:	426d      	neglt	r5, r5
 800030a:	dd0c      	ble.n	8000326 <__adddf3+0x52>
 800030c:	442c      	add	r4, r5
 800030e:	ea80 0202 	eor.w	r2, r0, r2
 8000312:	ea81 0303 	eor.w	r3, r1, r3
 8000316:	ea82 0000 	eor.w	r0, r2, r0
 800031a:	ea83 0101 	eor.w	r1, r3, r1
 800031e:	ea80 0202 	eor.w	r2, r0, r2
 8000322:	ea81 0303 	eor.w	r3, r1, r3
 8000326:	2d36      	cmp	r5, #54	@ 0x36
 8000328:	bf88      	it	hi
 800032a:	bd30      	pophi	{r4, r5, pc}
 800032c:	f011 4f00 	tst.w	r1, #2147483648	@ 0x80000000
 8000330:	ea4f 3101 	mov.w	r1, r1, lsl #12
 8000334:	f44f 1c80 	mov.w	ip, #1048576	@ 0x100000
 8000338:	ea4c 3111 	orr.w	r1, ip, r1, lsr #12
 800033c:	d002      	beq.n	8000344 <__adddf3+0x70>
 800033e:	4240      	negs	r0, r0
 8000340:	eb61 0141 	sbc.w	r1, r1, r1, lsl #1
 8000344:	f013 4f00 	tst.w	r3, #2147483648	@ 0x80000000
 8000348:	ea4f 3303 	mov.w	r3, r3, lsl #12
 800034c:	ea4c 3313 	orr.w	r3, ip, r3, lsr #12
 8000350:	d002      	beq.n	8000358 <__adddf3+0x84>
 8000352:	4252      	negs	r2, r2
 8000354:	eb63 0343 	sbc.w	r3, r3, r3, lsl #1
 8000358:	ea94 0f05 	teq	r4, r5
 800035c:	f000 80a7 	beq.w	80004ae <__adddf3+0x1da>
 8000360:	f1a4 0401 	sub.w	r4, r4, #1
 8000364:	f1d5 0e20 	rsbs	lr, r5, #32
 8000368:	db0d      	blt.n	8000386 <__adddf3+0xb2>
 800036a:	fa02 fc0e 	lsl.w	ip, r2, lr
 800036e:	fa22 f205 	lsr.w	r2, r2, r5
 8000372:	1880      	adds	r0, r0, r2
 8000374:	f141 0100 	adc.w	r1, r1, #0
 8000378:	fa03 f20e 	lsl.w	r2, r3, lr
 800037c:	1880      	adds	r0, r0, r2
 800037e:	fa43 f305 	asr.w	r3, r3, r5
 8000382:	4159      	adcs	r1, r3
 8000384:	e00e      	b.n	80003a4 <__adddf3+0xd0>
 8000386:	f1a5 0520 	sub.w	r5, r5, #32
 800038a:	f10e 0e20 	add.w	lr, lr, #32
 800038e:	2a01      	cmp	r2, #1
 8000390:	fa03 fc0e 	lsl.w	ip, r3, lr
 8000394:	bf28      	it	cs
 8000396:	f04c 0c02 	orrcs.w	ip, ip, #2
 800039a:	fa43 f305 	asr.w	r3, r3, r5
 800039e:	18c0      	adds	r0, r0, r3
 80003a0:	eb51 71e3 	adcs.w	r1, r1, r3, asr #31
 80003a4:	f001 4500 	and.w	r5, r1, #2147483648	@ 0x80000000
 80003a8:	d507      	bpl.n	80003ba <__adddf3+0xe6>
 80003aa:	f04f 0e00 	mov.w	lr, #0
 80003ae:	f1dc 0c00 	rsbs	ip, ip, #0
 80003b2:	eb7e 0000 	sbcs.w	r0, lr, r0
 80003b6:	eb6e 0101 	sbc.w	r1, lr, r1
 80003ba:	f5b1 1f80 	cmp.w	r1, #1048576	@ 0x100000
 80003be:	d31b      	bcc.n	80003f8 <__adddf3+0x124>
 80003c0:	f5b1 1f00 	cmp.w	r1, #2097152	@ 0x200000
 80003c4:	d30c      	bcc.n	80003e0 <__adddf3+0x10c>
 80003c6:	0849      	lsrs	r1, r1, #1
 80003c8:	ea5f 0030 	movs.w	r0, r0, rrx
 80003cc:	ea4f 0c3c 	mov.w	ip, ip, rrx
 80003d0:	f104 0401 	add.w	r4, r4, #1
 80003d4:	ea4f 5244 	mov.w	r2, r4, lsl #21
 80003d8:	f512 0f80 	cmn.w	r2, #4194304	@ 0x400000
 80003dc:	f080 809a 	bcs.w	8000514 <__adddf3+0x240>
 80003e0:	f1bc 4f00 	cmp.w	ip, #2147483648	@ 0x80000000
 80003e4:	bf08      	it	eq
 80003e6:	ea5f 0c50 	movseq.w	ip, r0, lsr #1
 80003ea:	f150 0000 	adcs.w	r0, r0, #0
 80003ee:	eb41 5104 	adc.w	r1, r1, r4, lsl #20
 80003f2:	ea41 0105 	orr.w	r1, r1, r5
 80003f6:	bd30      	pop	{r4, r5, pc}
 80003f8:	ea5f 0c4c 	movs.w	ip, ip, lsl #1
 80003fc:	4140      	adcs	r0, r0
 80003fe:	eb41 0101 	adc.w	r1, r1, r1
 8000402:	3c01      	subs	r4, #1
 8000404:	bf28      	it	cs
 8000406:	f5b1 1f80 	cmpcs.w	r1, #1048576	@ 0x100000
 800040a:	d2e9      	bcs.n	80003e0 <__adddf3+0x10c>
 800040c:	f091 0f00 	teq	r1, #0
 8000410:	bf04      	itt	eq
 8000412:	4601      	moveq	r1, r0
 8000414:	2000      	moveq	r0, #0
 8000416:	fab1 f381 	clz	r3, r1
 800041a:	bf08      	it	eq
 800041c:	3320      	addeq	r3, #32
 800041e:	f1a3 030b 	sub.w	r3, r3, #11
 8000422:	f1b3 0220 	subs.w	r2, r3, #32
 8000426:	da0c      	bge.n	8000442 <__adddf3+0x16e>
 8000428:	320c      	adds	r2, #12
 800042a:	dd08      	ble.n	800043e <__adddf3+0x16a>
 800042c:	f102 0c14 	add.w	ip, r2, #20
 8000430:	f1c2 020c 	rsb	r2, r2, #12
 8000434:	fa01 f00c 	lsl.w	r0, r1, ip
 8000438:	fa21 f102 	lsr.w	r1, r1, r2
 800043c:	e00c      	b.n	8000458 <__adddf3+0x184>
 800043e:	f102 0214 	add.w	r2, r2, #20
 8000442:	bfd8      	it	le
 8000444:	f1c2 0c20 	rsble	ip, r2, #32
 8000448:	fa01 f102 	lsl.w	r1, r1, r2
 800044c:	fa20 fc0c 	lsr.w	ip, r0, ip
 8000450:	bfdc      	itt	le
 8000452:	ea41 010c 	orrle.w	r1, r1, ip
 8000456:	4090      	lslle	r0, r2
 8000458:	1ae4      	subs	r4, r4, r3
 800045a:	bfa2      	ittt	ge
 800045c:	eb01 5104 	addge.w	r1, r1, r4, lsl #20
 8000460:	4329      	orrge	r1, r5
 8000462:	bd30      	popge	{r4, r5, pc}
 8000464:	ea6f 0404 	mvn.w	r4, r4
 8000468:	3c1f      	subs	r4, #31
 800046a:	da1c      	bge.n	80004a6 <__adddf3+0x1d2>
 800046c:	340c      	adds	r4, #12
 800046e:	dc0e      	bgt.n	800048e <__adddf3+0x1ba>
 8000470:	f104 0414 	add.w	r4, r4, #20
 8000474:	f1c4 0220 	rsb	r2, r4, #32
 8000478:	fa20 f004 	lsr.w	r0, r0, r4
 800047c:	fa01 f302 	lsl.w	r3, r1, r2
 8000480:	ea40 0003 	orr.w	r0, r0, r3
 8000484:	fa21 f304 	lsr.w	r3, r1, r4
 8000488:	ea45 0103 	orr.w	r1, r5, r3
 800048c:	bd30      	pop	{r4, r5, pc}
 800048e:	f1c4 040c 	rsb	r4, r4, #12
 8000492:	f1c4 0220 	rsb	r2, r4, #32
 8000496:	fa20 f002 	lsr.w	r0, r0, r2
 800049a:	fa01 f304 	lsl.w	r3, r1, r4
 800049e:	ea40 0003 	orr.w	r0, r0, r3
 80004a2:	4629      	mov	r1, r5
 80004a4:	bd30      	pop	{r4, r5, pc}
 80004a6:	fa21 f004 	lsr.w	r0, r1, r4
 80004aa:	4629      	mov	r1, r5
 80004ac:	bd30      	pop	{r4, r5, pc}
 80004ae:	f094 0f00 	teq	r4, #0
 80004b2:	f483 1380 	eor.w	r3, r3, #1048576	@ 0x100000
 80004b6:	bf06      	itte	eq
 80004b8:	f481 1180 	eoreq.w	r1, r1, #1048576	@ 0x100000
 80004bc:	3401      	addeq	r4, #1
 80004be:	3d01      	subne	r5, #1
 80004c0:	e74e      	b.n	8000360 <__adddf3+0x8c>
 80004c2:	ea7f 5c64 	mvns.w	ip, r4, asr #21
 80004c6:	bf18      	it	ne
 80004c8:	ea7f 5c65 	mvnsne.w	ip, r5, asr #21
 80004cc:	d029      	beq.n	8000522 <__adddf3+0x24e>
 80004ce:	ea94 0f05 	teq	r4, r5
 80004d2:	bf08      	it	eq
 80004d4:	ea90 0f02 	teqeq	r0, r2
 80004d8:	d005      	beq.n	80004e6 <__adddf3+0x212>
 80004da:	ea54 0c00 	orrs.w	ip, r4, r0
 80004de:	bf04      	itt	eq
 80004e0:	4619      	moveq	r1, r3
 80004e2:	4610      	moveq	r0, r2
 80004e4:	bd30      	pop	{r4, r5, pc}
 80004e6:	ea91 0f03 	teq	r1, r3
 80004ea:	bf1e      	ittt	ne
 80004ec:	2100      	movne	r1, #0
 80004ee:	2000      	movne	r0, #0
 80004f0:	bd30      	popne	{r4, r5, pc}
 80004f2:	ea5f 5c54 	movs.w	ip, r4, lsr #21
 80004f6:	d105      	bne.n	8000504 <__adddf3+0x230>
 80004f8:	0040      	lsls	r0, r0, #1
 80004fa:	4149      	adcs	r1, r1
 80004fc:	bf28      	it	cs
 80004fe:	f041 4100 	orrcs.w	r1, r1, #2147483648	@ 0x80000000
 8000502:	bd30      	pop	{r4, r5, pc}
 8000504:	f514 0480 	adds.w	r4, r4, #4194304	@ 0x400000
 8000508:	bf3c      	itt	cc
 800050a:	f501 1180 	addcc.w	r1, r1, #1048576	@ 0x100000
 800050e:	bd30      	popcc	{r4, r5, pc}
 8000510:	f001 4500 	and.w	r5, r1, #2147483648	@ 0x80000000
 8000514:	f045 41fe 	orr.w	r1, r5, #2130706432	@ 0x7f000000
 8000518:	f441 0170 	orr.w	r1, r1, #15728640	@ 0xf00000
 800051c:	f04f 0000 	mov.w	r0, #0
 8000520:	bd30      	pop	{r4, r5, pc}
 8000522:	ea7f 5c64 	mvns.w	ip, r4, asr #21
 8000526:	bf1a      	itte	ne
 8000528:	4619      	movne	r1, r3
 800052a:	4610      	movne	r0, r2
 800052c:	ea7f 5c65 	mvnseq.w	ip, r5, asr #21
 8000530:	bf1c      	itt	ne
 8000532:	460b      	movne	r3, r1
 8000534:	4602      	movne	r2, r0
 8000536:	ea50 3401 	orrs.w	r4, r0, r1, lsl #12
 800053a:	bf06      	itte	eq
 800053c:	ea52 3503 	orrseq.w	r5, r2, r3, lsl #12
 8000540:	ea91 0f03 	teqeq	r1, r3
 8000544:	f441 2100 	orrne.w	r1, r1, #524288	@ 0x80000
 8000548:	bd30      	pop	{r4, r5, pc}
 800054a:	bf00      	nop

0800054c <__aeabi_ui2d>:
 800054c:	f090 0f00 	teq	r0, #0
 8000550:	bf04      	itt	eq
 8000552:	2100      	moveq	r1, #0
 8000554:	4770      	bxeq	lr
 8000556:	b530      	push	{r4, r5, lr}
 8000558:	f44f 6480 	mov.w	r4, #1024	@ 0x400
 800055c:	f104 0432 	add.w	r4, r4, #50	@ 0x32
 8000560:	f04f 0500 	mov.w	r5, #0
 8000564:	f04f 0100 	mov.w	r1, #0
 8000568:	e750      	b.n	800040c <__adddf3+0x138>
 800056a:	bf00      	nop

0800056c <__aeabi_i2d>:
 800056c:	f090 0f00 	teq	r0, #0
 8000570:	bf04      	itt	eq
 8000572:	2100      	moveq	r1, #0
 8000574:	4770      	bxeq	lr
 8000576:	b530      	push	{r4, r5, lr}
 8000578:	f44f 6480 	mov.w	r4, #1024	@ 0x400
 800057c:	f104 0432 	add.w	r4, r4, #50	@ 0x32
 8000580:	f010 4500 	ands.w	r5, r0, #2147483648	@ 0x80000000
 8000584:	bf48      	it	mi
 8000586:	4240      	negmi	r0, r0
 8000588:	f04f 0100 	mov.w	r1, #0
 800058c:	e73e      	b.n	800040c <__adddf3+0x138>
 800058e:	bf00      	nop

08000590 <__aeabi_f2d>:
 8000590:	0042      	lsls	r2, r0, #1
 8000592:	ea4f 01e2 	mov.w	r1, r2, asr #3
 8000596:	ea4f 0131 	mov.w	r1, r1, rrx
 800059a:	ea4f 7002 	mov.w	r0, r2, lsl #28
 800059e:	bf1f      	itttt	ne
 80005a0:	f012 437f 	andsne.w	r3, r2, #4278190080	@ 0xff000000
 80005a4:	f093 4f7f 	teqne	r3, #4278190080	@ 0xff000000
 80005a8:	f081 5160 	eorne.w	r1, r1, #939524096	@ 0x38000000
 80005ac:	4770      	bxne	lr
 80005ae:	f032 427f 	bics.w	r2, r2, #4278190080	@ 0xff000000
 80005b2:	bf08      	it	eq
 80005b4:	4770      	bxeq	lr
 80005b6:	f093 4f7f 	teq	r3, #4278190080	@ 0xff000000
 80005ba:	bf04      	itt	eq
 80005bc:	f441 2100 	orreq.w	r1, r1, #524288	@ 0x80000
 80005c0:	4770      	bxeq	lr
 80005c2:	b530      	push	{r4, r5, lr}
 80005c4:	f44f 7460 	mov.w	r4, #896	@ 0x380
 80005c8:	f001 4500 	and.w	r5, r1, #2147483648	@ 0x80000000
 80005cc:	f021 4100 	bic.w	r1, r1, #2147483648	@ 0x80000000
 80005d0:	e71c      	b.n	800040c <__adddf3+0x138>
 80005d2:	bf00      	nop

080005d4 <__aeabi_ul2d>:
 80005d4:	ea50 0201 	orrs.w	r2, r0, r1
 80005d8:	bf08      	it	eq
 80005da:	4770      	bxeq	lr
 80005dc:	b530      	push	{r4, r5, lr}
 80005de:	f04f 0500 	mov.w	r5, #0
 80005e2:	e00a      	b.n	80005fa <__aeabi_l2d+0x16>

080005e4 <__aeabi_l2d>:
 80005e4:	ea50 0201 	orrs.w	r2, r0, r1
 80005e8:	bf08      	it	eq
 80005ea:	4770      	bxeq	lr
 80005ec:	b530      	push	{r4, r5, lr}
 80005ee:	f011 4500 	ands.w	r5, r1, #2147483648	@ 0x80000000
 80005f2:	d502      	bpl.n	80005fa <__aeabi_l2d+0x16>
 80005f4:	4240      	negs	r0, r0
 80005f6:	eb61 0141 	sbc.w	r1, r1, r1, lsl #1
 80005fa:	f44f 6480 	mov.w	r4, #1024	@ 0x400
 80005fe:	f104 0432 	add.w	r4, r4, #50	@ 0x32
 8000602:	ea5f 5c91 	movs.w	ip, r1, lsr #22
 8000606:	f43f aed8 	beq.w	80003ba <__adddf3+0xe6>
 800060a:	f04f 0203 	mov.w	r2, #3
 800060e:	ea5f 0cdc 	movs.w	ip, ip, lsr #3
 8000612:	bf18      	it	ne
 8000614:	3203      	addne	r2, #3
 8000616:	ea5f 0cdc 	movs.w	ip, ip, lsr #3
 800061a:	bf18      	it	ne
 800061c:	3203      	addne	r2, #3
 800061e:	eb02 02dc 	add.w	r2, r2, ip, lsr #3
 8000622:	f1c2 0320 	rsb	r3, r2, #32
 8000626:	fa00 fc03 	lsl.w	ip, r0, r3
 800062a:	fa20 f002 	lsr.w	r0, r0, r2
 800062e:	fa01 fe03 	lsl.w	lr, r1, r3
 8000632:	ea40 000e 	orr.w	r0, r0, lr
 8000636:	fa21 f102 	lsr.w	r1, r1, r2
 800063a:	4414      	add	r4, r2
 800063c:	e6bd      	b.n	80003ba <__adddf3+0xe6>
 800063e:	bf00      	nop

08000640 <__aeabi_dmul>:
 8000640:	b570      	push	{r4, r5, r6, lr}
 8000642:	f04f 0cff 	mov.w	ip, #255	@ 0xff
 8000646:	f44c 6ce0 	orr.w	ip, ip, #1792	@ 0x700
 800064a:	ea1c 5411 	ands.w	r4, ip, r1, lsr #20
 800064e:	bf1d      	ittte	ne
 8000650:	ea1c 5513 	andsne.w	r5, ip, r3, lsr #20
 8000654:	ea94 0f0c 	teqne	r4, ip
 8000658:	ea95 0f0c 	teqne	r5, ip
 800065c:	f000 f8de 	bleq	800081c <__aeabi_dmul+0x1dc>
 8000660:	442c      	add	r4, r5
 8000662:	ea81 0603 	eor.w	r6, r1, r3
 8000666:	ea21 514c 	bic.w	r1, r1, ip, lsl #21
 800066a:	ea23 534c 	bic.w	r3, r3, ip, lsl #21
 800066e:	ea50 3501 	orrs.w	r5, r0, r1, lsl #12
 8000672:	bf18      	it	ne
 8000674:	ea52 3503 	orrsne.w	r5, r2, r3, lsl #12
 8000678:	f441 1180 	orr.w	r1, r1, #1048576	@ 0x100000
 800067c:	f443 1380 	orr.w	r3, r3, #1048576	@ 0x100000
 8000680:	d038      	beq.n	80006f4 <__aeabi_dmul+0xb4>
 8000682:	fba0 ce02 	umull	ip, lr, r0, r2
 8000686:	f04f 0500 	mov.w	r5, #0
 800068a:	fbe1 e502 	umlal	lr, r5, r1, r2
 800068e:	f006 4200 	and.w	r2, r6, #2147483648	@ 0x80000000
 8000692:	fbe0 e503 	umlal	lr, r5, r0, r3
 8000696:	f04f 0600 	mov.w	r6, #0
 800069a:	fbe1 5603 	umlal	r5, r6, r1, r3
 800069e:	f09c 0f00 	teq	ip, #0
 80006a2:	bf18      	it	ne
 80006a4:	f04e 0e01 	orrne.w	lr, lr, #1
 80006a8:	f1a4 04ff 	sub.w	r4, r4, #255	@ 0xff
 80006ac:	f5b6 7f00 	cmp.w	r6, #512	@ 0x200
 80006b0:	f564 7440 	sbc.w	r4, r4, #768	@ 0x300
 80006b4:	d204      	bcs.n	80006c0 <__aeabi_dmul+0x80>
 80006b6:	ea5f 0e4e 	movs.w	lr, lr, lsl #1
 80006ba:	416d      	adcs	r5, r5
 80006bc:	eb46 0606 	adc.w	r6, r6, r6
 80006c0:	ea42 21c6 	orr.w	r1, r2, r6, lsl #11
 80006c4:	ea41 5155 	orr.w	r1, r1, r5, lsr #21
 80006c8:	ea4f 20c5 	mov.w	r0, r5, lsl #11
 80006cc:	ea40 505e 	orr.w	r0, r0, lr, lsr #21
 80006d0:	ea4f 2ece 	mov.w	lr, lr, lsl #11
 80006d4:	f1b4 0cfd 	subs.w	ip, r4, #253	@ 0xfd
 80006d8:	bf88      	it	hi
 80006da:	f5bc 6fe0 	cmphi.w	ip, #1792	@ 0x700
 80006de:	d81e      	bhi.n	800071e <__aeabi_dmul+0xde>
 80006e0:	f1be 4f00 	cmp.w	lr, #2147483648	@ 0x80000000
 80006e4:	bf08      	it	eq
 80006e6:	ea5f 0e50 	movseq.w	lr, r0, lsr #1
 80006ea:	f150 0000 	adcs.w	r0, r0, #0
 80006ee:	eb41 5104 	adc.w	r1, r1, r4, lsl #20
 80006f2:	bd70      	pop	{r4, r5, r6, pc}
 80006f4:	f006 4600 	and.w	r6, r6, #2147483648	@ 0x80000000
 80006f8:	ea46 0101 	orr.w	r1, r6, r1
 80006fc:	ea40 0002 	orr.w	r0, r0, r2
 8000700:	ea81 0103 	eor.w	r1, r1, r3
 8000704:	ebb4 045c 	subs.w	r4, r4, ip, lsr #1
 8000708:	bfc2      	ittt	gt
 800070a:	ebd4 050c 	rsbsgt	r5, r4, ip
 800070e:	ea41 5104 	orrgt.w	r1, r1, r4, lsl #20
 8000712:	bd70      	popgt	{r4, r5, r6, pc}
 8000714:	f441 1180 	orr.w	r1, r1, #1048576	@ 0x100000
 8000718:	f04f 0e00 	mov.w	lr, #0
 800071c:	3c01      	subs	r4, #1
 800071e:	f300 80ab 	bgt.w	8000878 <__aeabi_dmul+0x238>
 8000722:	f114 0f36 	cmn.w	r4, #54	@ 0x36
 8000726:	bfde      	ittt	le
 8000728:	2000      	movle	r0, #0
 800072a:	f001 4100 	andle.w	r1, r1, #2147483648	@ 0x80000000
 800072e:	bd70      	pople	{r4, r5, r6, pc}
 8000730:	f1c4 0400 	rsb	r4, r4, #0
 8000734:	3c20      	subs	r4, #32
 8000736:	da35      	bge.n	80007a4 <__aeabi_dmul+0x164>
 8000738:	340c      	adds	r4, #12
 800073a:	dc1b      	bgt.n	8000774 <__aeabi_dmul+0x134>
 800073c:	f104 0414 	add.w	r4, r4, #20
 8000740:	f1c4 0520 	rsb	r5, r4, #32
 8000744:	fa00 f305 	lsl.w	r3, r0, r5
 8000748:	fa20 f004 	lsr.w	r0, r0, r4
 800074c:	fa01 f205 	lsl.w	r2, r1, r5
 8000750:	ea40 0002 	orr.w	r0, r0, r2
 8000754:	f001 4200 	and.w	r2, r1, #2147483648	@ 0x80000000
 8000758:	f021 4100 	bic.w	r1, r1, #2147483648	@ 0x80000000
 800075c:	eb10 70d3 	adds.w	r0, r0, r3, lsr #31
 8000760:	fa21 f604 	lsr.w	r6, r1, r4
 8000764:	eb42 0106 	adc.w	r1, r2, r6
 8000768:	ea5e 0e43 	orrs.w	lr, lr, r3, lsl #1
 800076c:	bf08      	it	eq
 800076e:	ea20 70d3 	biceq.w	r0, r0, r3, lsr #31
 8000772:	bd70      	pop	{r4, r5, r6, pc}
 8000774:	f1c4 040c 	rsb	r4, r4, #12
 8000778:	f1c4 0520 	rsb	r5, r4, #32
 800077c:	fa00 f304 	lsl.w	r3, r0, r4
 8000780:	fa20 f005 	lsr.w	r0, r0, r5
 8000784:	fa01 f204 	lsl.w	r2, r1, r4
 8000788:	ea40 0002 	orr.w	r0, r0, r2
 800078c:	f001 4100 	and.w	r1, r1, #2147483648	@ 0x80000000
 8000790:	eb10 70d3 	adds.w	r0, r0, r3, lsr #31
 8000794:	f141 0100 	adc.w	r1, r1, #0
 8000798:	ea5e 0e43 	orrs.w	lr, lr, r3, lsl #1
 800079c:	bf08      	it	eq
 800079e:	ea20 70d3 	biceq.w	r0, r0, r3, lsr #31
 80007a2:	bd70      	pop	{r4, r5, r6, pc}
 80007a4:	f1c4 0520 	rsb	r5, r4, #32
 80007a8:	fa00 f205 	lsl.w	r2, r0, r5
 80007ac:	ea4e 0e02 	orr.w	lr, lr, r2
 80007b0:	fa20 f304 	lsr.w	r3, r0, r4
 80007b4:	fa01 f205 	lsl.w	r2, r1, r5
 80007b8:	ea43 0302 	orr.w	r3, r3, r2
 80007bc:	fa21 f004 	lsr.w	r0, r1, r4
 80007c0:	f001 4100 	and.w	r1, r1, #2147483648	@ 0x80000000
 80007c4:	fa21 f204 	lsr.w	r2, r1, r4
 80007c8:	ea20 0002 	bic.w	r0, r0, r2
 80007cc:	eb00 70d3 	add.w	r0, r0, r3, lsr #31
 80007d0:	ea5e 0e43 	orrs.w	lr, lr, r3, lsl #1
 80007d4:	bf08      	it	eq
 80007d6:	ea20 70d3 	biceq.w	r0, r0, r3, lsr #31
 80007da:	bd70      	pop	{r4, r5, r6, pc}
 80007dc:	f094 0f00 	teq	r4, #0
 80007e0:	d10f      	bne.n	8000802 <__aeabi_dmul+0x1c2>
 80007e2:	f001 4600 	and.w	r6, r1, #2147483648	@ 0x80000000
 80007e6:	0040      	lsls	r0, r0, #1
 80007e8:	eb41 0101 	adc.w	r1, r1, r1
 80007ec:	f411 1f80 	tst.w	r1, #1048576	@ 0x100000
 80007f0:	bf08      	it	eq
 80007f2:	3c01      	subeq	r4, #1
 80007f4:	d0f7      	beq.n	80007e6 <__aeabi_dmul+0x1a6>
 80007f6:	ea41 0106 	orr.w	r1, r1, r6
 80007fa:	f095 0f00 	teq	r5, #0
 80007fe:	bf18      	it	ne
 8000800:	4770      	bxne	lr
 8000802:	f003 4600 	and.w	r6, r3, #2147483648	@ 0x80000000
 8000806:	0052      	lsls	r2, r2, #1
 8000808:	eb43 0303 	adc.w	r3, r3, r3
 800080c:	f413 1f80 	tst.w	r3, #1048576	@ 0x100000
 8000810:	bf08      	it	eq
 8000812:	3d01      	subeq	r5, #1
 8000814:	d0f7      	beq.n	8000806 <__aeabi_dmul+0x1c6>
 8000816:	ea43 0306 	orr.w	r3, r3, r6
 800081a:	4770      	bx	lr
 800081c:	ea94 0f0c 	teq	r4, ip
 8000820:	ea0c 5513 	and.w	r5, ip, r3, lsr #20
 8000824:	bf18      	it	ne
 8000826:	ea95 0f0c 	teqne	r5, ip
 800082a:	d00c      	beq.n	8000846 <__aeabi_dmul+0x206>
 800082c:	ea50 0641 	orrs.w	r6, r0, r1, lsl #1
 8000830:	bf18      	it	ne
 8000832:	ea52 0643 	orrsne.w	r6, r2, r3, lsl #1
 8000836:	d1d1      	bne.n	80007dc <__aeabi_dmul+0x19c>
 8000838:	ea81 0103 	eor.w	r1, r1, r3
 800083c:	f001 4100 	and.w	r1, r1, #2147483648	@ 0x80000000
 8000840:	f04f 0000 	mov.w	r0, #0
 8000844:	bd70      	pop	{r4, r5, r6, pc}
 8000846:	ea50 0641 	orrs.w	r6, r0, r1, lsl #1
 800084a:	bf06      	itte	eq
 800084c:	4610      	moveq	r0, r2
 800084e:	4619      	moveq	r1, r3
 8000850:	ea52 0643 	orrsne.w	r6, r2, r3, lsl #1
 8000854:	d019      	beq.n	800088a <__aeabi_dmul+0x24a>
 8000856:	ea94 0f0c 	teq	r4, ip
 800085a:	d102      	bne.n	8000862 <__aeabi_dmul+0x222>
 800085c:	ea50 3601 	orrs.w	r6, r0, r1, lsl #12
 8000860:	d113      	bne.n	800088a <__aeabi_dmul+0x24a>
 8000862:	ea95 0f0c 	teq	r5, ip
 8000866:	d105      	bne.n	8000874 <__aeabi_dmul+0x234>
 8000868:	ea52 3603 	orrs.w	r6, r2, r3, lsl #12
 800086c:	bf1c      	itt	ne
 800086e:	4610      	movne	r0, r2
 8000870:	4619      	movne	r1, r3
 8000872:	d10a      	bne.n	800088a <__aeabi_dmul+0x24a>
 8000874:	ea81 0103 	eor.w	r1, r1, r3
 8000878:	f001 4100 	and.w	r1, r1, #2147483648	@ 0x80000000
 800087c:	f041 41fe 	orr.w	r1, r1, #2130706432	@ 0x7f000000
 8000880:	f441 0170 	orr.w	r1, r1, #15728640	@ 0xf00000
 8000884:	f04f 0000 	mov.w	r0, #0
 8000888:	bd70      	pop	{r4, r5, r6, pc}
 800088a:	f041 41fe 	orr.w	r1, r1, #2130706432	@ 0x7f000000
 800088e:	f441 0178 	orr.w	r1, r1, #16252928	@ 0xf80000
 8000892:	bd70      	pop	{r4, r5, r6, pc}

08000894 <__aeabi_ddiv>:
 8000894:	b570      	push	{r4, r5, r6, lr}
 8000896:	f04f 0cff 	mov.w	ip, #255	@ 0xff
 800089a:	f44c 6ce0 	orr.w	ip, ip, #1792	@ 0x700
 800089e:	ea1c 5411 	ands.w	r4, ip, r1, lsr #20
 80008a2:	bf1d      	ittte	ne
 80008a4:	ea1c 5513 	andsne.w	r5, ip, r3, lsr #20
 80008a8:	ea94 0f0c 	teqne	r4, ip
 80008ac:	ea95 0f0c 	teqne	r5, ip
 80008b0:	f000 f8a7 	bleq	8000a02 <__aeabi_ddiv+0x16e>
 80008b4:	eba4 0405 	sub.w	r4, r4, r5
 80008b8:	ea81 0e03 	eor.w	lr, r1, r3
 80008bc:	ea52 3503 	orrs.w	r5, r2, r3, lsl #12
 80008c0:	ea4f 3101 	mov.w	r1, r1, lsl #12
 80008c4:	f000 8088 	beq.w	80009d8 <__aeabi_ddiv+0x144>
 80008c8:	ea4f 3303 	mov.w	r3, r3, lsl #12
 80008cc:	f04f 5580 	mov.w	r5, #268435456	@ 0x10000000
 80008d0:	ea45 1313 	orr.w	r3, r5, r3, lsr #4
 80008d4:	ea43 6312 	orr.w	r3, r3, r2, lsr #24
 80008d8:	ea4f 2202 	mov.w	r2, r2, lsl #8
 80008dc:	ea45 1511 	orr.w	r5, r5, r1, lsr #4
 80008e0:	ea45 6510 	orr.w	r5, r5, r0, lsr #24
 80008e4:	ea4f 2600 	mov.w	r6, r0, lsl #8
 80008e8:	f00e 4100 	and.w	r1, lr, #2147483648	@ 0x80000000
 80008ec:	429d      	cmp	r5, r3
 80008ee:	bf08      	it	eq
 80008f0:	4296      	cmpeq	r6, r2
 80008f2:	f144 04fd 	adc.w	r4, r4, #253	@ 0xfd
 80008f6:	f504 7440 	add.w	r4, r4, #768	@ 0x300
 80008fa:	d202      	bcs.n	8000902 <__aeabi_ddiv+0x6e>
 80008fc:	085b      	lsrs	r3, r3, #1
 80008fe:	ea4f 0232 	mov.w	r2, r2, rrx
 8000902:	1ab6      	subs	r6, r6, r2
 8000904:	eb65 0503 	sbc.w	r5, r5, r3
 8000908:	085b      	lsrs	r3, r3, #1
 800090a:	ea4f 0232 	mov.w	r2, r2, rrx
 800090e:	f44f 1080 	mov.w	r0, #1048576	@ 0x100000
 8000912:	f44f 2c00 	mov.w	ip, #524288	@ 0x80000
 8000916:	ebb6 0e02 	subs.w	lr, r6, r2
 800091a:	eb75 0e03 	sbcs.w	lr, r5, r3
 800091e:	bf22      	ittt	cs
 8000920:	1ab6      	subcs	r6, r6, r2
 8000922:	4675      	movcs	r5, lr
 8000924:	ea40 000c 	orrcs.w	r0, r0, ip
 8000928:	085b      	lsrs	r3, r3, #1
 800092a:	ea4f 0232 	mov.w	r2, r2, rrx
 800092e:	ebb6 0e02 	subs.w	lr, r6, r2
 8000932:	eb75 0e03 	sbcs.w	lr, r5, r3
 8000936:	bf22      	ittt	cs
 8000938:	1ab6      	subcs	r6, r6, r2
 800093a:	4675      	movcs	r5, lr
 800093c:	ea40 005c 	orrcs.w	r0, r0, ip, lsr #1
 8000940:	085b      	lsrs	r3, r3, #1
 8000942:	ea4f 0232 	mov.w	r2, r2, rrx
 8000946:	ebb6 0e02 	subs.w	lr, r6, r2
 800094a:	eb75 0e03 	sbcs.w	lr, r5, r3
 800094e:	bf22      	ittt	cs
 8000950:	1ab6      	subcs	r6, r6, r2
 8000952:	4675      	movcs	r5, lr
 8000954:	ea40 009c 	orrcs.w	r0, r0, ip, lsr #2
 8000958:	085b      	lsrs	r3, r3, #1
 800095a:	ea4f 0232 	mov.w	r2, r2, rrx
 800095e:	ebb6 0e02 	subs.w	lr, r6, r2
 8000962:	eb75 0e03 	sbcs.w	lr, r5, r3
 8000966:	bf22      	ittt	cs
 8000968:	1ab6      	subcs	r6, r6, r2
 800096a:	4675      	movcs	r5, lr
 800096c:	ea40 00dc 	orrcs.w	r0, r0, ip, lsr #3
 8000970:	ea55 0e06 	orrs.w	lr, r5, r6
 8000974:	d018      	beq.n	80009a8 <__aeabi_ddiv+0x114>
 8000976:	ea4f 1505 	mov.w	r5, r5, lsl #4
 800097a:	ea45 7516 	orr.w	r5, r5, r6, lsr #28
 800097e:	ea4f 1606 	mov.w	r6, r6, lsl #4
 8000982:	ea4f 03c3 	mov.w	r3, r3, lsl #3
 8000986:	ea43 7352 	orr.w	r3, r3, r2, lsr #29
 800098a:	ea4f 02c2 	mov.w	r2, r2, lsl #3
 800098e:	ea5f 1c1c 	movs.w	ip, ip, lsr #4
 8000992:	d1c0      	bne.n	8000916 <__aeabi_ddiv+0x82>
 8000994:	f411 1f80 	tst.w	r1, #1048576	@ 0x100000
 8000998:	d10b      	bne.n	80009b2 <__aeabi_ddiv+0x11e>
 800099a:	ea41 0100 	orr.w	r1, r1, r0
 800099e:	f04f 0000 	mov.w	r0, #0
 80009a2:	f04f 4c00 	mov.w	ip, #2147483648	@ 0x80000000
 80009a6:	e7b6      	b.n	8000916 <__aeabi_ddiv+0x82>
 80009a8:	f411 1f80 	tst.w	r1, #1048576	@ 0x100000
 80009ac:	bf04      	itt	eq
 80009ae:	4301      	orreq	r1, r0
 80009b0:	2000      	moveq	r0, #0
 80009b2:	f1b4 0cfd 	subs.w	ip, r4, #253	@ 0xfd
 80009b6:	bf88      	it	hi
 80009b8:	f5bc 6fe0 	cmphi.w	ip, #1792	@ 0x700
 80009bc:	f63f aeaf 	bhi.w	800071e <__aeabi_dmul+0xde>
 80009c0:	ebb5 0c03 	subs.w	ip, r5, r3
 80009c4:	bf04      	itt	eq
 80009c6:	ebb6 0c02 	subseq.w	ip, r6, r2
 80009ca:	ea5f 0c50 	movseq.w	ip, r0, lsr #1
 80009ce:	f150 0000 	adcs.w	r0, r0, #0
 80009d2:	eb41 5104 	adc.w	r1, r1, r4, lsl #20
 80009d6:	bd70      	pop	{r4, r5, r6, pc}
 80009d8:	f00e 4e00 	and.w	lr, lr, #2147483648	@ 0x80000000
 80009dc:	ea4e 3111 	orr.w	r1, lr, r1, lsr #12
 80009e0:	eb14 045c 	adds.w	r4, r4, ip, lsr #1
 80009e4:	bfc2      	ittt	gt
 80009e6:	ebd4 050c 	rsbsgt	r5, r4, ip
 80009ea:	ea41 5104 	orrgt.w	r1, r1, r4, lsl #20
 80009ee:	bd70      	popgt	{r4, r5, r6, pc}
 80009f0:	f441 1180 	orr.w	r1, r1, #1048576	@ 0x100000
 80009f4:	f04f 0e00 	mov.w	lr, #0
 80009f8:	3c01      	subs	r4, #1
 80009fa:	e690      	b.n	800071e <__aeabi_dmul+0xde>
 80009fc:	ea45 0e06 	orr.w	lr, r5, r6
 8000a00:	e68d      	b.n	800071e <__aeabi_dmul+0xde>
 8000a02:	ea0c 5513 	and.w	r5, ip, r3, lsr #20
 8000a06:	ea94 0f0c 	teq	r4, ip
 8000a0a:	bf08      	it	eq
 8000a0c:	ea95 0f0c 	teqeq	r5, ip
 8000a10:	f43f af3b 	beq.w	800088a <__aeabi_dmul+0x24a>
 8000a14:	ea94 0f0c 	teq	r4, ip
 8000a18:	d10a      	bne.n	8000a30 <__aeabi_ddiv+0x19c>
 8000a1a:	ea50 3401 	orrs.w	r4, r0, r1, lsl #12
 8000a1e:	f47f af34 	bne.w	800088a <__aeabi_dmul+0x24a>
 8000a22:	ea95 0f0c 	teq	r5, ip
 8000a26:	f47f af25 	bne.w	8000874 <__aeabi_dmul+0x234>
 8000a2a:	4610      	mov	r0, r2
 8000a2c:	4619      	mov	r1, r3
 8000a2e:	e72c      	b.n	800088a <__aeabi_dmul+0x24a>
 8000a30:	ea95 0f0c 	teq	r5, ip
 8000a34:	d106      	bne.n	8000a44 <__aeabi_ddiv+0x1b0>
 8000a36:	ea52 3503 	orrs.w	r5, r2, r3, lsl #12
 8000a3a:	f43f aefd 	beq.w	8000838 <__aeabi_dmul+0x1f8>
 8000a3e:	4610      	mov	r0, r2
 8000a40:	4619      	mov	r1, r3
 8000a42:	e722      	b.n	800088a <__aeabi_dmul+0x24a>
 8000a44:	ea50 0641 	orrs.w	r6, r0, r1, lsl #1
 8000a48:	bf18      	it	ne
 8000a4a:	ea52 0643 	orrsne.w	r6, r2, r3, lsl #1
 8000a4e:	f47f aec5 	bne.w	80007dc <__aeabi_dmul+0x19c>
 8000a52:	ea50 0441 	orrs.w	r4, r0, r1, lsl #1
 8000a56:	f47f af0d 	bne.w	8000874 <__aeabi_dmul+0x234>
 8000a5a:	ea52 0543 	orrs.w	r5, r2, r3, lsl #1
 8000a5e:	f47f aeeb 	bne.w	8000838 <__aeabi_dmul+0x1f8>
 8000a62:	e712      	b.n	800088a <__aeabi_dmul+0x24a>

08000a64 <__gedf2>:
 8000a64:	f04f 3cff 	mov.w	ip, #4294967295
 8000a68:	e006      	b.n	8000a78 <__cmpdf2+0x4>
 8000a6a:	bf00      	nop

08000a6c <__ledf2>:
 8000a6c:	f04f 0c01 	mov.w	ip, #1
 8000a70:	e002      	b.n	8000a78 <__cmpdf2+0x4>
 8000a72:	bf00      	nop

08000a74 <__cmpdf2>:
 8000a74:	f04f 0c01 	mov.w	ip, #1
 8000a78:	f84d cd04 	str.w	ip, [sp, #-4]!
 8000a7c:	ea4f 0c41 	mov.w	ip, r1, lsl #1
 8000a80:	ea7f 5c6c 	mvns.w	ip, ip, asr #21
 8000a84:	ea4f 0c43 	mov.w	ip, r3, lsl #1
 8000a88:	bf18      	it	ne
 8000a8a:	ea7f 5c6c 	mvnsne.w	ip, ip, asr #21
 8000a8e:	d01b      	beq.n	8000ac8 <__cmpdf2+0x54>
 8000a90:	b001      	add	sp, #4
 8000a92:	ea50 0c41 	orrs.w	ip, r0, r1, lsl #1
 8000a96:	bf0c      	ite	eq
 8000a98:	ea52 0c43 	orrseq.w	ip, r2, r3, lsl #1
 8000a9c:	ea91 0f03 	teqne	r1, r3
 8000aa0:	bf02      	ittt	eq
 8000aa2:	ea90 0f02 	teqeq	r0, r2
 8000aa6:	2000      	moveq	r0, #0
 8000aa8:	4770      	bxeq	lr
 8000aaa:	f110 0f00 	cmn.w	r0, #0
 8000aae:	ea91 0f03 	teq	r1, r3
 8000ab2:	bf58      	it	pl
 8000ab4:	4299      	cmppl	r1, r3
 8000ab6:	bf08      	it	eq
 8000ab8:	4290      	cmpeq	r0, r2
 8000aba:	bf2c      	ite	cs
 8000abc:	17d8      	asrcs	r0, r3, #31
 8000abe:	ea6f 70e3 	mvncc.w	r0, r3, asr #31
 8000ac2:	f040 0001 	orr.w	r0, r0, #1
 8000ac6:	4770      	bx	lr
 8000ac8:	ea4f 0c41 	mov.w	ip, r1, lsl #1
 8000acc:	ea7f 5c6c 	mvns.w	ip, ip, asr #21
 8000ad0:	d102      	bne.n	8000ad8 <__cmpdf2+0x64>
 8000ad2:	ea50 3c01 	orrs.w	ip, r0, r1, lsl #12
 8000ad6:	d107      	bne.n	8000ae8 <__cmpdf2+0x74>
 8000ad8:	ea4f 0c43 	mov.w	ip, r3, lsl #1
 8000adc:	ea7f 5c6c 	mvns.w	ip, ip, asr #21
 8000ae0:	d1d6      	bne.n	8000a90 <__cmpdf2+0x1c>
 8000ae2:	ea52 3c03 	orrs.w	ip, r2, r3, lsl #12
 8000ae6:	d0d3      	beq.n	8000a90 <__cmpdf2+0x1c>
 8000ae8:	f85d 0b04 	ldr.w	r0, [sp], #4
 8000aec:	4770      	bx	lr
 8000aee:	bf00      	nop

08000af0 <__aeabi_cdrcmple>:
 8000af0:	4684      	mov	ip, r0
 8000af2:	4610      	mov	r0, r2
 8000af4:	4662      	mov	r2, ip
 8000af6:	468c      	mov	ip, r1
 8000af8:	4619      	mov	r1, r3
 8000afa:	4663      	mov	r3, ip
 8000afc:	e000      	b.n	8000b00 <__aeabi_cdcmpeq>
 8000afe:	bf00      	nop

08000b00 <__aeabi_cdcmpeq>:
 8000b00:	b501      	push	{r0, lr}
 8000b02:	f7ff ffb7 	bl	8000a74 <__cmpdf2>
 8000b06:	2800      	cmp	r0, #0
 8000b08:	bf48      	it	mi
 8000b0a:	f110 0f00 	cmnmi.w	r0, #0
 8000b0e:	bd01      	pop	{r0, pc}

08000b10 <__aeabi_dcmpeq>:
 8000b10:	f84d ed08 	str.w	lr, [sp, #-8]!
 8000b14:	f7ff fff4 	bl	8000b00 <__aeabi_cdcmpeq>
 8000b18:	bf0c      	ite	eq
 8000b1a:	2001      	moveq	r0, #1
 8000b1c:	2000      	movne	r0, #0
 8000b1e:	f85d fb08 	ldr.w	pc, [sp], #8
 8000b22:	bf00      	nop

08000b24 <__aeabi_dcmplt>:
 8000b24:	f84d ed08 	str.w	lr, [sp, #-8]!
 8000b28:	f7ff ffea 	bl	8000b00 <__aeabi_cdcmpeq>
 8000b2c:	bf34      	ite	cc
 8000b2e:	2001      	movcc	r0, #1
 8000b30:	2000      	movcs	r0, #0
 8000b32:	f85d fb08 	ldr.w	pc, [sp], #8
 8000b36:	bf00      	nop

08000b38 <__aeabi_dcmple>:
 8000b38:	f84d ed08 	str.w	lr, [sp, #-8]!
 8000b3c:	f7ff ffe0 	bl	8000b00 <__aeabi_cdcmpeq>
 8000b40:	bf94      	ite	ls
 8000b42:	2001      	movls	r0, #1
 8000b44:	2000      	movhi	r0, #0
 8000b46:	f85d fb08 	ldr.w	pc, [sp], #8
 8000b4a:	bf00      	nop

08000b4c <__aeabi_dcmpge>:
 8000b4c:	f84d ed08 	str.w	lr, [sp, #-8]!
 8000b50:	f7ff ffce 	bl	8000af0 <__aeabi_cdrcmple>
 8000b54:	bf94      	ite	ls
 8000b56:	2001      	movls	r0, #1
 8000b58:	2000      	movhi	r0, #0
 8000b5a:	f85d fb08 	ldr.w	pc, [sp], #8
 8000b5e:	bf00      	nop

08000b60 <__aeabi_dcmpgt>:
 8000b60:	f84d ed08 	str.w	lr, [sp, #-8]!
 8000b64:	f7ff ffc4 	bl	8000af0 <__aeabi_cdrcmple>
 8000b68:	bf34      	ite	cc
 8000b6a:	2001      	movcc	r0, #1
 8000b6c:	2000      	movcs	r0, #0
 8000b6e:	f85d fb08 	ldr.w	pc, [sp], #8
 8000b72:	bf00      	nop

08000b74 <__aeabi_dcmpun>:
 8000b74:	ea4f 0c41 	mov.w	ip, r1, lsl #1
 8000b78:	ea7f 5c6c 	mvns.w	ip, ip, asr #21
 8000b7c:	d102      	bne.n	8000b84 <__aeabi_dcmpun+0x10>
 8000b7e:	ea50 3c01 	orrs.w	ip, r0, r1, lsl #12
 8000b82:	d10a      	bne.n	8000b9a <__aeabi_dcmpun+0x26>
 8000b84:	ea4f 0c43 	mov.w	ip, r3, lsl #1
 8000b88:	ea7f 5c6c 	mvns.w	ip, ip, asr #21
 8000b8c:	d102      	bne.n	8000b94 <__aeabi_dcmpun+0x20>
 8000b8e:	ea52 3c03 	orrs.w	ip, r2, r3, lsl #12
 8000b92:	d102      	bne.n	8000b9a <__aeabi_dcmpun+0x26>
 8000b94:	f04f 0000 	mov.w	r0, #0
 8000b98:	4770      	bx	lr
 8000b9a:	f04f 0001 	mov.w	r0, #1
 8000b9e:	4770      	bx	lr

08000ba0 <__aeabi_d2iz>:
 8000ba0:	ea4f 0241 	mov.w	r2, r1, lsl #1
 8000ba4:	f512 1200 	adds.w	r2, r2, #2097152	@ 0x200000
 8000ba8:	d215      	bcs.n	8000bd6 <__aeabi_d2iz+0x36>
 8000baa:	d511      	bpl.n	8000bd0 <__aeabi_d2iz+0x30>
 8000bac:	f46f 7378 	mvn.w	r3, #992	@ 0x3e0
 8000bb0:	ebb3 5262 	subs.w	r2, r3, r2, asr #21
 8000bb4:	d912      	bls.n	8000bdc <__aeabi_d2iz+0x3c>
 8000bb6:	ea4f 23c1 	mov.w	r3, r1, lsl #11
 8000bba:	f043 4300 	orr.w	r3, r3, #2147483648	@ 0x80000000
 8000bbe:	ea43 5350 	orr.w	r3, r3, r0, lsr #21
 8000bc2:	f011 4f00 	tst.w	r1, #2147483648	@ 0x80000000
 8000bc6:	fa23 f002 	lsr.w	r0, r3, r2
 8000bca:	bf18      	it	ne
 8000bcc:	4240      	negne	r0, r0
 8000bce:	4770      	bx	lr
 8000bd0:	f04f 0000 	mov.w	r0, #0
 8000bd4:	4770      	bx	lr
 8000bd6:	ea50 3001 	orrs.w	r0, r0, r1, lsl #12
 8000bda:	d105      	bne.n	8000be8 <__aeabi_d2iz+0x48>
 8000bdc:	f011 4000 	ands.w	r0, r1, #2147483648	@ 0x80000000
 8000be0:	bf08      	it	eq
 8000be2:	f06f 4000 	mvneq.w	r0, #2147483648	@ 0x80000000
 8000be6:	4770      	bx	lr
 8000be8:	f04f 0000 	mov.w	r0, #0
 8000bec:	4770      	bx	lr
 8000bee:	bf00      	nop

08000bf0 <__aeabi_d2uiz>:
 8000bf0:	004a      	lsls	r2, r1, #1
 8000bf2:	d211      	bcs.n	8000c18 <__aeabi_d2uiz+0x28>
 8000bf4:	f512 1200 	adds.w	r2, r2, #2097152	@ 0x200000
 8000bf8:	d211      	bcs.n	8000c1e <__aeabi_d2uiz+0x2e>
 8000bfa:	d50d      	bpl.n	8000c18 <__aeabi_d2uiz+0x28>
 8000bfc:	f46f 7378 	mvn.w	r3, #992	@ 0x3e0
 8000c00:	ebb3 5262 	subs.w	r2, r3, r2, asr #21
 8000c04:	d40e      	bmi.n	8000c24 <__aeabi_d2uiz+0x34>
 8000c06:	ea4f 23c1 	mov.w	r3, r1, lsl #11
 8000c0a:	f043 4300 	orr.w	r3, r3, #2147483648	@ 0x80000000
 8000c0e:	ea43 5350 	orr.w	r3, r3, r0, lsr #21
 8000c12:	fa23 f002 	lsr.w	r0, r3, r2
 8000c16:	4770      	bx	lr
 8000c18:	f04f 0000 	mov.w	r0, #0
 8000c1c:	4770      	bx	lr
 8000c1e:	ea50 3001 	orrs.w	r0, r0, r1, lsl #12
 8000c22:	d102      	bne.n	8000c2a <__aeabi_d2uiz+0x3a>
 8000c24:	f04f 30ff 	mov.w	r0, #4294967295
 8000c28:	4770      	bx	lr
 8000c2a:	f04f 0000 	mov.w	r0, #0
 8000c2e:	4770      	bx	lr

08000c30 <__aeabi_d2f>:
 8000c30:	ea4f 0241 	mov.w	r2, r1, lsl #1
 8000c34:	f1b2 43e0 	subs.w	r3, r2, #1879048192	@ 0x70000000
 8000c38:	bf24      	itt	cs
 8000c3a:	f5b3 1c00 	subscs.w	ip, r3, #2097152	@ 0x200000
 8000c3e:	f1dc 5cfe 	rsbscs	ip, ip, #532676608	@ 0x1fc00000
 8000c42:	d90d      	bls.n	8000c60 <__aeabi_d2f+0x30>
 8000c44:	f001 4c00 	and.w	ip, r1, #2147483648	@ 0x80000000
 8000c48:	ea4f 02c0 	mov.w	r2, r0, lsl #3
 8000c4c:	ea4c 7050 	orr.w	r0, ip, r0, lsr #29
 8000c50:	f1b2 4f00 	cmp.w	r2, #2147483648	@ 0x80000000
 8000c54:	eb40 0083 	adc.w	r0, r0, r3, lsl #2
 8000c58:	bf08      	it	eq
 8000c5a:	f020 0001 	biceq.w	r0, r0, #1
 8000c5e:	4770      	bx	lr
 8000c60:	f011 4f80 	tst.w	r1, #1073741824	@ 0x40000000
 8000c64:	d121      	bne.n	8000caa <__aeabi_d2f+0x7a>
 8000c66:	f113 7238 	adds.w	r2, r3, #48234496	@ 0x2e00000
 8000c6a:	bfbc      	itt	lt
 8000c6c:	f001 4000 	andlt.w	r0, r1, #2147483648	@ 0x80000000
 8000c70:	4770      	bxlt	lr
 8000c72:	f441 1180 	orr.w	r1, r1, #1048576	@ 0x100000
 8000c76:	ea4f 5252 	mov.w	r2, r2, lsr #21
 8000c7a:	f1c2 0218 	rsb	r2, r2, #24
 8000c7e:	f1c2 0c20 	rsb	ip, r2, #32
 8000c82:	fa10 f30c 	lsls.w	r3, r0, ip
 8000c86:	fa20 f002 	lsr.w	r0, r0, r2
 8000c8a:	bf18      	it	ne
 8000c8c:	f040 0001 	orrne.w	r0, r0, #1
 8000c90:	ea4f 23c1 	mov.w	r3, r1, lsl #11
 8000c94:	ea4f 23d3 	mov.w	r3, r3, lsr #11
 8000c98:	fa03 fc0c 	lsl.w	ip, r3, ip
 8000c9c:	ea40 000c 	orr.w	r0, r0, ip
 8000ca0:	fa23 f302 	lsr.w	r3, r3, r2
 8000ca4:	ea4f 0343 	mov.w	r3, r3, lsl #1
 8000ca8:	e7cc      	b.n	8000c44 <__aeabi_d2f+0x14>
 8000caa:	ea7f 5362 	mvns.w	r3, r2, asr #21
 8000cae:	d107      	bne.n	8000cc0 <__aeabi_d2f+0x90>
 8000cb0:	ea50 3301 	orrs.w	r3, r0, r1, lsl #12
 8000cb4:	bf1e      	ittt	ne
 8000cb6:	f04f 40fe 	movne.w	r0, #2130706432	@ 0x7f000000
 8000cba:	f440 0040 	orrne.w	r0, r0, #12582912	@ 0xc00000
 8000cbe:	4770      	bxne	lr
 8000cc0:	f001 4000 	and.w	r0, r1, #2147483648	@ 0x80000000
 8000cc4:	f040 40fe 	orr.w	r0, r0, #2130706432	@ 0x7f000000
 8000cc8:	f440 0000 	orr.w	r0, r0, #8388608	@ 0x800000
 8000ccc:	4770      	bx	lr
 8000cce:	bf00      	nop

08000cd0 <__aeabi_frsub>:
 8000cd0:	f080 4000 	eor.w	r0, r0, #2147483648	@ 0x80000000
 8000cd4:	e002      	b.n	8000cdc <__addsf3>
 8000cd6:	bf00      	nop

08000cd8 <__aeabi_fsub>:
 8000cd8:	f081 4100 	eor.w	r1, r1, #2147483648	@ 0x80000000

08000cdc <__addsf3>:
 8000cdc:	0042      	lsls	r2, r0, #1
 8000cde:	bf1f      	itttt	ne
 8000ce0:	ea5f 0341 	movsne.w	r3, r1, lsl #1
 8000ce4:	ea92 0f03 	teqne	r2, r3
 8000ce8:	ea7f 6c22 	mvnsne.w	ip, r2, asr #24
 8000cec:	ea7f 6c23 	mvnsne.w	ip, r3, asr #24
 8000cf0:	d06a      	beq.n	8000dc8 <__addsf3+0xec>
 8000cf2:	ea4f 6212 	mov.w	r2, r2, lsr #24
 8000cf6:	ebd2 6313 	rsbs	r3, r2, r3, lsr #24
 8000cfa:	bfc1      	itttt	gt
 8000cfc:	18d2      	addgt	r2, r2, r3
 8000cfe:	4041      	eorgt	r1, r0
 8000d00:	4048      	eorgt	r0, r1
 8000d02:	4041      	eorgt	r1, r0
 8000d04:	bfb8      	it	lt
 8000d06:	425b      	neglt	r3, r3
 8000d08:	2b19      	cmp	r3, #25
 8000d0a:	bf88      	it	hi
 8000d0c:	4770      	bxhi	lr
 8000d0e:	f010 4f00 	tst.w	r0, #2147483648	@ 0x80000000
 8000d12:	f440 0000 	orr.w	r0, r0, #8388608	@ 0x800000
 8000d16:	f020 407f 	bic.w	r0, r0, #4278190080	@ 0xff000000
 8000d1a:	bf18      	it	ne
 8000d1c:	4240      	negne	r0, r0
 8000d1e:	f011 4f00 	tst.w	r1, #2147483648	@ 0x80000000
 8000d22:	f441 0100 	orr.w	r1, r1, #8388608	@ 0x800000
 8000d26:	f021 417f 	bic.w	r1, r1, #4278190080	@ 0xff000000
 8000d2a:	bf18      	it	ne
 8000d2c:	4249      	negne	r1, r1
 8000d2e:	ea92 0f03 	teq	r2, r3
 8000d32:	d03f      	beq.n	8000db4 <__addsf3+0xd8>
 8000d34:	f1a2 0201 	sub.w	r2, r2, #1
 8000d38:	fa41 fc03 	asr.w	ip, r1, r3
 8000d3c:	eb10 000c 	adds.w	r0, r0, ip
 8000d40:	f1c3 0320 	rsb	r3, r3, #32
 8000d44:	fa01 f103 	lsl.w	r1, r1, r3
 8000d48:	f000 4300 	and.w	r3, r0, #2147483648	@ 0x80000000
 8000d4c:	d502      	bpl.n	8000d54 <__addsf3+0x78>
 8000d4e:	4249      	negs	r1, r1
 8000d50:	eb60 0040 	sbc.w	r0, r0, r0, lsl #1
 8000d54:	f5b0 0f00 	cmp.w	r0, #8388608	@ 0x800000
 8000d58:	d313      	bcc.n	8000d82 <__addsf3+0xa6>
 8000d5a:	f1b0 7f80 	cmp.w	r0, #16777216	@ 0x1000000
 8000d5e:	d306      	bcc.n	8000d6e <__addsf3+0x92>
 8000d60:	0840      	lsrs	r0, r0, #1
 8000d62:	ea4f 0131 	mov.w	r1, r1, rrx
 8000d66:	f102 0201 	add.w	r2, r2, #1
 8000d6a:	2afe      	cmp	r2, #254	@ 0xfe
 8000d6c:	d251      	bcs.n	8000e12 <__addsf3+0x136>
 8000d6e:	f1b1 4f00 	cmp.w	r1, #2147483648	@ 0x80000000
 8000d72:	eb40 50c2 	adc.w	r0, r0, r2, lsl #23
 8000d76:	bf08      	it	eq
 8000d78:	f020 0001 	biceq.w	r0, r0, #1
 8000d7c:	ea40 0003 	orr.w	r0, r0, r3
 8000d80:	4770      	bx	lr
 8000d82:	0049      	lsls	r1, r1, #1
 8000d84:	eb40 0000 	adc.w	r0, r0, r0
 8000d88:	3a01      	subs	r2, #1
 8000d8a:	bf28      	it	cs
 8000d8c:	f5b0 0f00 	cmpcs.w	r0, #8388608	@ 0x800000
 8000d90:	d2ed      	bcs.n	8000d6e <__addsf3+0x92>
 8000d92:	fab0 fc80 	clz	ip, r0
 8000d96:	f1ac 0c08 	sub.w	ip, ip, #8
 8000d9a:	ebb2 020c 	subs.w	r2, r2, ip
 8000d9e:	fa00 f00c 	lsl.w	r0, r0, ip
 8000da2:	bfaa      	itet	ge
 8000da4:	eb00 50c2 	addge.w	r0, r0, r2, lsl #23
 8000da8:	4252      	neglt	r2, r2
 8000daa:	4318      	orrge	r0, r3
 8000dac:	bfbc      	itt	lt
 8000dae:	40d0      	lsrlt	r0, r2
 8000db0:	4318      	orrlt	r0, r3
 8000db2:	4770      	bx	lr
 8000db4:	f092 0f00 	teq	r2, #0
 8000db8:	f481 0100 	eor.w	r1, r1, #8388608	@ 0x800000
 8000dbc:	bf06      	itte	eq
 8000dbe:	f480 0000 	eoreq.w	r0, r0, #8388608	@ 0x800000
 8000dc2:	3201      	addeq	r2, #1
 8000dc4:	3b01      	subne	r3, #1
 8000dc6:	e7b5      	b.n	8000d34 <__addsf3+0x58>
 8000dc8:	ea4f 0341 	mov.w	r3, r1, lsl #1
 8000dcc:	ea7f 6c22 	mvns.w	ip, r2, asr #24
 8000dd0:	bf18      	it	ne
 8000dd2:	ea7f 6c23 	mvnsne.w	ip, r3, asr #24
 8000dd6:	d021      	beq.n	8000e1c <__addsf3+0x140>
 8000dd8:	ea92 0f03 	teq	r2, r3
 8000ddc:	d004      	beq.n	8000de8 <__addsf3+0x10c>
 8000dde:	f092 0f00 	teq	r2, #0
 8000de2:	bf08      	it	eq
 8000de4:	4608      	moveq	r0, r1
 8000de6:	4770      	bx	lr
 8000de8:	ea90 0f01 	teq	r0, r1
 8000dec:	bf1c      	itt	ne
 8000dee:	2000      	movne	r0, #0
 8000df0:	4770      	bxne	lr
 8000df2:	f012 4f7f 	tst.w	r2, #4278190080	@ 0xff000000
 8000df6:	d104      	bne.n	8000e02 <__addsf3+0x126>
 8000df8:	0040      	lsls	r0, r0, #1
 8000dfa:	bf28      	it	cs
 8000dfc:	f040 4000 	orrcs.w	r0, r0, #2147483648	@ 0x80000000
 8000e00:	4770      	bx	lr
 8000e02:	f112 7200 	adds.w	r2, r2, #33554432	@ 0x2000000
 8000e06:	bf3c      	itt	cc
 8000e08:	f500 0000 	addcc.w	r0, r0, #8388608	@ 0x800000
 8000e0c:	4770      	bxcc	lr
 8000e0e:	f000 4300 	and.w	r3, r0, #2147483648	@ 0x80000000
 8000e12:	f043 40fe 	orr.w	r0, r3, #2130706432	@ 0x7f000000
 8000e16:	f440 0000 	orr.w	r0, r0, #8388608	@ 0x800000
 8000e1a:	4770      	bx	lr
 8000e1c:	ea7f 6222 	mvns.w	r2, r2, asr #24
 8000e20:	bf16      	itet	ne
 8000e22:	4608      	movne	r0, r1
 8000e24:	ea7f 6323 	mvnseq.w	r3, r3, asr #24
 8000e28:	4601      	movne	r1, r0
 8000e2a:	0242      	lsls	r2, r0, #9
 8000e2c:	bf06      	itte	eq
 8000e2e:	ea5f 2341 	movseq.w	r3, r1, lsl #9
 8000e32:	ea90 0f01 	teqeq	r0, r1
 8000e36:	f440 0080 	orrne.w	r0, r0, #4194304	@ 0x400000
 8000e3a:	4770      	bx	lr

08000e3c <__aeabi_ui2f>:
 8000e3c:	f04f 0300 	mov.w	r3, #0
 8000e40:	e004      	b.n	8000e4c <__aeabi_i2f+0x8>
 8000e42:	bf00      	nop

08000e44 <__aeabi_i2f>:
 8000e44:	f010 4300 	ands.w	r3, r0, #2147483648	@ 0x80000000
 8000e48:	bf48      	it	mi
 8000e4a:	4240      	negmi	r0, r0
 8000e4c:	ea5f 0c00 	movs.w	ip, r0
 8000e50:	bf08      	it	eq
 8000e52:	4770      	bxeq	lr
 8000e54:	f043 4396 	orr.w	r3, r3, #1258291200	@ 0x4b000000
 8000e58:	4601      	mov	r1, r0
 8000e5a:	f04f 0000 	mov.w	r0, #0
 8000e5e:	e01c      	b.n	8000e9a <__aeabi_l2f+0x2a>

08000e60 <__aeabi_ul2f>:
 8000e60:	ea50 0201 	orrs.w	r2, r0, r1
 8000e64:	bf08      	it	eq
 8000e66:	4770      	bxeq	lr
 8000e68:	f04f 0300 	mov.w	r3, #0
 8000e6c:	e00a      	b.n	8000e84 <__aeabi_l2f+0x14>
 8000e6e:	bf00      	nop

08000e70 <__aeabi_l2f>:
 8000e70:	ea50 0201 	orrs.w	r2, r0, r1
 8000e74:	bf08      	it	eq
 8000e76:	4770      	bxeq	lr
 8000e78:	f011 4300 	ands.w	r3, r1, #2147483648	@ 0x80000000
 8000e7c:	d502      	bpl.n	8000e84 <__aeabi_l2f+0x14>
 8000e7e:	4240      	negs	r0, r0
 8000e80:	eb61 0141 	sbc.w	r1, r1, r1, lsl #1
 8000e84:	ea5f 0c01 	movs.w	ip, r1
 8000e88:	bf02      	ittt	eq
 8000e8a:	4684      	moveq	ip, r0
 8000e8c:	4601      	moveq	r1, r0
 8000e8e:	2000      	moveq	r0, #0
 8000e90:	f043 43b6 	orr.w	r3, r3, #1526726656	@ 0x5b000000
 8000e94:	bf08      	it	eq
 8000e96:	f1a3 5380 	subeq.w	r3, r3, #268435456	@ 0x10000000
 8000e9a:	f5a3 0300 	sub.w	r3, r3, #8388608	@ 0x800000
 8000e9e:	fabc f28c 	clz	r2, ip
 8000ea2:	3a08      	subs	r2, #8
 8000ea4:	eba3 53c2 	sub.w	r3, r3, r2, lsl #23
 8000ea8:	db10      	blt.n	8000ecc <__aeabi_l2f+0x5c>
 8000eaa:	fa01 fc02 	lsl.w	ip, r1, r2
 8000eae:	4463      	add	r3, ip
 8000eb0:	fa00 fc02 	lsl.w	ip, r0, r2
 8000eb4:	f1c2 0220 	rsb	r2, r2, #32
 8000eb8:	f1bc 4f00 	cmp.w	ip, #2147483648	@ 0x80000000
 8000ebc:	fa20 f202 	lsr.w	r2, r0, r2
 8000ec0:	eb43 0002 	adc.w	r0, r3, r2
 8000ec4:	bf08      	it	eq
 8000ec6:	f020 0001 	biceq.w	r0, r0, #1
 8000eca:	4770      	bx	lr
 8000ecc:	f102 0220 	add.w	r2, r2, #32
 8000ed0:	fa01 fc02 	lsl.w	ip, r1, r2
 8000ed4:	f1c2 0220 	rsb	r2, r2, #32
 8000ed8:	ea50 004c 	orrs.w	r0, r0, ip, lsl #1
 8000edc:	fa21 f202 	lsr.w	r2, r1, r2
 8000ee0:	eb43 0002 	adc.w	r0, r3, r2
 8000ee4:	bf08      	it	eq
 8000ee6:	ea20 70dc 	biceq.w	r0, r0, ip, lsr #31
 8000eea:	4770      	bx	lr

08000eec <__aeabi_f2uiz>:
 8000eec:	0042      	lsls	r2, r0, #1
 8000eee:	d20e      	bcs.n	8000f0e <__aeabi_f2uiz+0x22>
 8000ef0:	f1b2 4ffe 	cmp.w	r2, #2130706432	@ 0x7f000000
 8000ef4:	d30b      	bcc.n	8000f0e <__aeabi_f2uiz+0x22>
 8000ef6:	f04f 039e 	mov.w	r3, #158	@ 0x9e
 8000efa:	ebb3 6212 	subs.w	r2, r3, r2, lsr #24
 8000efe:	d409      	bmi.n	8000f14 <__aeabi_f2uiz+0x28>
 8000f00:	ea4f 2300 	mov.w	r3, r0, lsl #8
 8000f04:	f043 4300 	orr.w	r3, r3, #2147483648	@ 0x80000000
 8000f08:	fa23 f002 	lsr.w	r0, r3, r2
 8000f0c:	4770      	bx	lr
 8000f0e:	f04f 0000 	mov.w	r0, #0
 8000f12:	4770      	bx	lr
 8000f14:	f112 0f61 	cmn.w	r2, #97	@ 0x61
 8000f18:	d101      	bne.n	8000f1e <__aeabi_f2uiz+0x32>
 8000f1a:	0242      	lsls	r2, r0, #9
 8000f1c:	d102      	bne.n	8000f24 <__aeabi_f2uiz+0x38>
 8000f1e:	f04f 30ff 	mov.w	r0, #4294967295
 8000f22:	4770      	bx	lr
 8000f24:	f04f 0000 	mov.w	r0, #0
 8000f28:	4770      	bx	lr
 8000f2a:	bf00      	nop

08000f2c <__aeabi_d2lz>:
 8000f2c:	b538      	push	{r3, r4, r5, lr}
 8000f2e:	2200      	movs	r2, #0
 8000f30:	2300      	movs	r3, #0
 8000f32:	4604      	mov	r4, r0
 8000f34:	460d      	mov	r5, r1
 8000f36:	f7ff fdf5 	bl	8000b24 <__aeabi_dcmplt>
 8000f3a:	b928      	cbnz	r0, 8000f48 <__aeabi_d2lz+0x1c>
 8000f3c:	4620      	mov	r0, r4
 8000f3e:	4629      	mov	r1, r5
 8000f40:	e8bd 4038 	ldmia.w	sp!, {r3, r4, r5, lr}
 8000f44:	f000 b80a 	b.w	8000f5c <__aeabi_d2ulz>
 8000f48:	4620      	mov	r0, r4
 8000f4a:	f105 4100 	add.w	r1, r5, #2147483648	@ 0x80000000
 8000f4e:	f000 f805 	bl	8000f5c <__aeabi_d2ulz>
 8000f52:	4240      	negs	r0, r0
 8000f54:	eb61 0141 	sbc.w	r1, r1, r1, lsl #1
 8000f58:	bd38      	pop	{r3, r4, r5, pc}
 8000f5a:	bf00      	nop

08000f5c <__aeabi_d2ulz>:
 8000f5c:	b5d0      	push	{r4, r6, r7, lr}
 8000f5e:	2200      	movs	r2, #0
 8000f60:	4b0b      	ldr	r3, [pc, #44]	@ (8000f90 <__aeabi_d2ulz+0x34>)
 8000f62:	4606      	mov	r6, r0
 8000f64:	460f      	mov	r7, r1
 8000f66:	f7ff fb6b 	bl	8000640 <__aeabi_dmul>
 8000f6a:	f7ff fe41 	bl	8000bf0 <__aeabi_d2uiz>
 8000f6e:	4604      	mov	r4, r0
 8000f70:	f7ff faec 	bl	800054c <__aeabi_ui2d>
 8000f74:	2200      	movs	r2, #0
 8000f76:	4b07      	ldr	r3, [pc, #28]	@ (8000f94 <__aeabi_d2ulz+0x38>)
 8000f78:	f7ff fb62 	bl	8000640 <__aeabi_dmul>
 8000f7c:	4602      	mov	r2, r0
 8000f7e:	460b      	mov	r3, r1
 8000f80:	4630      	mov	r0, r6
 8000f82:	4639      	mov	r1, r7
 8000f84:	f7ff f9a4 	bl	80002d0 <__aeabi_dsub>
 8000f88:	f7ff fe32 	bl	8000bf0 <__aeabi_d2uiz>
 8000f8c:	4621      	mov	r1, r4
 8000f8e:	bdd0      	pop	{r4, r6, r7, pc}
 8000f90:	3df00000 	.word	0x3df00000
 8000f94:	41f00000 	.word	0x41f00000

08000f98 <ESP_SendCommand>:
    strncpy(esp_config.ap_ssid, ap_ssid, sizeof(esp_config.ap_ssid));
    strncpy(esp_config.ap_pswd, ap_pswd, sizeof(esp_config.ap_pswd));
    strncpy(esp_config.ap_ip, ap_ip, sizeof(esp_config.ap_ip));
}

void ESP_SendCommand(const char *command) {
 8000f98:	b510      	push	{r4, lr}
 8000f9a:	4604      	mov	r4, r0
    // Transmit the command using the default UART
    HAL_UART_Transmit(AT_huart, (uint8_t*)command, strlen(command), 1000);
 8000f9c:	f7ff f8d8 	bl	8000150 <strlen>
 8000fa0:	f44f 737a 	mov.w	r3, #1000	@ 0x3e8
 8000fa4:	b282      	uxth	r2, r0
 8000fa6:	4621      	mov	r1, r4
 8000fa8:	4802      	ldr	r0, [pc, #8]	@ (8000fb4 <ESP_SendCommand+0x1c>)
 8000faa:	6800      	ldr	r0, [r0, #0]
 8000fac:	f004 fed6 	bl	8005d5c <HAL_UART_Transmit>
}
 8000fb0:	bd10      	pop	{r4, pc}
 8000fb2:	bf00      	nop
 8000fb4:	200002ec 	.word	0x200002ec

08000fb8 <ESP_SendTCP>:

void ESP_SendTCP(uint8_t con_num, char *data) {
 8000fb8:	b530      	push	{r4, r5, lr}
 8000fba:	b08f      	sub	sp, #60	@ 0x3c
 8000fbc:	4605      	mov	r5, r0
 8000fbe:	460c      	mov	r4, r1
    // Calculate the total length
    uint8_t cmd[50];
    sprintf((char*)cmd, "AT+CIPSEND=%d,%d\r\n", con_num, strlen(data));
 8000fc0:	4608      	mov	r0, r1
 8000fc2:	f7ff f8c5 	bl	8000150 <strlen>
 8000fc6:	4603      	mov	r3, r0
 8000fc8:	462a      	mov	r2, r5
 8000fca:	490e      	ldr	r1, [pc, #56]	@ (8001004 <ESP_SendTCP+0x4c>)
 8000fcc:	a801      	add	r0, sp, #4
 8000fce:	f006 f943 	bl	8007258 <siprintf>
    HAL_UART_Transmit(AT_huart, cmd, strlen((char*)cmd), 100);
 8000fd2:	a801      	add	r0, sp, #4
 8000fd4:	f7ff f8bc 	bl	8000150 <strlen>
 8000fd8:	4d0b      	ldr	r5, [pc, #44]	@ (8001008 <ESP_SendTCP+0x50>)
 8000fda:	2364      	movs	r3, #100	@ 0x64
 8000fdc:	b282      	uxth	r2, r0
 8000fde:	a901      	add	r1, sp, #4
 8000fe0:	6828      	ldr	r0, [r5, #0]
 8000fe2:	f004 febb 	bl	8005d5c <HAL_UART_Transmit>
    HAL_Delay(1); // Adjust this delay as needed
 8000fe6:	2001      	movs	r0, #1
 8000fe8:	f002 fb80 	bl	80036ec <HAL_Delay>
    HAL_UART_Transmit(AT_huart, (uint8_t *)data, strlen(data), 1000);
 8000fec:	4620      	mov	r0, r4
 8000fee:	f7ff f8af 	bl	8000150 <strlen>
 8000ff2:	f44f 737a 	mov.w	r3, #1000	@ 0x3e8
 8000ff6:	b282      	uxth	r2, r0
 8000ff8:	4621      	mov	r1, r4
 8000ffa:	6828      	ldr	r0, [r5, #0]
 8000ffc:	f004 feae 	bl	8005d5c <HAL_UART_Transmit>
}
 8001000:	b00f      	add	sp, #60	@ 0x3c
 8001002:	bd30      	pop	{r4, r5, pc}
 8001004:	0800ab18 	.word	0x0800ab18
 8001008:	200002ec 	.word	0x200002ec

0800100c <ESP_UART_Init>:

void ESP_UART_Init(UART_HandleTypeDef *huart){
    AT_huart = huart;
 800100c:	4b01      	ldr	r3, [pc, #4]	@ (8001014 <ESP_UART_Init+0x8>)
 800100e:	6018      	str	r0, [r3, #0]
}
 8001010:	4770      	bx	lr
 8001012:	bf00      	nop
 8001014:	200002ec 	.word	0x200002ec

08001018 <ESP_SetMode_AP>:
#else
    ESP_SendCommand("AT+RST\r\n");
#endif
}

void ESP_SetMode_AP() {
 8001018:	b508      	push	{r3, lr}
    ESP_SendCommand("AT+CWMODE=2\r\n");
 800101a:	4802      	ldr	r0, [pc, #8]	@ (8001024 <ESP_SetMode_AP+0xc>)
 800101c:	f7ff ffbc 	bl	8000f98 <ESP_SendCommand>
}
 8001020:	bd08      	pop	{r3, pc}
 8001022:	bf00      	nop
 8001024:	0800ab2c 	.word	0x0800ab2c

08001028 <ESP_SetIP>:

void ESP_SetIP(const char *ip) {
 8001028:	b500      	push	{lr}
 800102a:	b08f      	sub	sp, #60	@ 0x3c
 800102c:	4602      	mov	r2, r0
    char cmd[50];
    sprintf(cmd, "AT+CIPAP=\"%s\"\r\n", ip);
 800102e:	4905      	ldr	r1, [pc, #20]	@ (8001044 <ESP_SetIP+0x1c>)
 8001030:	a801      	add	r0, sp, #4
 8001032:	f006 f911 	bl	8007258 <siprintf>
    ESP_SendCommand(cmd);
 8001036:	a801      	add	r0, sp, #4
 8001038:	f7ff ffae 	bl	8000f98 <ESP_SendCommand>
}
 800103c:	b00f      	add	sp, #60	@ 0x3c
 800103e:	f85d fb04 	ldr.w	pc, [sp], #4
 8001042:	bf00      	nop
 8001044:	0800ab3c 	.word	0x0800ab3c

08001048 <ESP_SetMode_AP_STD>:

void ESP_SetMode_AP_STD() {
 8001048:	b508      	push	{r3, lr}
    ESP_SendCommand("AT+CWMODE=3\r\n");
 800104a:	4802      	ldr	r0, [pc, #8]	@ (8001054 <ESP_SetMode_AP_STD+0xc>)
 800104c:	f7ff ffa4 	bl	8000f98 <ESP_SendCommand>
}
 8001050:	bd08      	pop	{r3, pc}
 8001052:	bf00      	nop
 8001054:	0800ab4c 	.word	0x0800ab4c

08001058 <ESP_SetSoftAP>:

void ESP_SetSoftAP(const char *ssid, const char *password) {
 8001058:	b500      	push	{lr}
 800105a:	b09b      	sub	sp, #108	@ 0x6c
 800105c:	4602      	mov	r2, r0
    #ifdef USE_PASSWORD
        // Use password if USE_PASSWORD is defined
        sprintf(cmd, "AT+CWSAP=\"%s\",\"%s\",1,3\r\n", ssid, password);
    #else
        // No password if USE_PASSWORD is not defined
        sprintf(cmd, "AT+CWSAP=\"%s\",\"\",1,0\r\n", ssid);
 800105e:	4905      	ldr	r1, [pc, #20]	@ (8001074 <ESP_SetSoftAP+0x1c>)
 8001060:	a801      	add	r0, sp, #4
 8001062:	f006 f8f9 	bl	8007258 <siprintf>
    #endif

    ESP_SendCommand(cmd);
 8001066:	a801      	add	r0, sp, #4
 8001068:	f7ff ff96 	bl	8000f98 <ESP_SendCommand>
}
 800106c:	b01b      	add	sp, #108	@ 0x6c
 800106e:	f85d fb04 	ldr.w	pc, [sp], #4
 8001072:	bf00      	nop
 8001074:	0800ab5c 	.word	0x0800ab5c

08001078 <ESP_ConnectWiFi>:

void ESP_ConnectWiFi(const char *ssid, const char *password) {
 8001078:	b500      	push	{lr}
 800107a:	b09b      	sub	sp, #108	@ 0x6c
 800107c:	4602      	mov	r2, r0
 800107e:	460b      	mov	r3, r1
    char cmd[100];
    sprintf(cmd, "AT+CWJAP=\"%s\",\"%s\"\r\n", ssid, password);
 8001080:	4904      	ldr	r1, [pc, #16]	@ (8001094 <ESP_ConnectWiFi+0x1c>)
 8001082:	a801      	add	r0, sp, #4
 8001084:	f006 f8e8 	bl	8007258 <siprintf>
    ESP_SendCommand(cmd);
 8001088:	a801      	add	r0, sp, #4
 800108a:	f7ff ff85 	bl	8000f98 <ESP_SendCommand>
}
 800108e:	b01b      	add	sp, #108	@ 0x6c
 8001090:	f85d fb04 	ldr.w	pc, [sp], #4
 8001094:	0800ab74 	.word	0x0800ab74

08001098 <ESP_CheckWiFi>:

WiFiInfoTypeDef ESP_CheckWiFi(void) {
 8001098:	b570      	push	{r4, r5, r6, lr}
 800109a:	b0a8      	sub	sp, #160	@ 0xa0
 800109c:	4605      	mov	r5, r0
    WiFiInfoTypeDef info = {0};
 800109e:	2232      	movs	r2, #50	@ 0x32
 80010a0:	2100      	movs	r1, #0
 80010a2:	a81a      	add	r0, sp, #104	@ 0x68
 80010a4:	f006 f93b 	bl	800731e <memset>
    char response[100] = {0};
 80010a8:	2400      	movs	r4, #0
 80010aa:	9401      	str	r4, [sp, #4]
 80010ac:	2260      	movs	r2, #96	@ 0x60
 80010ae:	4621      	mov	r1, r4
 80010b0:	a802      	add	r0, sp, #8
 80010b2:	f006 f934 	bl	800731e <memset>
    char *token;
    huart3.RxXferCount = 0;
 80010b6:	4b2b      	ldr	r3, [pc, #172]	@ (8001164 <ESP_CheckWiFi+0xcc>)
 80010b8:	85dc      	strh	r4, [r3, #46]	@ 0x2e
    ESP_SendCommand("AT+CWJAP?\r\n");
 80010ba:	482b      	ldr	r0, [pc, #172]	@ (8001168 <ESP_CheckWiFi+0xd0>)
 80010bc:	f7ff ff6c 	bl	8000f98 <ESP_SendCommand>
    HAL_UART_Receive(AT_huart, (uint8_t *)response, sizeof(response), 1000);
 80010c0:	f44f 737a 	mov.w	r3, #1000	@ 0x3e8
 80010c4:	2264      	movs	r2, #100	@ 0x64
 80010c6:	a901      	add	r1, sp, #4
 80010c8:	4828      	ldr	r0, [pc, #160]	@ (800116c <ESP_CheckWiFi+0xd4>)
 80010ca:	6800      	ldr	r0, [r0, #0]
 80010cc:	f004 feab 	bl	8005e26 <HAL_UART_Receive>
    // Parse the response and populate the WiFiInfo struct

    // I don know why it can't be     token = strtok(response, "+CWJAP:,\"");
    // sscanf scanf ALSO can't used  so strange

    token = strtok(response, ":,\"");
 80010d0:	4927      	ldr	r1, [pc, #156]	@ (8001170 <ESP_CheckWiFi+0xd8>)
 80010d2:	a801      	add	r0, sp, #4
 80010d4:	f006 f950 	bl	8007378 <strtok>

    token = strtok(NULL, "\",\""); // Get SSID
 80010d8:	4926      	ldr	r1, [pc, #152]	@ (8001174 <ESP_CheckWiFi+0xdc>)
 80010da:	4620      	mov	r0, r4
 80010dc:	f006 f94c 	bl	8007378 <strtok>
 80010e0:	4601      	mov	r1, r0
    strcpy(info.ssid, token);
 80010e2:	a81a      	add	r0, sp, #104	@ 0x68
 80010e4:	f006 fa31 	bl	800754a <strcpy>

    token = strtok(NULL, "\","); // Get MAC address
 80010e8:	4923      	ldr	r1, [pc, #140]	@ (8001178 <ESP_CheckWiFi+0xe0>)
 80010ea:	4620      	mov	r0, r4
 80010ec:	f006 f944 	bl	8007378 <strtok>
 80010f0:	4601      	mov	r1, r0
    strcpy(info.bssid, token);
 80010f2:	a822      	add	r0, sp, #136	@ 0x88
 80010f4:	f006 fa29 	bl	800754a <strcpy>

    token = strtok(NULL, ","); // Get security mode
 80010f8:	4e20      	ldr	r6, [pc, #128]	@ (800117c <ESP_CheckWiFi+0xe4>)
 80010fa:	4631      	mov	r1, r6
 80010fc:	4620      	mov	r0, r4
 80010fe:	f006 f93b 	bl	8007378 <strtok>
    info.channel = atoi(token);
 8001102:	f005 f8f1 	bl	80062e8 <atoi>
 8001106:	f88d 009a 	strb.w	r0, [sp, #154]	@ 0x9a

    token = strtok(NULL, ","); // Get RSSI
 800110a:	4631      	mov	r1, r6
 800110c:	4620      	mov	r0, r4
 800110e:	f006 f933 	bl	8007378 <strtok>
    info.rssi = atoi(token);
 8001112:	f005 f8e9 	bl	80062e8 <atoi>
 8001116:	f88d 009b 	strb.w	r0, [sp, #155]	@ 0x9b

    token = strtok(NULL, "\r\n"); // Get connected status
 800111a:	4919      	ldr	r1, [pc, #100]	@ (8001180 <ESP_CheckWiFi+0xe8>)
 800111c:	4620      	mov	r0, r4
 800111e:	f006 f92b 	bl	8007378 <strtok>
    info.encryption = atoi(token);
 8001122:	f005 f8e1 	bl	80062e8 <atoi>
 8001126:	f88d 009c 	strb.w	r0, [sp, #156]	@ 0x9c

    return info;
 800112a:	f10d 0c68 	add.w	ip, sp, #104	@ 0x68
 800112e:	46ae      	mov	lr, r5
 8001130:	ae26      	add	r6, sp, #152	@ 0x98
 8001132:	4664      	mov	r4, ip
 8001134:	cc0f      	ldmia	r4!, {r0, r1, r2, r3}
 8001136:	f8ce 0000 	str.w	r0, [lr]
 800113a:	f8ce 1004 	str.w	r1, [lr, #4]
 800113e:	f8ce 2008 	str.w	r2, [lr, #8]
 8001142:	f8ce 300c 	str.w	r3, [lr, #12]
 8001146:	46a4      	mov	ip, r4
 8001148:	f10e 0e10 	add.w	lr, lr, #16
 800114c:	42b4      	cmp	r4, r6
 800114e:	d1f0      	bne.n	8001132 <ESP_CheckWiFi+0x9a>
 8001150:	6820      	ldr	r0, [r4, #0]
 8001152:	f8ce 0000 	str.w	r0, [lr]
 8001156:	7923      	ldrb	r3, [r4, #4]
 8001158:	f88e 3004 	strb.w	r3, [lr, #4]
}
 800115c:	4628      	mov	r0, r5
 800115e:	b028      	add	sp, #160	@ 0xa0
 8001160:	bd70      	pop	{r4, r5, r6, pc}
 8001162:	bf00      	nop
 8001164:	20000424 	.word	0x20000424
 8001168:	0800ab8c 	.word	0x0800ab8c
 800116c:	200002ec 	.word	0x200002ec
 8001170:	0800ab98 	.word	0x0800ab98
 8001174:	0800ab9c 	.word	0x0800ab9c
 8001178:	0800aba0 	.word	0x0800aba0
 800117c:	0800aba4 	.word	0x0800aba4
 8001180:	0800ab70 	.word	0x0800ab70

08001184 <ESP_GetIPInfo>:

IPInfoTypeDef ESP_GetIPInfo(void) {
 8001184:	b530      	push	{r4, r5, lr}
 8001186:	b0c5      	sub	sp, #276	@ 0x114
 8001188:	4604      	mov	r4, r0
    IPInfoTypeDef ipInfo = {0};
 800118a:	2244      	movs	r2, #68	@ 0x44
 800118c:	2100      	movs	r1, #0
 800118e:	a833      	add	r0, sp, #204	@ 0xcc
 8001190:	f006 f8c5 	bl	800731e <memset>
    char response[200] = {0};
 8001194:	2100      	movs	r1, #0
 8001196:	9101      	str	r1, [sp, #4]
 8001198:	22c4      	movs	r2, #196	@ 0xc4
 800119a:	a802      	add	r0, sp, #8
 800119c:	f006 f8bf 	bl	800731e <memset>
    char *token;

    ESP_SendCommand("AT+CIFSR\r\n");
 80011a0:	482a      	ldr	r0, [pc, #168]	@ (800124c <ESP_GetIPInfo+0xc8>)
 80011a2:	f7ff fef9 	bl	8000f98 <ESP_SendCommand>
    HAL_UART_Receive(AT_huart, (uint8_t *)response, sizeof(response), 1000);
 80011a6:	f44f 737a 	mov.w	r3, #1000	@ 0x3e8
 80011aa:	22c8      	movs	r2, #200	@ 0xc8
 80011ac:	a901      	add	r1, sp, #4
 80011ae:	4828      	ldr	r0, [pc, #160]	@ (8001250 <ESP_GetIPInfo+0xcc>)
 80011b0:	6800      	ldr	r0, [r0, #0]
 80011b2:	f004 fe38 	bl	8005e26 <HAL_UART_Receive>

    // Parse AP IP
    token = strstr(response, "+CIFSR:APIP,\"");
 80011b6:	4927      	ldr	r1, [pc, #156]	@ (8001254 <ESP_GetIPInfo+0xd0>)
 80011b8:	a801      	add	r0, sp, #4
 80011ba:	f006 f939 	bl	8007430 <strstr>
    if (token) {
 80011be:	b150      	cbz	r0, 80011d6 <ESP_GetIPInfo+0x52>
 80011c0:	4605      	mov	r5, r0
        token += strlen("+CIFSR:APIP,\"");
 80011c2:	350d      	adds	r5, #13
        strncpy(ipInfo.AP_IP, token, strcspn(token, "\""));
 80011c4:	4924      	ldr	r1, [pc, #144]	@ (8001258 <ESP_GetIPInfo+0xd4>)
 80011c6:	4628      	mov	r0, r5
 80011c8:	f006 f8b1 	bl	800732e <strcspn>
 80011cc:	4602      	mov	r2, r0
 80011ce:	4629      	mov	r1, r5
 80011d0:	a833      	add	r0, sp, #204	@ 0xcc
 80011d2:	f006 f8bd 	bl	8007350 <strncpy>
    }

    // Parse AP MAC
    token = strstr(response, "+CIFSR:APMAC,\"");
 80011d6:	4921      	ldr	r1, [pc, #132]	@ (800125c <ESP_GetIPInfo+0xd8>)
 80011d8:	a801      	add	r0, sp, #4
 80011da:	f006 f929 	bl	8007430 <strstr>
    if (token) {
 80011de:	4605      	mov	r5, r0
 80011e0:	b148      	cbz	r0, 80011f6 <ESP_GetIPInfo+0x72>
        token += strlen("+CIFSR:APMAC,\"");
 80011e2:	350e      	adds	r5, #14
        strncpy(ipInfo.AP_MAC, token, strcspn(token, "\""));
 80011e4:	491c      	ldr	r1, [pc, #112]	@ (8001258 <ESP_GetIPInfo+0xd4>)
 80011e6:	4628      	mov	r0, r5
 80011e8:	f006 f8a1 	bl	800732e <strcspn>
 80011ec:	4602      	mov	r2, r0
 80011ee:	4629      	mov	r1, r5
 80011f0:	a837      	add	r0, sp, #220	@ 0xdc
 80011f2:	f006 f8ad 	bl	8007350 <strncpy>
    }

    // Parse STA IP
    token = strstr(response, "+CIFSR:STAIP,\"");
 80011f6:	491a      	ldr	r1, [pc, #104]	@ (8001260 <ESP_GetIPInfo+0xdc>)
 80011f8:	a801      	add	r0, sp, #4
 80011fa:	f006 f919 	bl	8007430 <strstr>
    if (token) {
 80011fe:	4605      	mov	r5, r0
 8001200:	b150      	cbz	r0, 8001218 <ESP_GetIPInfo+0x94>
        token += strlen("+CIFSR:STAIP,\"");
 8001202:	350e      	adds	r5, #14
        strncpy(ipInfo.STA_IP, token, strcspn(token, "\""));
 8001204:	4914      	ldr	r1, [pc, #80]	@ (8001258 <ESP_GetIPInfo+0xd4>)
 8001206:	4628      	mov	r0, r5
 8001208:	f006 f891 	bl	800732e <strcspn>
 800120c:	4602      	mov	r2, r0
 800120e:	4629      	mov	r1, r5
 8001210:	f10d 00ee 	add.w	r0, sp, #238	@ 0xee
 8001214:	f006 f89c 	bl	8007350 <strncpy>
    }

    // Parse STA MAC
    token = strstr(response, "+CIFSR:STAMAC,\"");
 8001218:	4912      	ldr	r1, [pc, #72]	@ (8001264 <ESP_GetIPInfo+0xe0>)
 800121a:	a801      	add	r0, sp, #4
 800121c:	f006 f908 	bl	8007430 <strstr>
    if (token) {
 8001220:	4605      	mov	r5, r0
 8001222:	b150      	cbz	r0, 800123a <ESP_GetIPInfo+0xb6>
        token += strlen("+CIFSR:STAMAC,\"");
 8001224:	350f      	adds	r5, #15
        strncpy(ipInfo.STA_MAC, token, strcspn(token, "\""));
 8001226:	490c      	ldr	r1, [pc, #48]	@ (8001258 <ESP_GetIPInfo+0xd4>)
 8001228:	4628      	mov	r0, r5
 800122a:	f006 f880 	bl	800732e <strcspn>
 800122e:	4602      	mov	r2, r0
 8001230:	4629      	mov	r1, r5
 8001232:	f10d 00fe 	add.w	r0, sp, #254	@ 0xfe
 8001236:	f006 f88b 	bl	8007350 <strncpy>
    }
    return ipInfo;
 800123a:	2244      	movs	r2, #68	@ 0x44
 800123c:	a933      	add	r1, sp, #204	@ 0xcc
 800123e:	4620      	mov	r0, r4
 8001240:	f006 f999 	bl	8007576 <memcpy>
}
 8001244:	4620      	mov	r0, r4
 8001246:	b045      	add	sp, #276	@ 0x114
 8001248:	bd30      	pop	{r4, r5, pc}
 800124a:	bf00      	nop
 800124c:	0800aba8 	.word	0x0800aba8
 8001250:	200002ec 	.word	0x200002ec
 8001254:	0800abb4 	.word	0x0800abb4
 8001258:	0800abc0 	.word	0x0800abc0
 800125c:	0800abc4 	.word	0x0800abc4
 8001260:	0800abd4 	.word	0x0800abd4
 8001264:	0800abe4 	.word	0x0800abe4

08001268 <ESP_EnableMUX>:

void ESP_EnableMUX() {
 8001268:	b508      	push	{r3, lr}
    ESP_SendCommand("AT+CIPMUX=1\r\n");
 800126a:	4802      	ldr	r0, [pc, #8]	@ (8001274 <ESP_EnableMUX+0xc>)
 800126c:	f7ff fe94 	bl	8000f98 <ESP_SendCommand>
}
 8001270:	bd08      	pop	{r3, pc}
 8001272:	bf00      	nop
 8001274:	0800abf4 	.word	0x0800abf4

08001278 <ESP_StartServer>:

void ESP_StartServer(uint16_t port) {
 8001278:	b500      	push	{lr}
 800127a:	b08f      	sub	sp, #60	@ 0x3c
 800127c:	4602      	mov	r2, r0
    char cmd[50];
    sprintf(cmd, "AT+CIPSERVER=1,%d\r\n", port);
 800127e:	4905      	ldr	r1, [pc, #20]	@ (8001294 <ESP_StartServer+0x1c>)
 8001280:	a801      	add	r0, sp, #4
 8001282:	f005 ffe9 	bl	8007258 <siprintf>
    ESP_SendCommand(cmd);
 8001286:	a801      	add	r0, sp, #4
 8001288:	f7ff fe86 	bl	8000f98 <ESP_SendCommand>
}
 800128c:	b00f      	add	sp, #60	@ 0x3c
 800128e:	f85d fb04 	ldr.w	pc, [sp], #4
 8001292:	bf00      	nop
 8001294:	0800ac04 	.word	0x0800ac04

08001298 <ESP_StopServer>:

void ESP_StopServer() {
 8001298:	b508      	push	{r3, lr}
    ESP_SendCommand("AT+CIPSERVER=0\r\n");
 800129a:	4802      	ldr	r0, [pc, #8]	@ (80012a4 <ESP_StopServer+0xc>)
 800129c:	f7ff fe7c 	bl	8000f98 <ESP_SendCommand>
}
 80012a0:	bd08      	pop	{r3, pc}
 80012a2:	bf00      	nop
 80012a4:	0800ac18 	.word	0x0800ac18

080012a8 <ESP_RestoreDefaults>:

void ESP_ListAPs() {
    ESP_SendCommand("AT+CWLAP\r\n");
}

void ESP_RestoreDefaults() {
 80012a8:	b508      	push	{r3, lr}
    ESP_SendCommand("AT+RESTORE\r\n");
 80012aa:	4802      	ldr	r0, [pc, #8]	@ (80012b4 <ESP_RestoreDefaults+0xc>)
 80012ac:	f7ff fe74 	bl	8000f98 <ESP_SendCommand>
}
 80012b0:	bd08      	pop	{r3, pc}
 80012b2:	bf00      	nop
 80012b4:	0800ac2c 	.word	0x0800ac2c

080012b8 <ESP_RESET_SERVER>:


void ESP_RESET_SERVER() {
 80012b8:	b508      	push	{r3, lr}
	ESP_StopServer();
 80012ba:	f7ff ffed 	bl	8001298 <ESP_StopServer>
    HAL_Delay(1000);
 80012be:	f44f 707a 	mov.w	r0, #1000	@ 0x3e8
 80012c2:	f002 fa13 	bl	80036ec <HAL_Delay>
    ESP_StartServer(9999);
 80012c6:	f242 700f 	movw	r0, #9999	@ 0x270f
 80012ca:	f7ff ffd5 	bl	8001278 <ESP_StartServer>
    HAL_Delay(1000);
 80012ce:	f44f 707a 	mov.w	r0, #1000	@ 0x3e8
 80012d2:	f002 fa0b 	bl	80036ec <HAL_Delay>
}
 80012d6:	bd08      	pop	{r3, pc}

080012d8 <ESP_Reset_GPIO>:

#ifdef ENABLE_GPIO_RESET_CONTROL
static GPIO_TypeDef *ESP_Reset_GPIO_Port = ESP_RESET_GPIO_Port;
static uint16_t ESP_Reset_Pin = ESP_RESET_Pin;

void ESP_Reset_GPIO() {
 80012d8:	b510      	push	{r4, lr}
    // Set the reset pin low to reset the ESP module
    HAL_GPIO_WritePin(ESP_Reset_GPIO_Port, ESP_Reset_Pin, GPIO_PIN_RESET);
 80012da:	4c09      	ldr	r4, [pc, #36]	@ (8001300 <ESP_Reset_GPIO+0x28>)
 80012dc:	2200      	movs	r2, #0
 80012de:	2102      	movs	r1, #2
 80012e0:	4620      	mov	r0, r4
 80012e2:	f003 f8c7 	bl	8004474 <HAL_GPIO_WritePin>
    HAL_Delay(100); // Hold low for 1000 ms
 80012e6:	2064      	movs	r0, #100	@ 0x64
 80012e8:	f002 fa00 	bl	80036ec <HAL_Delay>
    // Set the reset pin high to bring the ESP module out of reset
    HAL_GPIO_WritePin(ESP_Reset_GPIO_Port, ESP_Reset_Pin, GPIO_PIN_SET);
 80012ec:	2201      	movs	r2, #1
 80012ee:	2102      	movs	r1, #2
 80012f0:	4620      	mov	r0, r4
 80012f2:	f003 f8bf 	bl	8004474 <HAL_GPIO_WritePin>
    HAL_Delay(1000); // Wait for the ESP module to initialize
 80012f6:	f44f 707a 	mov.w	r0, #1000	@ 0x3e8
 80012fa:	f002 f9f7 	bl	80036ec <HAL_Delay>
}
 80012fe:	bd10      	pop	{r4, pc}
 8001300:	40010c00 	.word	0x40010c00

08001304 <ESP_INIT_FULL>:
void ESP_INIT_FULL() {
 8001304:	b510      	push	{r4, lr}
    ESP_RestoreDefaults();
 8001306:	f7ff ffcf 	bl	80012a8 <ESP_RestoreDefaults>
    HAL_Delay(2000);
 800130a:	f44f 60fa 	mov.w	r0, #2000	@ 0x7d0
 800130e:	f002 f9ed 	bl	80036ec <HAL_Delay>
	ESP_Reset_GPIO();
 8001312:	f7ff ffe1 	bl	80012d8 <ESP_Reset_GPIO>
    HAL_Delay(2000);
 8001316:	f44f 60fa 	mov.w	r0, #2000	@ 0x7d0
 800131a:	f002 f9e7 	bl	80036ec <HAL_Delay>
    ESP_SetMode_AP();
 800131e:	f7ff fe7b 	bl	8001018 <ESP_SetMode_AP>
    HAL_Delay(1000);
 8001322:	f44f 707a 	mov.w	r0, #1000	@ 0x3e8
 8001326:	f002 f9e1 	bl	80036ec <HAL_Delay>
    ESP_SetIP(esp_config.ap_ip);
 800132a:	4c18      	ldr	r4, [pc, #96]	@ (800138c <ESP_INIT_FULL+0x88>)
 800132c:	4620      	mov	r0, r4
 800132e:	f7ff fe7b 	bl	8001028 <ESP_SetIP>
    HAL_Delay(1000);
 8001332:	f44f 707a 	mov.w	r0, #1000	@ 0x3e8
 8001336:	f002 f9d9 	bl	80036ec <HAL_Delay>
    ESP_SetMode_AP_STD();
 800133a:	f7ff fe85 	bl	8001048 <ESP_SetMode_AP_STD>
    HAL_Delay(1000);
 800133e:	f44f 707a 	mov.w	r0, #1000	@ 0x3e8
 8001342:	f002 f9d3 	bl	80036ec <HAL_Delay>
    ESP_SetSoftAP(esp_config.ap_ssid, esp_config.ap_pswd);
 8001346:	f1a4 0120 	sub.w	r1, r4, #32
 800134a:	f1a4 0040 	sub.w	r0, r4, #64	@ 0x40
 800134e:	f7ff fe83 	bl	8001058 <ESP_SetSoftAP>
    HAL_Delay(2000);
 8001352:	f44f 60fa 	mov.w	r0, #2000	@ 0x7d0
 8001356:	f002 f9c9 	bl	80036ec <HAL_Delay>
    HAL_Delay(2000);
 800135a:	f44f 60fa 	mov.w	r0, #2000	@ 0x7d0
 800135e:	f002 f9c5 	bl	80036ec <HAL_Delay>
    ESP_ConnectWiFi(esp_config.wifi_ssid, esp_config.wifi_pswd);
 8001362:	f1a4 0160 	sub.w	r1, r4, #96	@ 0x60
 8001366:	f1a4 0080 	sub.w	r0, r4, #128	@ 0x80
 800136a:	f7ff fe85 	bl	8001078 <ESP_ConnectWiFi>
    HAL_Delay(20000);
 800136e:	f644 6020 	movw	r0, #20000	@ 0x4e20
 8001372:	f002 f9bb 	bl	80036ec <HAL_Delay>
    ESP_EnableMUX();
 8001376:	f7ff ff77 	bl	8001268 <ESP_EnableMUX>
    HAL_Delay(1000);
 800137a:	f44f 707a 	mov.w	r0, #1000	@ 0x3e8
 800137e:	f002 f9b5 	bl	80036ec <HAL_Delay>
    ESP_StartServer(esp_config.server_port);
 8001382:	f834 0c82 	ldrh.w	r0, [r4, #-130]
 8001386:	f7ff ff77 	bl	8001278 <ESP_StartServer>
}
 800138a:	bd10      	pop	{r4, pc}
 800138c:	20000082 	.word	0x20000082

08001390 <ESP_INIT_BASE>:
void ESP_INIT_BASE() {
 8001390:	b508      	push	{r3, lr}
	ESP_Reset_GPIO();
 8001392:	f7ff ffa1 	bl	80012d8 <ESP_Reset_GPIO>
    HAL_Delay(1000);
 8001396:	f44f 707a 	mov.w	r0, #1000	@ 0x3e8
 800139a:	f002 f9a7 	bl	80036ec <HAL_Delay>
    ESP_EnableMUX();
 800139e:	f7ff ff63 	bl	8001268 <ESP_EnableMUX>
    HAL_Delay(1000);
 80013a2:	f44f 707a 	mov.w	r0, #1000	@ 0x3e8
 80013a6:	f002 f9a1 	bl	80036ec <HAL_Delay>
    ESP_StartServer(9999);
 80013aa:	f242 700f 	movw	r0, #9999	@ 0x270f
 80013ae:	f7ff ff63 	bl	8001278 <ESP_StartServer>
    HAL_Delay(1000);
 80013b2:	f44f 707a 	mov.w	r0, #1000	@ 0x3e8
 80013b6:	f002 f999 	bl	80036ec <HAL_Delay>
}
 80013ba:	bd08      	pop	{r3, pc}

080013bc <DHT_getData>:
  GPIO_InitStruct.Mode = GPIO_MODE_INPUT;
  GPIO_InitStruct.Pull = sensor->pullUp;		//  
  HAL_GPIO_Init(sensor->DHT_Port, &GPIO_InitStruct);
}

DHT_data DHT_getData(DHT_sensor *sensor) {
 80013bc:	e92d 4ff0 	stmdb	sp!, {r4, r5, r6, r7, r8, r9, sl, fp, lr}
 80013c0:	b089      	sub	sp, #36	@ 0x24
 80013c2:	9001      	str	r0, [sp, #4]
 80013c4:	460c      	mov	r4, r1
	
	#if DHT_POLLING_CONTROL == 1
	/*      */
	//      
	uint16_t pollingInterval;
	if (sensor->type == DHT11) {
 80013c6:	798b      	ldrb	r3, [r1, #6]
		pollingInterval = DHT_POLLING_INTERVAL_DHT11;
 80013c8:	2b00      	cmp	r3, #0
 80013ca:	bf14      	ite	ne
 80013cc:	f44f 757a 	movne.w	r5, #1000	@ 0x3e8
 80013d0:	f44f 65fa 	moveq.w	r5, #2000	@ 0x7d0
	} else {
		pollingInterval = DHT_POLLING_INTERVAL_DHT22;
	}

	//  ,     
	if ((HAL_GetTick() - sensor->lastPollingTime < pollingInterval) && sensor->lastPollingTime != 0) {
 80013d4:	f002 f984 	bl	80036e0 <HAL_GetTick>
 80013d8:	68a2      	ldr	r2, [r4, #8]
 80013da:	1a83      	subs	r3, r0, r2
 80013dc:	42ab      	cmp	r3, r5
 80013de:	d201      	bcs.n	80013e4 <DHT_getData+0x28>
 80013e0:	2a00      	cmp	r2, #0
 80013e2:	d144      	bne.n	800146e <DHT_getData+0xb2>
		data.hum = sensor->lastHum;
		data.temp = sensor->lastTemp;
		return data;
	}
	sensor->lastPollingTime = HAL_GetTick()+1;
 80013e4:	f002 f97c 	bl	80036e0 <HAL_GetTick>
 80013e8:	3001      	adds	r0, #1
 80013ea:	60a0      	str	r0, [r4, #8]
	GPIO_InitTypeDef GPIO_InitStruct = {0};
 80013ec:	2500      	movs	r5, #0
 80013ee:	9502      	str	r5, [sp, #8]
 80013f0:	9503      	str	r5, [sp, #12]
 80013f2:	9504      	str	r5, [sp, #16]
 80013f4:	9505      	str	r5, [sp, #20]
  lineUp();
 80013f6:	2201      	movs	r2, #1
 80013f8:	88a1      	ldrh	r1, [r4, #4]
 80013fa:	6820      	ldr	r0, [r4, #0]
 80013fc:	f003 f83a 	bl	8004474 <HAL_GPIO_WritePin>
  GPIO_InitStruct.Pin = sensor->DHT_Pin;
 8001400:	88a3      	ldrh	r3, [r4, #4]
 8001402:	9302      	str	r3, [sp, #8]
  GPIO_InitStruct.Mode = GPIO_MODE_OUTPUT_OD; 	// 
 8001404:	2311      	movs	r3, #17
 8001406:	9303      	str	r3, [sp, #12]
  GPIO_InitStruct.Pull = sensor->pullUp;		//  
 8001408:	79e3      	ldrb	r3, [r4, #7]
 800140a:	9304      	str	r3, [sp, #16]
  GPIO_InitStruct.Speed = GPIO_SPEED_FREQ_HIGH; //   
 800140c:	2303      	movs	r3, #3
 800140e:	9305      	str	r3, [sp, #20]
  HAL_GPIO_Init(sensor->DHT_Port, &GPIO_InitStruct);
 8001410:	a902      	add	r1, sp, #8
 8001412:	6820      	ldr	r0, [r4, #0]
 8001414:	f002 fee8 	bl	80041e8 <HAL_GPIO_Init>

	/*     */
	//  " "
	goToOutput(sensor);
	//    18 
	lineDown();
 8001418:	462a      	mov	r2, r5
 800141a:	88a1      	ldrh	r1, [r4, #4]
 800141c:	6820      	ldr	r0, [r4, #0]
 800141e:	f003 f829 	bl	8004474 <HAL_GPIO_WritePin>
	Delay(18);
 8001422:	2012      	movs	r0, #18
 8001424:	f002 f962 	bl	80036ec <HAL_Delay>
	// ,   " "
	lineUp();
 8001428:	2201      	movs	r2, #1
 800142a:	88a1      	ldrh	r1, [r4, #4]
 800142c:	6820      	ldr	r0, [r4, #0]
 800142e:	f003 f821 	bl	8004474 <HAL_GPIO_WritePin>
  GPIO_InitTypeDef GPIO_InitStruct = {0};
 8001432:	9503      	str	r5, [sp, #12]
 8001434:	9505      	str	r5, [sp, #20]
  GPIO_InitStruct.Pin = sensor->DHT_Pin;
 8001436:	88a3      	ldrh	r3, [r4, #4]
 8001438:	9302      	str	r3, [sp, #8]
  GPIO_InitStruct.Pull = sensor->pullUp;		//  
 800143a:	79e3      	ldrb	r3, [r4, #7]
 800143c:	9304      	str	r3, [sp, #16]
  HAL_GPIO_Init(sensor->DHT_Port, &GPIO_InitStruct);
 800143e:	a902      	add	r1, sp, #8
 8001440:	6820      	ldr	r0, [r4, #0]
 8001442:	f002 fed1 	bl	80041e8 <HAL_GPIO_Init>
  \details Disables IRQ interrupts by setting the I-bit in the CPSR.
           Can only be executed in Privileged modes.
 */
__STATIC_FORCEINLINE void __disable_irq(void)
{
  __ASM volatile ("cpsid i" : : : "memory");
 8001446:	b672      	cpsid	i
	__disable_irq();
	#endif
	/*     */
	uint16_t timeout = 0;
	// 
	while(getLine()) {
 8001448:	f242 7511 	movw	r5, #10001	@ 0x2711
 800144c:	88a1      	ldrh	r1, [r4, #4]
 800144e:	6820      	ldr	r0, [r4, #0]
 8001450:	f003 f80a 	bl	8004468 <HAL_GPIO_ReadPin>
 8001454:	2801      	cmp	r0, #1
 8001456:	d10d      	bne.n	8001474 <DHT_getData+0xb8>
		timeout++;
		if (timeout > DHT_TIMEOUT) {
 8001458:	3d01      	subs	r5, #1
 800145a:	b2ad      	uxth	r5, r5
 800145c:	2d00      	cmp	r5, #0
 800145e:	d1f5      	bne.n	800144c <DHT_getData+0x90>
  __ASM volatile ("cpsie i" : : : "memory");
 8001460:	b662      	cpsie	i
			__enable_irq();
			#endif
			//   ,    
			//   , 
			//   
			sensor->lastHum = -128.0f;
 8001462:	f04f 4343 	mov.w	r3, #3271557120	@ 0xc3000000
 8001466:	6123      	str	r3, [r4, #16]
			sensor->lastTemp = -128.0f;
 8001468:	60e3      	str	r3, [r4, #12]

			return data;
 800146a:	461d      	mov	r5, r3
 800146c:	e07c      	b.n	8001568 <DHT_getData+0x1ac>
		data.hum = sensor->lastHum;
 800146e:	6925      	ldr	r5, [r4, #16]
		data.temp = sensor->lastTemp;
 8001470:	68e3      	ldr	r3, [r4, #12]
		return data;
 8001472:	e079      	b.n	8001568 <DHT_getData+0x1ac>
 8001474:	f242 7511 	movw	r5, #10001	@ 0x2711
		}
	}
	timeout = 0;
	// 
	while(!getLine()) {
 8001478:	88a1      	ldrh	r1, [r4, #4]
 800147a:	6820      	ldr	r0, [r4, #0]
 800147c:	f002 fff4 	bl	8004468 <HAL_GPIO_ReadPin>
 8001480:	2801      	cmp	r0, #1
 8001482:	d00a      	beq.n	800149a <DHT_getData+0xde>
		timeout++;
		if (timeout > DHT_TIMEOUT) {
 8001484:	3d01      	subs	r5, #1
 8001486:	b2ad      	uxth	r5, r5
 8001488:	2d00      	cmp	r5, #0
 800148a:	d1f5      	bne.n	8001478 <DHT_getData+0xbc>
 800148c:	b662      	cpsie	i
			__enable_irq();
			#endif
			//   ,    
			//   , 
			//   
			sensor->lastHum = -128.0f;
 800148e:	f04f 4343 	mov.w	r3, #3271557120	@ 0xc3000000
 8001492:	6123      	str	r3, [r4, #16]
			sensor->lastTemp = -128.0f;
 8001494:	60e3      	str	r3, [r4, #12]

			return data;
 8001496:	461d      	mov	r5, r3
 8001498:	e066      	b.n	8001568 <DHT_getData+0x1ac>
 800149a:	f242 7511 	movw	r5, #10001	@ 0x2711
		}
	}
	timeout = 0;
	// 
	while(getLine()) {
 800149e:	88a1      	ldrh	r1, [r4, #4]
 80014a0:	6820      	ldr	r0, [r4, #0]
 80014a2:	f002 ffe1 	bl	8004468 <HAL_GPIO_ReadPin>
 80014a6:	2801      	cmp	r0, #1
 80014a8:	d108      	bne.n	80014bc <DHT_getData+0x100>
		timeout++;
		if (timeout > DHT_TIMEOUT) {
 80014aa:	3d01      	subs	r5, #1
 80014ac:	b2ad      	uxth	r5, r5
 80014ae:	2d00      	cmp	r5, #0
 80014b0:	d1f5      	bne.n	800149e <DHT_getData+0xe2>
 80014b2:	b662      	cpsie	i
			#ifdef DHT_IRQ_CONTROL
			__enable_irq();
			#endif
			return data;
 80014b4:	f04f 4543 	mov.w	r5, #3271557120	@ 0xc3000000
 80014b8:	462b      	mov	r3, r5
 80014ba:	e055      	b.n	8001568 <DHT_getData+0x1ac>
		}
	}
	
	/*     */
	uint8_t rawData[5] = {0,0,0,0,0};
 80014bc:	4b45      	ldr	r3, [pc, #276]	@ (80015d4 <DHT_getData+0x218>)
 80014be:	e893 0003 	ldmia.w	r3, {r0, r1}
 80014c2:	9006      	str	r0, [sp, #24]
 80014c4:	f88d 101c 	strb.w	r1, [sp, #28]
 80014c8:	f04f 0900 	mov.w	r9, #0
 80014cc:	46c8      	mov	r8, r9
			while(!getLine() && lT != 65535) lT++;
			//    ,   hT
			timeout = 0;
			while(getLine()&& hT != 65535) hT++;
			// hT  lT,   
			if(hT > lT) rawData[a] |= (1<<b);
 80014ce:	f10d 0a18 	add.w	sl, sp, #24
 80014d2:	e02f      	b.n	8001534 <DHT_getData+0x178>
 80014d4:	461d      	mov	r5, r3
			while(!getLine() && lT != 65535) lT++;
 80014d6:	88a1      	ldrh	r1, [r4, #4]
 80014d8:	6820      	ldr	r0, [r4, #0]
 80014da:	f002 ffc5 	bl	8004468 <HAL_GPIO_ReadPin>
 80014de:	2801      	cmp	r0, #1
 80014e0:	d005      	beq.n	80014ee <DHT_getData+0x132>
 80014e2:	1c6b      	adds	r3, r5, #1
 80014e4:	f5b3 3f80 	cmp.w	r3, #65536	@ 0x10000
 80014e8:	d1f4      	bne.n	80014d4 <DHT_getData+0x118>
 80014ea:	4646      	mov	r6, r8
 80014ec:	e002      	b.n	80014f4 <DHT_getData+0x138>
 80014ee:	4646      	mov	r6, r8
 80014f0:	e000      	b.n	80014f4 <DHT_getData+0x138>
 80014f2:	461e      	mov	r6, r3
			while(getLine()&& hT != 65535) hT++;
 80014f4:	88a1      	ldrh	r1, [r4, #4]
 80014f6:	6820      	ldr	r0, [r4, #0]
 80014f8:	f002 ffb6 	bl	8004468 <HAL_GPIO_ReadPin>
 80014fc:	2801      	cmp	r0, #1
 80014fe:	d103      	bne.n	8001508 <DHT_getData+0x14c>
 8001500:	1c73      	adds	r3, r6, #1
 8001502:	f5b3 3f80 	cmp.w	r3, #65536	@ 0x10000
 8001506:	d1f4      	bne.n	80014f2 <DHT_getData+0x136>
			if(hT > lT) rawData[a] |= (1<<b);
 8001508:	b2b6      	uxth	r6, r6
 800150a:	b2ad      	uxth	r5, r5
 800150c:	42ae      	cmp	r6, r5
 800150e:	d906      	bls.n	800151e <DHT_getData+0x162>
 8001510:	fa0b f207 	lsl.w	r2, fp, r7
 8001514:	f819 300a 	ldrb.w	r3, [r9, sl]
 8001518:	4313      	orrs	r3, r2
 800151a:	f809 300a 	strb.w	r3, [r9, sl]
		for(uint8_t b = 7; b != 255; b--) {
 800151e:	3f01      	subs	r7, #1
 8001520:	f1b7 3fff 	cmp.w	r7, #4294967295
 8001524:	d001      	beq.n	800152a <DHT_getData+0x16e>
 8001526:	4645      	mov	r5, r8
 8001528:	e7d5      	b.n	80014d6 <DHT_getData+0x11a>
	for(uint8_t a = 0; a < 5; a++) {
 800152a:	f109 0901 	add.w	r9, r9, #1
 800152e:	f1b9 0f05 	cmp.w	r9, #5
 8001532:	d003      	beq.n	800153c <DHT_getData+0x180>
		for(uint8_t b = 7; b != 255; b--) {
 8001534:	2707      	movs	r7, #7
			if(hT > lT) rawData[a] |= (1<<b);
 8001536:	f04f 0b01 	mov.w	fp, #1
 800153a:	e7f4      	b.n	8001526 <DHT_getData+0x16a>
 800153c:	b662      	cpsie	i
	//    
	__enable_irq();
    #endif

	/*    */
	if((uint8_t)(rawData[0] + rawData[1] + rawData[2] + rawData[3]) == rawData[4]) {
 800153e:	f89d 0018 	ldrb.w	r0, [sp, #24]
 8001542:	f89d 2019 	ldrb.w	r2, [sp, #25]
 8001546:	f89d 601a 	ldrb.w	r6, [sp, #26]
 800154a:	f89d 701b 	ldrb.w	r7, [sp, #27]
 800154e:	1883      	adds	r3, r0, r2
 8001550:	4433      	add	r3, r6
 8001552:	443b      	add	r3, r7
 8001554:	f89d 101c 	ldrb.w	r1, [sp, #28]
 8001558:	b2db      	uxtb	r3, r3
 800155a:	4299      	cmp	r1, r3
 800155c:	d00b      	beq.n	8001576 <DHT_getData+0x1ba>
	DHT_data data = {-128.0f, -128.0f};
 800155e:	f04f 4343 	mov.w	r3, #3271557120	@ 0xc3000000
 8001562:	461d      	mov	r5, r3
			data.temp = (float)rawData[2];
		}
	}
	
	#if DHT_POLLING_CONTROL == 1
	sensor->lastHum = data.hum;
 8001564:	6125      	str	r5, [r4, #16]
	sensor->lastTemp = data.temp;
 8001566:	60e3      	str	r3, [r4, #12]
		return data;
 8001568:	9a01      	ldr	r2, [sp, #4]
 800156a:	6015      	str	r5, [r2, #0]
 800156c:	6053      	str	r3, [r2, #4]
	#endif

	return data;	
}
 800156e:	4610      	mov	r0, r2
 8001570:	b009      	add	sp, #36	@ 0x24
 8001572:	e8bd 8ff0 	ldmia.w	sp!, {r4, r5, r6, r7, r8, r9, sl, fp, pc}
		if (sensor->type == DHT22) {
 8001576:	79a3      	ldrb	r3, [r4, #6]
 8001578:	2b01      	cmp	r3, #1
 800157a:	d008      	beq.n	800158e <DHT_getData+0x1d2>
		if (sensor->type == DHT11) {
 800157c:	bb33      	cbnz	r3, 80015cc <DHT_getData+0x210>
			data.hum = (float)rawData[0];
 800157e:	f7ff fc5d 	bl	8000e3c <__aeabi_ui2f>
 8001582:	4605      	mov	r5, r0
			data.temp = (float)rawData[2];
 8001584:	4630      	mov	r0, r6
 8001586:	f7ff fc59 	bl	8000e3c <__aeabi_ui2f>
 800158a:	4603      	mov	r3, r0
 800158c:	e7ea      	b.n	8001564 <DHT_getData+0x1a8>
			data.hum = (float)(((uint16_t)rawData[0]<<8) | rawData[1])*0.1f;
 800158e:	ea42 2000 	orr.w	r0, r2, r0, lsl #8
 8001592:	f7ff fc57 	bl	8000e44 <__aeabi_i2f>
 8001596:	4910      	ldr	r1, [pc, #64]	@ (80015d8 <DHT_getData+0x21c>)
 8001598:	f7fe fde2 	bl	8000160 <__aeabi_fmul>
 800159c:	4605      	mov	r5, r0
			if(!(rawData[2] & (1<<7))) {
 800159e:	f016 0f80 	tst.w	r6, #128	@ 0x80
 80015a2:	d108      	bne.n	80015b6 <DHT_getData+0x1fa>
				data.temp = (float)(((uint16_t)rawData[2]<<8) | rawData[3])*0.1f;
 80015a4:	ea47 2006 	orr.w	r0, r7, r6, lsl #8
 80015a8:	f7ff fc4c 	bl	8000e44 <__aeabi_i2f>
 80015ac:	490a      	ldr	r1, [pc, #40]	@ (80015d8 <DHT_getData+0x21c>)
 80015ae:	f7fe fdd7 	bl	8000160 <__aeabi_fmul>
 80015b2:	4603      	mov	r3, r0
 80015b4:	e7d6      	b.n	8001564 <DHT_getData+0x1a8>
				data.temp = (float)(((uint16_t)rawData[2]<<8) | rawData[3])*-0.1f;
 80015b6:	f006 007f 	and.w	r0, r6, #127	@ 0x7f
 80015ba:	ea47 2000 	orr.w	r0, r7, r0, lsl #8
 80015be:	f7ff fc41 	bl	8000e44 <__aeabi_i2f>
 80015c2:	4906      	ldr	r1, [pc, #24]	@ (80015dc <DHT_getData+0x220>)
 80015c4:	f7fe fdcc 	bl	8000160 <__aeabi_fmul>
 80015c8:	4603      	mov	r3, r0
 80015ca:	e7cb      	b.n	8001564 <DHT_getData+0x1a8>
	DHT_data data = {-128.0f, -128.0f};
 80015cc:	f04f 4343 	mov.w	r3, #3271557120	@ 0xc3000000
 80015d0:	461d      	mov	r5, r3
 80015d2:	e7c7      	b.n	8001564 <DHT_getData+0x1a8>
 80015d4:	0800ab10 	.word	0x0800ab10
 80015d8:	3dcccccd 	.word	0x3dcccccd
 80015dc:	bdcccccd 	.word	0xbdcccccd

080015e0 <Buzzer_SetFrequency>:
}



void Buzzer_SetFrequency(BuzzerTypeDef *buzzer, uint32_t frequency) {
    buzzer->frequency = frequency;
 80015e0:	6081      	str	r1, [r0, #8]

    uint32_t prescaler = 1000000/frequency  - 1;
 80015e2:	4b04      	ldr	r3, [pc, #16]	@ (80015f4 <Buzzer_SetFrequency+0x14>)
 80015e4:	fbb3 f1f1 	udiv	r1, r3, r1
 80015e8:	3901      	subs	r1, #1
    __HAL_TIM_SET_PRESCALER(buzzer->htim, prescaler);
 80015ea:	6803      	ldr	r3, [r0, #0]
 80015ec:	681b      	ldr	r3, [r3, #0]
 80015ee:	6299      	str	r1, [r3, #40]	@ 0x28
}
 80015f0:	4770      	bx	lr
 80015f2:	bf00      	nop
 80015f4:	000f4240 	.word	0x000f4240

080015f8 <Buzzer_SetVolume>:

void Buzzer_SetVolume(BuzzerTypeDef *buzzer, uint8_t volume) {
    buzzer->volume = volume;
 80015f8:	7301      	strb	r1, [r0, #12]
    uint32_t compare_value = volume;

    __HAL_TIM_SET_COMPARE(buzzer->htim, buzzer->channel, compare_value);
 80015fa:	6843      	ldr	r3, [r0, #4]
 80015fc:	b91b      	cbnz	r3, 8001606 <Buzzer_SetVolume+0xe>
 80015fe:	6803      	ldr	r3, [r0, #0]
 8001600:	681b      	ldr	r3, [r3, #0]
 8001602:	6359      	str	r1, [r3, #52]	@ 0x34
 8001604:	4770      	bx	lr
 8001606:	2b04      	cmp	r3, #4
 8001608:	d006      	beq.n	8001618 <Buzzer_SetVolume+0x20>
 800160a:	2b08      	cmp	r3, #8
 800160c:	6803      	ldr	r3, [r0, #0]
 800160e:	681b      	ldr	r3, [r3, #0]
 8001610:	bf0c      	ite	eq
 8001612:	63d9      	streq	r1, [r3, #60]	@ 0x3c
 8001614:	6419      	strne	r1, [r3, #64]	@ 0x40
}
 8001616:	4770      	bx	lr
    __HAL_TIM_SET_COMPARE(buzzer->htim, buzzer->channel, compare_value);
 8001618:	6803      	ldr	r3, [r0, #0]
 800161a:	681b      	ldr	r3, [r3, #0]
 800161c:	6399      	str	r1, [r3, #56]	@ 0x38
 800161e:	4770      	bx	lr

08001620 <Buzzer_Init>:
void Buzzer_Init(BuzzerTypeDef *buzzer) {
 8001620:	b510      	push	{r4, lr}
 8001622:	4604      	mov	r4, r0
    Buzzer_SetFrequency(buzzer, buzzer->frequency);
 8001624:	6881      	ldr	r1, [r0, #8]
 8001626:	f7ff ffdb 	bl	80015e0 <Buzzer_SetFrequency>
    Buzzer_SetVolume(buzzer, buzzer->volume);
 800162a:	7b21      	ldrb	r1, [r4, #12]
 800162c:	4620      	mov	r0, r4
 800162e:	f7ff ffe3 	bl	80015f8 <Buzzer_SetVolume>
		if (buzzer->htim->Instance == TIM1){
 8001632:	6823      	ldr	r3, [r4, #0]
 8001634:	681a      	ldr	r2, [r3, #0]
 8001636:	4b0e      	ldr	r3, [pc, #56]	@ (8001670 <Buzzer_Init+0x50>)
 8001638:	429a      	cmp	r2, r3
 800163a:	d010      	beq.n	800165e <Buzzer_Init+0x3e>
    	 period = HAL_RCC_GetPCLK1Freq()/1000000-1;
 800163c:	f003 fd28 	bl	8005090 <HAL_RCC_GetPCLK1Freq>
 8001640:	4b0c      	ldr	r3, [pc, #48]	@ (8001674 <Buzzer_Init+0x54>)
 8001642:	fba3 2300 	umull	r2, r3, r3, r0
 8001646:	0c9b      	lsrs	r3, r3, #18
 8001648:	3b01      	subs	r3, #1
    __HAL_TIM_SET_AUTORELOAD(buzzer->htim, period);
 800164a:	6822      	ldr	r2, [r4, #0]
 800164c:	6812      	ldr	r2, [r2, #0]
 800164e:	62d3      	str	r3, [r2, #44]	@ 0x2c
 8001650:	6822      	ldr	r2, [r4, #0]
 8001652:	60d3      	str	r3, [r2, #12]
    HAL_TIM_PWM_Start(buzzer->htim, buzzer->channel);
 8001654:	6861      	ldr	r1, [r4, #4]
 8001656:	6820      	ldr	r0, [r4, #0]
 8001658:	f004 f9d6 	bl	8005a08 <HAL_TIM_PWM_Start>
}
 800165c:	bd10      	pop	{r4, pc}
    	 period = HAL_RCC_GetPCLK2Freq()/1000000-1;
 800165e:	f003 fd27 	bl	80050b0 <HAL_RCC_GetPCLK2Freq>
 8001662:	4b04      	ldr	r3, [pc, #16]	@ (8001674 <Buzzer_Init+0x54>)
 8001664:	fba3 2300 	umull	r2, r3, r3, r0
 8001668:	0c9b      	lsrs	r3, r3, #18
 800166a:	3b01      	subs	r3, #1
 800166c:	e7ed      	b.n	800164a <Buzzer_Init+0x2a>
 800166e:	bf00      	nop
 8001670:	40012c00 	.word	0x40012c00
 8001674:	431bde83 	.word	0x431bde83

08001678 <ssd1306_NoticeView>:
/* USER CODE END PFP */

/* Private user code ---------------------------------------------------------*/
/* USER CODE BEGIN 0 */
void ssd1306_NoticeView(const char* notice)
{
 8001678:	b530      	push	{r4, r5, lr}
 800167a:	b09b      	sub	sp, #108	@ 0x6c
 800167c:	4605      	mov	r5, r0
    uint8_t msg[100];
    ssd1306_Fill(Black);
 800167e:	2000      	movs	r0, #0
 8001680:	f001 fb76 	bl	8002d70 <ssd1306_Fill>
    ssd1306_SetCursor(0, 0);
 8001684:	2100      	movs	r1, #0
 8001686:	4608      	mov	r0, r1
 8001688:	f001 fcaa 	bl	8002fe0 <ssd1306_SetCursor>
    sprintf((char*)msg, "NOTICE");
 800168c:	4b10      	ldr	r3, [pc, #64]	@ (80016d0 <ssd1306_NoticeView+0x58>)
 800168e:	e893 0003 	ldmia.w	r3, {r0, r1}
 8001692:	9001      	str	r0, [sp, #4]
 8001694:	f8ad 1008 	strh.w	r1, [sp, #8]
 8001698:	0c09      	lsrs	r1, r1, #16
 800169a:	f88d 100a 	strb.w	r1, [sp, #10]
    ssd1306_WriteString((char*)msg, Font_11x18, White);
 800169e:	4c0d      	ldr	r4, [pc, #52]	@ (80016d4 <ssd1306_NoticeView+0x5c>)
 80016a0:	2301      	movs	r3, #1
 80016a2:	e894 0006 	ldmia.w	r4, {r1, r2}
 80016a6:	a801      	add	r0, sp, #4
 80016a8:	f001 fc80 	bl	8002fac <ssd1306_WriteString>
    ssd1306_SetCursor(0, 30);
 80016ac:	211e      	movs	r1, #30
 80016ae:	2000      	movs	r0, #0
 80016b0:	f001 fc96 	bl	8002fe0 <ssd1306_SetCursor>
    sprintf((char*)msg, "%s", notice);
 80016b4:	4629      	mov	r1, r5
 80016b6:	a801      	add	r0, sp, #4
 80016b8:	f005 ff47 	bl	800754a <strcpy>
    ssd1306_WriteString((char*)msg, Font_11x18, White);
 80016bc:	2301      	movs	r3, #1
 80016be:	e894 0006 	ldmia.w	r4, {r1, r2}
 80016c2:	a801      	add	r0, sp, #4
 80016c4:	f001 fc72 	bl	8002fac <ssd1306_WriteString>
    ssd1306_UpdateScreen();
 80016c8:	f001 fb60 	bl	8002d8c <ssd1306_UpdateScreen>
}
 80016cc:	b01b      	add	sp, #108	@ 0x6c
 80016ce:	bd30      	pop	{r4, r5, pc}
 80016d0:	0800ac3c 	.word	0x0800ac3c
 80016d4:	200000e4 	.word	0x200000e4

080016d8 <ssd1306_WelcomeView>:


void ssd1306_WelcomeView(){
 80016d8:	b530      	push	{r4, r5, lr}
 80016da:	b09b      	sub	sp, #108	@ 0x6c
	uint8_t msg[100];
	ssd1306_Fill(Black);
 80016dc:	2000      	movs	r0, #0
 80016de:	f001 fb47 	bl	8002d70 <ssd1306_Fill>
	ssd1306_SetCursor(0, 0);
 80016e2:	2100      	movs	r1, #0
 80016e4:	4608      	mov	r0, r1
 80016e6:	f001 fc7b 	bl	8002fe0 <ssd1306_SetCursor>
	sprintf(msg, "BOOTING");
 80016ea:	ac01      	add	r4, sp, #4
 80016ec:	4b17      	ldr	r3, [pc, #92]	@ (800174c <ssd1306_WelcomeView+0x74>)
 80016ee:	e893 0003 	ldmia.w	r3, {r0, r1}
 80016f2:	e884 0003 	stmia.w	r4, {r0, r1}
	ssd1306_WriteString(msg, Font_11x18, White);
 80016f6:	4d16      	ldr	r5, [pc, #88]	@ (8001750 <ssd1306_WelcomeView+0x78>)
 80016f8:	2301      	movs	r3, #1
 80016fa:	e895 0006 	ldmia.w	r5, {r1, r2}
 80016fe:	4620      	mov	r0, r4
 8001700:	f001 fc54 	bl	8002fac <ssd1306_WriteString>
	ssd1306_SetCursor(0, 25);
 8001704:	2119      	movs	r1, #25
 8001706:	2000      	movs	r0, #0
 8001708:	f001 fc6a 	bl	8002fe0 <ssd1306_SetCursor>
	sprintf(msg, "Course PrjC");
 800170c:	4b11      	ldr	r3, [pc, #68]	@ (8001754 <ssd1306_WelcomeView+0x7c>)
 800170e:	e893 0007 	ldmia.w	r3, {r0, r1, r2}
 8001712:	e884 0007 	stmia.w	r4, {r0, r1, r2}
	ssd1306_WriteString(msg, Font_11x18, White);
 8001716:	2301      	movs	r3, #1
 8001718:	e895 0006 	ldmia.w	r5, {r1, r2}
 800171c:	4620      	mov	r0, r4
 800171e:	f001 fc45 	bl	8002fac <ssd1306_WriteString>
	ssd1306_SetCursor(0, 50);
 8001722:	2132      	movs	r1, #50	@ 0x32
 8001724:	2000      	movs	r0, #0
 8001726:	f001 fc5b 	bl	8002fe0 <ssd1306_SetCursor>
	sprintf(msg, "Initialing...");
 800172a:	4b0b      	ldr	r3, [pc, #44]	@ (8001758 <ssd1306_WelcomeView+0x80>)
 800172c:	46a4      	mov	ip, r4
 800172e:	cb0f      	ldmia	r3, {r0, r1, r2, r3}
 8001730:	e8ac 0007 	stmia.w	ip!, {r0, r1, r2}
 8001734:	f8ac 3000 	strh.w	r3, [ip]
	ssd1306_WriteString(msg, Font_7x10, White);
 8001738:	4a08      	ldr	r2, [pc, #32]	@ (800175c <ssd1306_WelcomeView+0x84>)
 800173a:	2301      	movs	r3, #1
 800173c:	ca06      	ldmia	r2, {r1, r2}
 800173e:	4620      	mov	r0, r4
 8001740:	f001 fc34 	bl	8002fac <ssd1306_WriteString>
	ssd1306_UpdateScreen();
 8001744:	f001 fb22 	bl	8002d8c <ssd1306_UpdateScreen>
}
 8001748:	b01b      	add	sp, #108	@ 0x6c
 800174a:	bd30      	pop	{r4, r5, pc}
 800174c:	0800ac44 	.word	0x0800ac44
 8001750:	200000e4 	.word	0x200000e4
 8001754:	0800ac4c 	.word	0x0800ac4c
 8001758:	0800ac58 	.word	0x0800ac58
 800175c:	200000ec 	.word	0x200000ec

08001760 <ssd1306_IndexView>:

void ssd1306_IndexView(){
 8001760:	b510      	push	{r4, lr}
 8001762:	b09c      	sub	sp, #112	@ 0x70
	uint8_t msg[100];
	ssd1306_Fill(Black);
 8001764:	2000      	movs	r0, #0
 8001766:	f001 fb03 	bl	8002d70 <ssd1306_Fill>
	ssd1306_SetCursor(0, 0);
 800176a:	2100      	movs	r1, #0
 800176c:	4608      	mov	r0, r1
 800176e:	f001 fc37 	bl	8002fe0 <ssd1306_SetCursor>
	sprintf(msg, "Index");
 8001772:	4b36      	ldr	r3, [pc, #216]	@ (800184c <ssd1306_IndexView+0xec>)
 8001774:	e893 0003 	ldmia.w	r3, {r0, r1}
 8001778:	9003      	str	r0, [sp, #12]
 800177a:	f8ad 1010 	strh.w	r1, [sp, #16]
	ssd1306_WriteString(msg, Font_11x18, White);
 800177e:	4c34      	ldr	r4, [pc, #208]	@ (8001850 <ssd1306_IndexView+0xf0>)
 8001780:	2301      	movs	r3, #1
 8001782:	e894 0006 	ldmia.w	r4, {r1, r2}
 8001786:	a803      	add	r0, sp, #12
 8001788:	f001 fc10 	bl	8002fac <ssd1306_WriteString>

	ssd1306_SetCursor(0, 18);
 800178c:	2112      	movs	r1, #18
 800178e:	2000      	movs	r0, #0
 8001790:	f001 fc26 	bl	8002fe0 <ssd1306_SetCursor>
	sprintf(msg, "RUN TIME");
 8001794:	4a2f      	ldr	r2, [pc, #188]	@ (8001854 <ssd1306_IndexView+0xf4>)
 8001796:	ab03      	add	r3, sp, #12
 8001798:	ca07      	ldmia	r2, {r0, r1, r2}
 800179a:	c303      	stmia	r3!, {r0, r1}
 800179c:	701a      	strb	r2, [r3, #0]
	ssd1306_WriteString(msg, Font_7x10, White);
 800179e:	4a2e      	ldr	r2, [pc, #184]	@ (8001858 <ssd1306_IndexView+0xf8>)
 80017a0:	2301      	movs	r3, #1
 80017a2:	ca06      	ldmia	r2, {r1, r2}
 80017a4:	a803      	add	r0, sp, #12
 80017a6:	f001 fc01 	bl	8002fac <ssd1306_WriteString>
	ssd1306_SetCursor(0, 30);
 80017aa:	211e      	movs	r1, #30
 80017ac:	2000      	movs	r0, #0
 80017ae:	f001 fc17 	bl	8002fe0 <ssd1306_SetCursor>
	sprintf(msg, "%02u:%02u:%02u", Time.hours, Time.minutes, Time.seconds);
 80017b2:	4a2a      	ldr	r2, [pc, #168]	@ (800185c <ssd1306_IndexView+0xfc>)
 80017b4:	6893      	ldr	r3, [r2, #8]
 80017b6:	9300      	str	r3, [sp, #0]
 80017b8:	6853      	ldr	r3, [r2, #4]
 80017ba:	6812      	ldr	r2, [r2, #0]
 80017bc:	4928      	ldr	r1, [pc, #160]	@ (8001860 <ssd1306_IndexView+0x100>)
 80017be:	a803      	add	r0, sp, #12
 80017c0:	f005 fd4a 	bl	8007258 <siprintf>
	ssd1306_WriteString(msg, Font_11x18, White);
 80017c4:	2301      	movs	r3, #1
 80017c6:	e894 0006 	ldmia.w	r4, {r1, r2}
 80017ca:	a803      	add	r0, sp, #12
 80017cc:	f001 fbee 	bl	8002fac <ssd1306_WriteString>

	ssd1306_SetCursor(0 , 56);
 80017d0:	2138      	movs	r1, #56	@ 0x38
 80017d2:	2000      	movs	r0, #0
 80017d4:	f001 fc04 	bl	8002fe0 <ssd1306_SetCursor>
	sprintf(msg, "DHT");
 80017d8:	4b22      	ldr	r3, [pc, #136]	@ (8001864 <ssd1306_IndexView+0x104>)
 80017da:	9303      	str	r3, [sp, #12]
	ssd1306_WriteString(msg, Font_6x8, White);
 80017dc:	4c22      	ldr	r4, [pc, #136]	@ (8001868 <ssd1306_IndexView+0x108>)
 80017de:	2301      	movs	r3, #1
 80017e0:	e894 0006 	ldmia.w	r4, {r1, r2}
 80017e4:	a803      	add	r0, sp, #12
 80017e6:	f001 fbe1 	bl	8002fac <ssd1306_WriteString>
	ssd1306_SetCursor(32, 56);
 80017ea:	2138      	movs	r1, #56	@ 0x38
 80017ec:	2020      	movs	r0, #32
 80017ee:	f001 fbf7 	bl	8002fe0 <ssd1306_SetCursor>
	sprintf(msg, "PUMP");
 80017f2:	4b1e      	ldr	r3, [pc, #120]	@ (800186c <ssd1306_IndexView+0x10c>)
 80017f4:	e893 0003 	ldmia.w	r3, {r0, r1}
 80017f8:	9003      	str	r0, [sp, #12]
 80017fa:	f88d 1010 	strb.w	r1, [sp, #16]
	ssd1306_WriteString(msg, Font_6x8, White);
 80017fe:	2301      	movs	r3, #1
 8001800:	e894 0006 	ldmia.w	r4, {r1, r2}
 8001804:	a803      	add	r0, sp, #12
 8001806:	f001 fbd1 	bl	8002fac <ssd1306_WriteString>
	ssd1306_SetCursor(64, 56);
 800180a:	2138      	movs	r1, #56	@ 0x38
 800180c:	2040      	movs	r0, #64	@ 0x40
 800180e:	f001 fbe7 	bl	8002fe0 <ssd1306_SetCursor>
	sprintf(msg, "BEEP");
 8001812:	4b17      	ldr	r3, [pc, #92]	@ (8001870 <ssd1306_IndexView+0x110>)
 8001814:	e893 0003 	ldmia.w	r3, {r0, r1}
 8001818:	9003      	str	r0, [sp, #12]
 800181a:	f88d 1010 	strb.w	r1, [sp, #16]
	ssd1306_WriteString(msg, Font_6x8, White);
 800181e:	2301      	movs	r3, #1
 8001820:	e894 0006 	ldmia.w	r4, {r1, r2}
 8001824:	a803      	add	r0, sp, #12
 8001826:	f001 fbc1 	bl	8002fac <ssd1306_WriteString>
	ssd1306_SetCursor(96, 56);
 800182a:	2138      	movs	r1, #56	@ 0x38
 800182c:	2060      	movs	r0, #96	@ 0x60
 800182e:	f001 fbd7 	bl	8002fe0 <ssd1306_SetCursor>
	sprintf(msg, "NET");
 8001832:	4b10      	ldr	r3, [pc, #64]	@ (8001874 <ssd1306_IndexView+0x114>)
 8001834:	9303      	str	r3, [sp, #12]
	ssd1306_WriteString(msg, Font_6x8, White);
 8001836:	2301      	movs	r3, #1
 8001838:	e894 0006 	ldmia.w	r4, {r1, r2}
 800183c:	a803      	add	r0, sp, #12
 800183e:	f001 fbb5 	bl	8002fac <ssd1306_WriteString>
	ssd1306_UpdateScreen();
 8001842:	f001 faa3 	bl	8002d8c <ssd1306_UpdateScreen>
}
 8001846:	b01c      	add	sp, #112	@ 0x70
 8001848:	bd10      	pop	{r4, pc}
 800184a:	bf00      	nop
 800184c:	0800ac68 	.word	0x0800ac68
 8001850:	200000e4 	.word	0x200000e4
 8001854:	0800ac70 	.word	0x0800ac70
 8001858:	200000ec 	.word	0x200000ec
 800185c:	20000304 	.word	0x20000304
 8001860:	0800ac7c 	.word	0x0800ac7c
 8001864:	00544844 	.word	0x00544844
 8001868:	200000f4 	.word	0x200000f4
 800186c:	0800ac8c 	.word	0x0800ac8c
 8001870:	0800ac94 	.word	0x0800ac94
 8001874:	0054454e 	.word	0x0054454e

08001878 <ssd1306_NetWorkView>:

void ssd1306_NetWorkView(){
 8001878:	b570      	push	{r4, r5, r6, lr}
 800187a:	b09a      	sub	sp, #104	@ 0x68
	uint8_t msg[100];
	ssd1306_Fill(Black);
 800187c:	2000      	movs	r0, #0
 800187e:	f001 fa77 	bl	8002d70 <ssd1306_Fill>
	ssd1306_SetCursor(0, 0);
 8001882:	2100      	movs	r1, #0
 8001884:	4608      	mov	r0, r1
 8001886:	f001 fbab 	bl	8002fe0 <ssd1306_SetCursor>
	sprintf(msg, "NETWORK %d",WiFiInfo.rssi);
 800188a:	4e27      	ldr	r6, [pc, #156]	@ (8001928 <ssd1306_NetWorkView+0xb0>)
 800188c:	f996 2033 	ldrsb.w	r2, [r6, #51]	@ 0x33
 8001890:	4926      	ldr	r1, [pc, #152]	@ (800192c <ssd1306_NetWorkView+0xb4>)
 8001892:	a801      	add	r0, sp, #4
 8001894:	f005 fce0 	bl	8007258 <siprintf>
	ssd1306_WriteString(msg, Font_11x18, White);
 8001898:	4a25      	ldr	r2, [pc, #148]	@ (8001930 <ssd1306_NetWorkView+0xb8>)
 800189a:	2301      	movs	r3, #1
 800189c:	ca06      	ldmia	r2, {r1, r2}
 800189e:	a801      	add	r0, sp, #4
 80018a0:	f001 fb84 	bl	8002fac <ssd1306_WriteString>
	ssd1306_SetCursor(0, 18);
 80018a4:	2112      	movs	r1, #18
 80018a6:	2000      	movs	r0, #0
 80018a8:	f001 fb9a 	bl	8002fe0 <ssd1306_SetCursor>
	sprintf(msg, "%s",esp_config.ap_ssid);
 80018ac:	4921      	ldr	r1, [pc, #132]	@ (8001934 <ssd1306_NetWorkView+0xbc>)
 80018ae:	a801      	add	r0, sp, #4
 80018b0:	f005 fe4b 	bl	800754a <strcpy>
	ssd1306_WriteString(msg, Font_7x10, White);
 80018b4:	4c20      	ldr	r4, [pc, #128]	@ (8001938 <ssd1306_NetWorkView+0xc0>)
 80018b6:	2301      	movs	r3, #1
 80018b8:	e894 0006 	ldmia.w	r4, {r1, r2}
 80018bc:	a801      	add	r0, sp, #4
 80018be:	f001 fb75 	bl	8002fac <ssd1306_WriteString>
	ssd1306_SetCursor(0, 31);
 80018c2:	211f      	movs	r1, #31
 80018c4:	2000      	movs	r0, #0
 80018c6:	f001 fb8b 	bl	8002fe0 <ssd1306_SetCursor>
	sprintf(msg, "AP :%s",IPInfo.AP_IP);
 80018ca:	4d1c      	ldr	r5, [pc, #112]	@ (800193c <ssd1306_NetWorkView+0xc4>)
 80018cc:	462a      	mov	r2, r5
 80018ce:	491c      	ldr	r1, [pc, #112]	@ (8001940 <ssd1306_NetWorkView+0xc8>)
 80018d0:	a801      	add	r0, sp, #4
 80018d2:	f005 fcc1 	bl	8007258 <siprintf>
	ssd1306_WriteString(msg, Font_7x10, White);
 80018d6:	2301      	movs	r3, #1
 80018d8:	e894 0006 	ldmia.w	r4, {r1, r2}
 80018dc:	a801      	add	r0, sp, #4
 80018de:	f001 fb65 	bl	8002fac <ssd1306_WriteString>
	ssd1306_SetCursor(0, 43);
 80018e2:	212b      	movs	r1, #43	@ 0x2b
 80018e4:	2000      	movs	r0, #0
 80018e6:	f001 fb7b 	bl	8002fe0 <ssd1306_SetCursor>
	sprintf(msg, "%s",WiFiInfo.ssid);
 80018ea:	4631      	mov	r1, r6
 80018ec:	a801      	add	r0, sp, #4
 80018ee:	f005 fe2c 	bl	800754a <strcpy>
	ssd1306_WriteString(msg, Font_7x10, White);
 80018f2:	2301      	movs	r3, #1
 80018f4:	e894 0006 	ldmia.w	r4, {r1, r2}
 80018f8:	a801      	add	r0, sp, #4
 80018fa:	f001 fb57 	bl	8002fac <ssd1306_WriteString>
	ssd1306_SetCursor(0, 54);
 80018fe:	2136      	movs	r1, #54	@ 0x36
 8001900:	2000      	movs	r0, #0
 8001902:	f001 fb6d 	bl	8002fe0 <ssd1306_SetCursor>
	sprintf(msg, "STA:%s",IPInfo.STA_IP);
 8001906:	f105 0222 	add.w	r2, r5, #34	@ 0x22
 800190a:	490e      	ldr	r1, [pc, #56]	@ (8001944 <ssd1306_NetWorkView+0xcc>)
 800190c:	a801      	add	r0, sp, #4
 800190e:	f005 fca3 	bl	8007258 <siprintf>
	ssd1306_WriteString(msg, Font_7x10, White);
 8001912:	2301      	movs	r3, #1
 8001914:	e894 0006 	ldmia.w	r4, {r1, r2}
 8001918:	a801      	add	r0, sp, #4
 800191a:	f001 fb47 	bl	8002fac <ssd1306_WriteString>
	ssd1306_UpdateScreen();
 800191e:	f001 fa35 	bl	8002d8c <ssd1306_UpdateScreen>
}
 8001922:	b01a      	add	sp, #104	@ 0x68
 8001924:	bd70      	pop	{r4, r5, r6, pc}
 8001926:	bf00      	nop
 8001928:	20000360 	.word	0x20000360
 800192c:	0800ac9c 	.word	0x0800ac9c
 8001930:	200000e4 	.word	0x200000e4
 8001934:	20000042 	.word	0x20000042
 8001938:	200000ec 	.word	0x200000ec
 800193c:	2000031c 	.word	0x2000031c
 8001940:	0800aca8 	.word	0x0800aca8
 8001944:	0800acb0 	.word	0x0800acb0

08001948 <ssd1306_SensorView>:

void ssd1306_SensorView(){
 8001948:	e92d 41f0 	stmdb	sp!, {r4, r5, r6, r7, r8, lr}
 800194c:	b09a      	sub	sp, #104	@ 0x68
	uint8_t msg[100];
	ssd1306_Fill(Black);
 800194e:	2000      	movs	r0, #0
 8001950:	f001 fa0e 	bl	8002d70 <ssd1306_Fill>
	ssd1306_SetCursor(0, 0);
 8001954:	2100      	movs	r1, #0
 8001956:	4608      	mov	r0, r1
 8001958:	f001 fb42 	bl	8002fe0 <ssd1306_SetCursor>
	sprintf(msg, "SENSOR");
 800195c:	4b84      	ldr	r3, [pc, #528]	@ (8001b70 <ssd1306_SensorView+0x228>)
 800195e:	e893 0003 	ldmia.w	r3, {r0, r1}
 8001962:	9001      	str	r0, [sp, #4]
 8001964:	f8ad 1008 	strh.w	r1, [sp, #8]
 8001968:	0c09      	lsrs	r1, r1, #16
 800196a:	f88d 100a 	strb.w	r1, [sp, #10]
	ssd1306_WriteString(msg, Font_11x18, White);
 800196e:	4c81      	ldr	r4, [pc, #516]	@ (8001b74 <ssd1306_SensorView+0x22c>)
 8001970:	2301      	movs	r3, #1
 8001972:	e894 0006 	ldmia.w	r4, {r1, r2}
 8001976:	a801      	add	r0, sp, #4
 8001978:	f001 fb18 	bl	8002fac <ssd1306_WriteString>
	ssd1306_SetCursor(0, 18);
 800197c:	2112      	movs	r1, #18
 800197e:	2000      	movs	r0, #0
 8001980:	f001 fb2e 	bl	8002fe0 <ssd1306_SetCursor>
	sprintf(msg, "T:%dC",(uint8_t)DHT11_Info.temp);
 8001984:	4d7c      	ldr	r5, [pc, #496]	@ (8001b78 <ssd1306_SensorView+0x230>)
 8001986:	6868      	ldr	r0, [r5, #4]
 8001988:	f7ff fab0 	bl	8000eec <__aeabi_f2uiz>
 800198c:	b2c2      	uxtb	r2, r0
 800198e:	497b      	ldr	r1, [pc, #492]	@ (8001b7c <ssd1306_SensorView+0x234>)
 8001990:	a801      	add	r0, sp, #4
 8001992:	f005 fc61 	bl	8007258 <siprintf>
	ssd1306_WriteString(msg, Font_11x18, White);
 8001996:	2301      	movs	r3, #1
 8001998:	e894 0006 	ldmia.w	r4, {r1, r2}
 800199c:	a801      	add	r0, sp, #4
 800199e:	f001 fb05 	bl	8002fac <ssd1306_WriteString>
	ssd1306_SetCursor(64, 18);
 80019a2:	2112      	movs	r1, #18
 80019a4:	2040      	movs	r0, #64	@ 0x40
 80019a6:	f001 fb1b 	bl	8002fe0 <ssd1306_SetCursor>
	sprintf(msg, "H:%d%%",(uint8_t)DHT11_Info.hum);
 80019aa:	6828      	ldr	r0, [r5, #0]
 80019ac:	f7ff fa9e 	bl	8000eec <__aeabi_f2uiz>
 80019b0:	b2c2      	uxtb	r2, r0
 80019b2:	4973      	ldr	r1, [pc, #460]	@ (8001b80 <ssd1306_SensorView+0x238>)
 80019b4:	a801      	add	r0, sp, #4
 80019b6:	f005 fc4f 	bl	8007258 <siprintf>
	ssd1306_WriteString(msg, Font_11x18, White);
 80019ba:	2301      	movs	r3, #1
 80019bc:	e894 0006 	ldmia.w	r4, {r1, r2}
 80019c0:	a801      	add	r0, sp, #4
 80019c2:	f001 faf3 	bl	8002fac <ssd1306_WriteString>
	ssd1306_SetCursor(0, 36);
 80019c6:	2124      	movs	r1, #36	@ 0x24
 80019c8:	2000      	movs	r0, #0
 80019ca:	f001 fb09 	bl	8002fe0 <ssd1306_SetCursor>
	sprintf(msg, "L:%d",(uint8_t)DHT11_Alarm_L.temp);
 80019ce:	f8df 81b4 	ldr.w	r8, [pc, #436]	@ 8001b84 <ssd1306_SensorView+0x23c>
 80019d2:	f8d8 0004 	ldr.w	r0, [r8, #4]
 80019d6:	f7ff fa89 	bl	8000eec <__aeabi_f2uiz>
 80019da:	4f6b      	ldr	r7, [pc, #428]	@ (8001b88 <ssd1306_SensorView+0x240>)
 80019dc:	b2c2      	uxtb	r2, r0
 80019de:	4639      	mov	r1, r7
 80019e0:	a801      	add	r0, sp, #4
 80019e2:	f005 fc39 	bl	8007258 <siprintf>
	ssd1306_WriteString(msg, Font_7x10, White);
 80019e6:	4c69      	ldr	r4, [pc, #420]	@ (8001b8c <ssd1306_SensorView+0x244>)
 80019e8:	2301      	movs	r3, #1
 80019ea:	e894 0006 	ldmia.w	r4, {r1, r2}
 80019ee:	a801      	add	r0, sp, #4
 80019f0:	f001 fadc 	bl	8002fac <ssd1306_WriteString>
	ssd1306_SetCursor(32, 36);
 80019f4:	2124      	movs	r1, #36	@ 0x24
 80019f6:	2020      	movs	r0, #32
 80019f8:	f001 faf2 	bl	8002fe0 <ssd1306_SetCursor>
	sprintf(msg, "H:%d",(uint8_t)DHT11_Alarm_H.temp);
 80019fc:	4d64      	ldr	r5, [pc, #400]	@ (8001b90 <ssd1306_SensorView+0x248>)
 80019fe:	6868      	ldr	r0, [r5, #4]
 8001a00:	f7ff fa74 	bl	8000eec <__aeabi_f2uiz>
 8001a04:	4e63      	ldr	r6, [pc, #396]	@ (8001b94 <ssd1306_SensorView+0x24c>)
 8001a06:	b2c2      	uxtb	r2, r0
 8001a08:	4631      	mov	r1, r6
 8001a0a:	a801      	add	r0, sp, #4
 8001a0c:	f005 fc24 	bl	8007258 <siprintf>
	ssd1306_WriteString(msg, Font_7x10, White);
 8001a10:	2301      	movs	r3, #1
 8001a12:	e894 0006 	ldmia.w	r4, {r1, r2}
 8001a16:	a801      	add	r0, sp, #4
 8001a18:	f001 fac8 	bl	8002fac <ssd1306_WriteString>
	ssd1306_SetCursor(64, 36);
 8001a1c:	2124      	movs	r1, #36	@ 0x24
 8001a1e:	2040      	movs	r0, #64	@ 0x40
 8001a20:	f001 fade 	bl	8002fe0 <ssd1306_SetCursor>
	sprintf(msg, "L:%d",(uint8_t)DHT11_Alarm_L.hum);
 8001a24:	f8d8 0000 	ldr.w	r0, [r8]
 8001a28:	f7ff fa60 	bl	8000eec <__aeabi_f2uiz>
 8001a2c:	b2c2      	uxtb	r2, r0
 8001a2e:	4639      	mov	r1, r7
 8001a30:	a801      	add	r0, sp, #4
 8001a32:	f005 fc11 	bl	8007258 <siprintf>
	ssd1306_WriteString(msg, Font_7x10, White);
 8001a36:	2301      	movs	r3, #1
 8001a38:	e894 0006 	ldmia.w	r4, {r1, r2}
 8001a3c:	a801      	add	r0, sp, #4
 8001a3e:	f001 fab5 	bl	8002fac <ssd1306_WriteString>
	ssd1306_SetCursor(96, 36);
 8001a42:	2124      	movs	r1, #36	@ 0x24
 8001a44:	2060      	movs	r0, #96	@ 0x60
 8001a46:	f001 facb 	bl	8002fe0 <ssd1306_SetCursor>
	sprintf(msg, "H:%d",(uint8_t)DHT11_Alarm_H.hum);
 8001a4a:	6828      	ldr	r0, [r5, #0]
 8001a4c:	f7ff fa4e 	bl	8000eec <__aeabi_f2uiz>
 8001a50:	b2c2      	uxtb	r2, r0
 8001a52:	4631      	mov	r1, r6
 8001a54:	a801      	add	r0, sp, #4
 8001a56:	f005 fbff 	bl	8007258 <siprintf>
	ssd1306_WriteString(msg, Font_7x10, White);
 8001a5a:	2301      	movs	r3, #1
 8001a5c:	e894 0006 	ldmia.w	r4, {r1, r2}
 8001a60:	a801      	add	r0, sp, #4
 8001a62:	f001 faa3 	bl	8002fac <ssd1306_WriteString>
	ssd1306_SetCursor(0, 46);
 8001a66:	212e      	movs	r1, #46	@ 0x2e
 8001a68:	2000      	movs	r0, #0
 8001a6a:	f001 fab9 	bl	8002fe0 <ssd1306_SetCursor>
	sprintf(msg, "SOIL");
 8001a6e:	4b4a      	ldr	r3, [pc, #296]	@ (8001b98 <ssd1306_SensorView+0x250>)
 8001a70:	e893 0003 	ldmia.w	r3, {r0, r1}
 8001a74:	9001      	str	r0, [sp, #4]
 8001a76:	f88d 1008 	strb.w	r1, [sp, #8]
	ssd1306_WriteString(msg, Font_7x10, White);
 8001a7a:	2301      	movs	r3, #1
 8001a7c:	e894 0006 	ldmia.w	r4, {r1, r2}
 8001a80:	a801      	add	r0, sp, #4
 8001a82:	f001 fa93 	bl	8002fac <ssd1306_WriteString>
	ssd1306_SetCursor(32, 46);
 8001a86:	212e      	movs	r1, #46	@ 0x2e
 8001a88:	2020      	movs	r0, #32
 8001a8a:	f001 faa9 	bl	8002fe0 <ssd1306_SetCursor>
	sprintf(msg, "%d",(uint8_t)DHT11_Alarm_H.temp);
 8001a8e:	6868      	ldr	r0, [r5, #4]
 8001a90:	f7ff fa2c 	bl	8000eec <__aeabi_f2uiz>
 8001a94:	4e41      	ldr	r6, [pc, #260]	@ (8001b9c <ssd1306_SensorView+0x254>)
 8001a96:	b2c2      	uxtb	r2, r0
 8001a98:	4631      	mov	r1, r6
 8001a9a:	a801      	add	r0, sp, #4
 8001a9c:	f005 fbdc 	bl	8007258 <siprintf>
	ssd1306_WriteString(msg, Font_7x10, White);
 8001aa0:	2301      	movs	r3, #1
 8001aa2:	e894 0006 	ldmia.w	r4, {r1, r2}
 8001aa6:	a801      	add	r0, sp, #4
 8001aa8:	f001 fa80 	bl	8002fac <ssd1306_WriteString>
	ssd1306_SetCursor(64, 46);
 8001aac:	212e      	movs	r1, #46	@ 0x2e
 8001aae:	2040      	movs	r0, #64	@ 0x40
 8001ab0:	f001 fa96 	bl	8002fe0 <ssd1306_SetCursor>
	sprintf(msg, "%d",(uint8_t)DHT11_Alarm_H.temp);
 8001ab4:	6868      	ldr	r0, [r5, #4]
 8001ab6:	f7ff fa19 	bl	8000eec <__aeabi_f2uiz>
 8001aba:	b2c2      	uxtb	r2, r0
 8001abc:	4631      	mov	r1, r6
 8001abe:	a801      	add	r0, sp, #4
 8001ac0:	f005 fbca 	bl	8007258 <siprintf>
	ssd1306_WriteString(msg, Font_7x10, White);
 8001ac4:	2301      	movs	r3, #1
 8001ac6:	e894 0006 	ldmia.w	r4, {r1, r2}
 8001aca:	a801      	add	r0, sp, #4
 8001acc:	f001 fa6e 	bl	8002fac <ssd1306_WriteString>
	ssd1306_SetCursor(96, 46);
 8001ad0:	212e      	movs	r1, #46	@ 0x2e
 8001ad2:	2060      	movs	r0, #96	@ 0x60
 8001ad4:	f001 fa84 	bl	8002fe0 <ssd1306_SetCursor>
	sprintf(msg, "%d",(uint8_t)DHT11_Alarm_H.temp);
 8001ad8:	6868      	ldr	r0, [r5, #4]
 8001ada:	f7ff fa07 	bl	8000eec <__aeabi_f2uiz>
 8001ade:	b2c2      	uxtb	r2, r0
 8001ae0:	4631      	mov	r1, r6
 8001ae2:	a801      	add	r0, sp, #4
 8001ae4:	f005 fbb8 	bl	8007258 <siprintf>
	ssd1306_WriteString(msg, Font_7x10, White);
 8001ae8:	2301      	movs	r3, #1
 8001aea:	e894 0006 	ldmia.w	r4, {r1, r2}
 8001aee:	a801      	add	r0, sp, #4
 8001af0:	f001 fa5c 	bl	8002fac <ssd1306_WriteString>
	ssd1306_SetCursor(0 , 56);
 8001af4:	2138      	movs	r1, #56	@ 0x38
 8001af6:	2000      	movs	r0, #0
 8001af8:	f001 fa72 	bl	8002fe0 <ssd1306_SetCursor>
	sprintf(msg, "<");
 8001afc:	233c      	movs	r3, #60	@ 0x3c
 8001afe:	f8ad 3004 	strh.w	r3, [sp, #4]
	ssd1306_WriteString(msg, Font_6x8, White);
 8001b02:	4c27      	ldr	r4, [pc, #156]	@ (8001ba0 <ssd1306_SensorView+0x258>)
 8001b04:	2301      	movs	r3, #1
 8001b06:	e894 0006 	ldmia.w	r4, {r1, r2}
 8001b0a:	a801      	add	r0, sp, #4
 8001b0c:	f001 fa4e 	bl	8002fac <ssd1306_WriteString>
	ssd1306_SetCursor(16, 56);
 8001b10:	2138      	movs	r1, #56	@ 0x38
 8001b12:	2010      	movs	r0, #16
 8001b14:	f001 fa64 	bl	8002fe0 <ssd1306_SetCursor>
	sprintf(msg, "%s", settings[FLAG_NowSettingVal]);
 8001b18:	4b22      	ldr	r3, [pc, #136]	@ (8001ba4 <ssd1306_SensorView+0x25c>)
 8001b1a:	781a      	ldrb	r2, [r3, #0]
 8001b1c:	4b22      	ldr	r3, [pc, #136]	@ (8001ba8 <ssd1306_SensorView+0x260>)
 8001b1e:	f853 1022 	ldr.w	r1, [r3, r2, lsl #2]
 8001b22:	a801      	add	r0, sp, #4
 8001b24:	f005 fd11 	bl	800754a <strcpy>
	ssd1306_WriteString(msg, Font_6x8, White);
 8001b28:	2301      	movs	r3, #1
 8001b2a:	e894 0006 	ldmia.w	r4, {r1, r2}
 8001b2e:	a801      	add	r0, sp, #4
 8001b30:	f001 fa3c 	bl	8002fac <ssd1306_WriteString>
	ssd1306_SetCursor(64, 56);
 8001b34:	2138      	movs	r1, #56	@ 0x38
 8001b36:	2040      	movs	r0, #64	@ 0x40
 8001b38:	f001 fa52 	bl	8002fe0 <ssd1306_SetCursor>
	sprintf(msg, " \\/");
 8001b3c:	4b1b      	ldr	r3, [pc, #108]	@ (8001bac <ssd1306_SensorView+0x264>)
 8001b3e:	9301      	str	r3, [sp, #4]
	ssd1306_WriteString(msg, Font_6x8, White);
 8001b40:	2301      	movs	r3, #1
 8001b42:	e894 0006 	ldmia.w	r4, {r1, r2}
 8001b46:	a801      	add	r0, sp, #4
 8001b48:	f001 fa30 	bl	8002fac <ssd1306_WriteString>
	ssd1306_SetCursor(96, 56);
 8001b4c:	2138      	movs	r1, #56	@ 0x38
 8001b4e:	2060      	movs	r0, #96	@ 0x60
 8001b50:	f001 fa46 	bl	8002fe0 <ssd1306_SetCursor>
	sprintf(msg, " /\\");
 8001b54:	4b16      	ldr	r3, [pc, #88]	@ (8001bb0 <ssd1306_SensorView+0x268>)
 8001b56:	9301      	str	r3, [sp, #4]
	ssd1306_WriteString(msg, Font_6x8, White);
 8001b58:	2301      	movs	r3, #1
 8001b5a:	e894 0006 	ldmia.w	r4, {r1, r2}
 8001b5e:	a801      	add	r0, sp, #4
 8001b60:	f001 fa24 	bl	8002fac <ssd1306_WriteString>
	ssd1306_UpdateScreen();
 8001b64:	f001 f912 	bl	8002d8c <ssd1306_UpdateScreen>
}
 8001b68:	b01a      	add	sp, #104	@ 0x68
 8001b6a:	e8bd 81f0 	ldmia.w	sp!, {r4, r5, r6, r7, r8, pc}
 8001b6e:	bf00      	nop
 8001b70:	0800acb8 	.word	0x0800acb8
 8001b74:	200000e4 	.word	0x200000e4
 8001b78:	20000314 	.word	0x20000314
 8001b7c:	0800acc0 	.word	0x0800acc0
 8001b80:	0800acc8 	.word	0x0800acc8
 8001b84:	200000d0 	.word	0x200000d0
 8001b88:	0800acd0 	.word	0x0800acd0
 8001b8c:	200000ec 	.word	0x200000ec
 8001b90:	200000d8 	.word	0x200000d8
 8001b94:	0800acd8 	.word	0x0800acd8
 8001b98:	0800ace0 	.word	0x0800ace0
 8001b9c:	0800aca4 	.word	0x0800aca4
 8001ba0:	200000f4 	.word	0x200000f4
 8001ba4:	20000096 	.word	0x20000096
 8001ba8:	20000098 	.word	0x20000098
 8001bac:	002f5c20 	.word	0x002f5c20
 8001bb0:	005c2f20 	.word	0x005c2f20

08001bb4 <ssd1306_PumpView>:

void ssd1306_PumpView(){
 8001bb4:	b570      	push	{r4, r5, r6, lr}
 8001bb6:	b09a      	sub	sp, #104	@ 0x68
	uint8_t msg[100];
	ssd1306_Fill(Black);
 8001bb8:	2000      	movs	r0, #0
 8001bba:	f001 f8d9 	bl	8002d70 <ssd1306_Fill>
	ssd1306_SetCursor(0, 0);
 8001bbe:	2100      	movs	r1, #0
 8001bc0:	4608      	mov	r0, r1
 8001bc2:	f001 fa0d 	bl	8002fe0 <ssd1306_SetCursor>
	sprintf(msg, "PUMP");
 8001bc6:	ac01      	add	r4, sp, #4
 8001bc8:	4b46      	ldr	r3, [pc, #280]	@ (8001ce4 <ssd1306_PumpView+0x130>)
 8001bca:	e893 0003 	ldmia.w	r3, {r0, r1}
 8001bce:	9001      	str	r0, [sp, #4]
 8001bd0:	f88d 1008 	strb.w	r1, [sp, #8]
	ssd1306_WriteString(msg, Font_11x18, White);
 8001bd4:	4d44      	ldr	r5, [pc, #272]	@ (8001ce8 <ssd1306_PumpView+0x134>)
 8001bd6:	2301      	movs	r3, #1
 8001bd8:	e895 0006 	ldmia.w	r5, {r1, r2}
 8001bdc:	4620      	mov	r0, r4
 8001bde:	f001 f9e5 	bl	8002fac <ssd1306_WriteString>
	ssd1306_SetCursor(0, 18);
 8001be2:	2112      	movs	r1, #18
 8001be4:	2000      	movs	r0, #0
 8001be6:	f001 f9fb 	bl	8002fe0 <ssd1306_SetCursor>
	sprintf(msg, "U:%d\r\n", PUMP[0]);
 8001bea:	4e40      	ldr	r6, [pc, #256]	@ (8001cec <ssd1306_PumpView+0x138>)
 8001bec:	8832      	ldrh	r2, [r6, #0]
 8001bee:	4940      	ldr	r1, [pc, #256]	@ (8001cf0 <ssd1306_PumpView+0x13c>)
 8001bf0:	4620      	mov	r0, r4
 8001bf2:	f005 fb31 	bl	8007258 <siprintf>
	ssd1306_WriteString(msg, Font_11x18, White);
 8001bf6:	2301      	movs	r3, #1
 8001bf8:	e895 0006 	ldmia.w	r5, {r1, r2}
 8001bfc:	4620      	mov	r0, r4
 8001bfe:	f001 f9d5 	bl	8002fac <ssd1306_WriteString>
	ssd1306_SetCursor(64, 18);
 8001c02:	2112      	movs	r1, #18
 8001c04:	2040      	movs	r0, #64	@ 0x40
 8001c06:	f001 f9eb 	bl	8002fe0 <ssd1306_SetCursor>
	sprintf(msg, "I:%d\r\n", PUMP[1]);
 8001c0a:	8872      	ldrh	r2, [r6, #2]
 8001c0c:	4939      	ldr	r1, [pc, #228]	@ (8001cf4 <ssd1306_PumpView+0x140>)
 8001c0e:	4620      	mov	r0, r4
 8001c10:	f005 fb22 	bl	8007258 <siprintf>
	ssd1306_WriteString(msg, Font_11x18, White);
 8001c14:	2301      	movs	r3, #1
 8001c16:	e895 0006 	ldmia.w	r5, {r1, r2}
 8001c1a:	4620      	mov	r0, r4
 8001c1c:	f001 f9c6 	bl	8002fac <ssd1306_WriteString>
	ssd1306_SetCursor(0, 36);
 8001c20:	2124      	movs	r1, #36	@ 0x24
 8001c22:	2000      	movs	r0, #0
 8001c24:	f001 f9dc 	bl	8002fe0 <ssd1306_SetCursor>
	sprintf(msg, "Duty:%d", PUMP_PWM);
 8001c28:	4b33      	ldr	r3, [pc, #204]	@ (8001cf8 <ssd1306_PumpView+0x144>)
 8001c2a:	881a      	ldrh	r2, [r3, #0]
 8001c2c:	4933      	ldr	r1, [pc, #204]	@ (8001cfc <ssd1306_PumpView+0x148>)
 8001c2e:	4620      	mov	r0, r4
 8001c30:	f005 fb12 	bl	8007258 <siprintf>
	ssd1306_WriteString(msg, Font_11x18, White);
 8001c34:	2301      	movs	r3, #1
 8001c36:	e895 0006 	ldmia.w	r5, {r1, r2}
 8001c3a:	4620      	mov	r0, r4
 8001c3c:	f001 f9b6 	bl	8002fac <ssd1306_WriteString>
	ssd1306_SetCursor(110, 36);
 8001c40:	2124      	movs	r1, #36	@ 0x24
 8001c42:	206e      	movs	r0, #110	@ 0x6e
 8001c44:	f001 f9cc 	bl	8002fe0 <ssd1306_SetCursor>
	sprintf(msg, "MAX");
 8001c48:	4b2d      	ldr	r3, [pc, #180]	@ (8001d00 <ssd1306_PumpView+0x14c>)
 8001c4a:	9301      	str	r3, [sp, #4]
	ssd1306_WriteString(msg, Font_6x8, White);
 8001c4c:	4d2d      	ldr	r5, [pc, #180]	@ (8001d04 <ssd1306_PumpView+0x150>)
 8001c4e:	2301      	movs	r3, #1
 8001c50:	e895 0006 	ldmia.w	r5, {r1, r2}
 8001c54:	4620      	mov	r0, r4
 8001c56:	f001 f9a9 	bl	8002fac <ssd1306_WriteString>
	ssd1306_SetCursor(110, 45);
 8001c5a:	212d      	movs	r1, #45	@ 0x2d
 8001c5c:	206e      	movs	r0, #110	@ 0x6e
 8001c5e:	f001 f9bf 	bl	8002fe0 <ssd1306_SetCursor>
	sprintf(msg, "720");
 8001c62:	4b29      	ldr	r3, [pc, #164]	@ (8001d08 <ssd1306_PumpView+0x154>)
 8001c64:	9301      	str	r3, [sp, #4]
	ssd1306_WriteString(msg, Font_6x8, White);
 8001c66:	2301      	movs	r3, #1
 8001c68:	e895 0006 	ldmia.w	r5, {r1, r2}
 8001c6c:	4620      	mov	r0, r4
 8001c6e:	f001 f99d 	bl	8002fac <ssd1306_WriteString>
	ssd1306_SetCursor(0 , 56);
 8001c72:	2138      	movs	r1, #56	@ 0x38
 8001c74:	2000      	movs	r0, #0
 8001c76:	f001 f9b3 	bl	8002fe0 <ssd1306_SetCursor>
	sprintf(msg, "<");
 8001c7a:	233c      	movs	r3, #60	@ 0x3c
 8001c7c:	f8ad 3004 	strh.w	r3, [sp, #4]
	ssd1306_WriteString(msg, Font_6x8, White);
 8001c80:	2301      	movs	r3, #1
 8001c82:	e895 0006 	ldmia.w	r5, {r1, r2}
 8001c86:	4620      	mov	r0, r4
 8001c88:	f001 f990 	bl	8002fac <ssd1306_WriteString>
	ssd1306_SetCursor(16, 56);
 8001c8c:	2138      	movs	r1, #56	@ 0x38
 8001c8e:	2010      	movs	r0, #16
 8001c90:	f001 f9a6 	bl	8002fe0 <ssd1306_SetCursor>
	sprintf(msg, "TimeSet");
 8001c94:	4b1d      	ldr	r3, [pc, #116]	@ (8001d0c <ssd1306_PumpView+0x158>)
 8001c96:	e893 0003 	ldmia.w	r3, {r0, r1}
 8001c9a:	e884 0003 	stmia.w	r4, {r0, r1}
	ssd1306_WriteString(msg, Font_6x8, White);
 8001c9e:	2301      	movs	r3, #1
 8001ca0:	e895 0006 	ldmia.w	r5, {r1, r2}
 8001ca4:	4620      	mov	r0, r4
 8001ca6:	f001 f981 	bl	8002fac <ssd1306_WriteString>
	ssd1306_SetCursor(64, 56);
 8001caa:	2138      	movs	r1, #56	@ 0x38
 8001cac:	2040      	movs	r0, #64	@ 0x40
 8001cae:	f001 f997 	bl	8002fe0 <ssd1306_SetCursor>
	sprintf(msg, " \\/");
 8001cb2:	4b17      	ldr	r3, [pc, #92]	@ (8001d10 <ssd1306_PumpView+0x15c>)
 8001cb4:	9301      	str	r3, [sp, #4]
	ssd1306_WriteString(msg, Font_6x8, White);
 8001cb6:	2301      	movs	r3, #1
 8001cb8:	e895 0006 	ldmia.w	r5, {r1, r2}
 8001cbc:	4620      	mov	r0, r4
 8001cbe:	f001 f975 	bl	8002fac <ssd1306_WriteString>
	ssd1306_SetCursor(96, 56);
 8001cc2:	2138      	movs	r1, #56	@ 0x38
 8001cc4:	2060      	movs	r0, #96	@ 0x60
 8001cc6:	f001 f98b 	bl	8002fe0 <ssd1306_SetCursor>
	sprintf(msg, " /\\");
 8001cca:	4b12      	ldr	r3, [pc, #72]	@ (8001d14 <ssd1306_PumpView+0x160>)
 8001ccc:	9301      	str	r3, [sp, #4]
	ssd1306_WriteString(msg, Font_6x8, White);
 8001cce:	2301      	movs	r3, #1
 8001cd0:	e895 0006 	ldmia.w	r5, {r1, r2}
 8001cd4:	4620      	mov	r0, r4
 8001cd6:	f001 f969 	bl	8002fac <ssd1306_WriteString>
	ssd1306_UpdateScreen();
 8001cda:	f001 f857 	bl	8002d8c <ssd1306_UpdateScreen>
}
 8001cde:	b01a      	add	sp, #104	@ 0x68
 8001ce0:	bd70      	pop	{r4, r5, r6, pc}
 8001ce2:	bf00      	nop
 8001ce4:	0800ac8c 	.word	0x0800ac8c
 8001ce8:	200000e4 	.word	0x200000e4
 8001cec:	20000398 	.word	0x20000398
 8001cf0:	0800ace8 	.word	0x0800ace8
 8001cf4:	0800acf0 	.word	0x0800acf0
 8001cf8:	200000e2 	.word	0x200000e2
 8001cfc:	0800acf8 	.word	0x0800acf8
 8001d00:	0058414d 	.word	0x0058414d
 8001d04:	200000f4 	.word	0x200000f4
 8001d08:	00303237 	.word	0x00303237
 8001d0c:	0800ad00 	.word	0x0800ad00
 8001d10:	002f5c20 	.word	0x002f5c20
 8001d14:	005c2f20 	.word	0x005c2f20

08001d18 <ssd1306_BuzzerView>:

void ssd1306_BuzzerView(){
 8001d18:	b510      	push	{r4, lr}
 8001d1a:	b09a      	sub	sp, #104	@ 0x68
	uint8_t msg[100];
	ssd1306_Fill(Black);
 8001d1c:	2000      	movs	r0, #0
 8001d1e:	f001 f827 	bl	8002d70 <ssd1306_Fill>
	ssd1306_SetCursor(0, 0);
 8001d22:	2100      	movs	r1, #0
 8001d24:	4608      	mov	r0, r1
 8001d26:	f001 f95b 	bl	8002fe0 <ssd1306_SetCursor>
	sprintf(msg, "BUZZER");
 8001d2a:	4b37      	ldr	r3, [pc, #220]	@ (8001e08 <ssd1306_BuzzerView+0xf0>)
 8001d2c:	e893 0003 	ldmia.w	r3, {r0, r1}
 8001d30:	9001      	str	r0, [sp, #4]
 8001d32:	f8ad 1008 	strh.w	r1, [sp, #8]
 8001d36:	0c09      	lsrs	r1, r1, #16
 8001d38:	f88d 100a 	strb.w	r1, [sp, #10]
	ssd1306_WriteString(msg, Font_11x18, White);
 8001d3c:	4c33      	ldr	r4, [pc, #204]	@ (8001e0c <ssd1306_BuzzerView+0xf4>)
 8001d3e:	2301      	movs	r3, #1
 8001d40:	e894 0006 	ldmia.w	r4, {r1, r2}
 8001d44:	a801      	add	r0, sp, #4
 8001d46:	f001 f931 	bl	8002fac <ssd1306_WriteString>
	ssd1306_SetCursor(0, 18);
 8001d4a:	2112      	movs	r1, #18
 8001d4c:	2000      	movs	r0, #0
 8001d4e:	f001 f947 	bl	8002fe0 <ssd1306_SetCursor>
	sprintf(msg, "FREQ:%d\r\n",buzzer.frequency );
 8001d52:	4b2f      	ldr	r3, [pc, #188]	@ (8001e10 <ssd1306_BuzzerView+0xf8>)
 8001d54:	689a      	ldr	r2, [r3, #8]
 8001d56:	492f      	ldr	r1, [pc, #188]	@ (8001e14 <ssd1306_BuzzerView+0xfc>)
 8001d58:	a801      	add	r0, sp, #4
 8001d5a:	f005 fa7d 	bl	8007258 <siprintf>
	ssd1306_WriteString(msg, Font_11x18, White);
 8001d5e:	2301      	movs	r3, #1
 8001d60:	e894 0006 	ldmia.w	r4, {r1, r2}
 8001d64:	a801      	add	r0, sp, #4
 8001d66:	f001 f921 	bl	8002fac <ssd1306_WriteString>
	ssd1306_SetCursor(0, 36);
 8001d6a:	2124      	movs	r1, #36	@ 0x24
 8001d6c:	2000      	movs	r0, #0
 8001d6e:	f001 f937 	bl	8002fe0 <ssd1306_SetCursor>
    sprintf(msg, "MUTE: %s\r\n", FLAG_MUTE ? "ON" : "OFF");
 8001d72:	4b29      	ldr	r3, [pc, #164]	@ (8001e18 <ssd1306_BuzzerView+0x100>)
 8001d74:	7819      	ldrb	r1, [r3, #0]
 8001d76:	4a29      	ldr	r2, [pc, #164]	@ (8001e1c <ssd1306_BuzzerView+0x104>)
 8001d78:	4b29      	ldr	r3, [pc, #164]	@ (8001e20 <ssd1306_BuzzerView+0x108>)
 8001d7a:	2900      	cmp	r1, #0
 8001d7c:	bf18      	it	ne
 8001d7e:	461a      	movne	r2, r3
 8001d80:	4928      	ldr	r1, [pc, #160]	@ (8001e24 <ssd1306_BuzzerView+0x10c>)
 8001d82:	a801      	add	r0, sp, #4
 8001d84:	f005 fa68 	bl	8007258 <siprintf>
    ssd1306_WriteString(msg, Font_11x18, White);
 8001d88:	2301      	movs	r3, #1
 8001d8a:	e9d4 1200 	ldrd	r1, r2, [r4]
 8001d8e:	a801      	add	r0, sp, #4
 8001d90:	f001 f90c 	bl	8002fac <ssd1306_WriteString>
	ssd1306_SetCursor(0 , 56);
 8001d94:	2138      	movs	r1, #56	@ 0x38
 8001d96:	2000      	movs	r0, #0
 8001d98:	f001 f922 	bl	8002fe0 <ssd1306_SetCursor>
	sprintf(msg, "<");
 8001d9c:	233c      	movs	r3, #60	@ 0x3c
 8001d9e:	f8ad 3004 	strh.w	r3, [sp, #4]
	ssd1306_WriteString(msg, Font_6x8, White);
 8001da2:	4c21      	ldr	r4, [pc, #132]	@ (8001e28 <ssd1306_BuzzerView+0x110>)
 8001da4:	2301      	movs	r3, #1
 8001da6:	e894 0006 	ldmia.w	r4, {r1, r2}
 8001daa:	a801      	add	r0, sp, #4
 8001dac:	f001 f8fe 	bl	8002fac <ssd1306_WriteString>
	ssd1306_SetCursor(24, 56);
 8001db0:	2138      	movs	r1, #56	@ 0x38
 8001db2:	2018      	movs	r0, #24
 8001db4:	f001 f914 	bl	8002fe0 <ssd1306_SetCursor>
	sprintf(msg, "MUTE");
 8001db8:	4b1c      	ldr	r3, [pc, #112]	@ (8001e2c <ssd1306_BuzzerView+0x114>)
 8001dba:	e893 0003 	ldmia.w	r3, {r0, r1}
 8001dbe:	9001      	str	r0, [sp, #4]
 8001dc0:	f88d 1008 	strb.w	r1, [sp, #8]
	ssd1306_WriteString(msg, Font_6x8, White);
 8001dc4:	2301      	movs	r3, #1
 8001dc6:	e894 0006 	ldmia.w	r4, {r1, r2}
 8001dca:	a801      	add	r0, sp, #4
 8001dcc:	f001 f8ee 	bl	8002fac <ssd1306_WriteString>
	ssd1306_SetCursor(64, 56);
 8001dd0:	2138      	movs	r1, #56	@ 0x38
 8001dd2:	2040      	movs	r0, #64	@ 0x40
 8001dd4:	f001 f904 	bl	8002fe0 <ssd1306_SetCursor>
	sprintf(msg, " \\/");
 8001dd8:	4b15      	ldr	r3, [pc, #84]	@ (8001e30 <ssd1306_BuzzerView+0x118>)
 8001dda:	9301      	str	r3, [sp, #4]
	ssd1306_WriteString(msg, Font_6x8, White);
 8001ddc:	2301      	movs	r3, #1
 8001dde:	e894 0006 	ldmia.w	r4, {r1, r2}
 8001de2:	a801      	add	r0, sp, #4
 8001de4:	f001 f8e2 	bl	8002fac <ssd1306_WriteString>
	ssd1306_SetCursor(96, 56);
 8001de8:	2138      	movs	r1, #56	@ 0x38
 8001dea:	2060      	movs	r0, #96	@ 0x60
 8001dec:	f001 f8f8 	bl	8002fe0 <ssd1306_SetCursor>
	sprintf(msg, " /\\");
 8001df0:	4b10      	ldr	r3, [pc, #64]	@ (8001e34 <ssd1306_BuzzerView+0x11c>)
 8001df2:	9301      	str	r3, [sp, #4]
	ssd1306_WriteString(msg, Font_6x8, White);
 8001df4:	2301      	movs	r3, #1
 8001df6:	e894 0006 	ldmia.w	r4, {r1, r2}
 8001dfa:	a801      	add	r0, sp, #4
 8001dfc:	f001 f8d6 	bl	8002fac <ssd1306_WriteString>
	ssd1306_UpdateScreen();
 8001e00:	f000 ffc4 	bl	8002d8c <ssd1306_UpdateScreen>
}
 8001e04:	b01a      	add	sp, #104	@ 0x68
 8001e06:	bd10      	pop	{r4, pc}
 8001e08:	0800ad10 	.word	0x0800ad10
 8001e0c:	200000e4 	.word	0x200000e4
 8001e10:	200000ac 	.word	0x200000ac
 8001e14:	0800ad18 	.word	0x0800ad18
 8001e18:	200000e0 	.word	0x200000e0
 8001e1c:	0800ad0c 	.word	0x0800ad0c
 8001e20:	0800ad08 	.word	0x0800ad08
 8001e24:	0800ad24 	.word	0x0800ad24
 8001e28:	200000f4 	.word	0x200000f4
 8001e2c:	0800ad30 	.word	0x0800ad30
 8001e30:	002f5c20 	.word	0x002f5c20
 8001e34:	005c2f20 	.word	0x005c2f20

08001e38 <ssd1306_ConfigView>:

ssd1306_ConfigView(){
 8001e38:	b570      	push	{r4, r5, r6, lr}
 8001e3a:	b09c      	sub	sp, #112	@ 0x70
	uint8_t msg[100];
	ssd1306_Fill(Black);
 8001e3c:	2000      	movs	r0, #0
 8001e3e:	f000 ff97 	bl	8002d70 <ssd1306_Fill>
	ssd1306_SetCursor(0, 0);
 8001e42:	2100      	movs	r1, #0
 8001e44:	4608      	mov	r0, r1
 8001e46:	f001 f8cb 	bl	8002fe0 <ssd1306_SetCursor>
	sprintf(msg, "CONFIG");
 8001e4a:	4b4d      	ldr	r3, [pc, #308]	@ (8001f80 <ssd1306_ConfigView+0x148>)
 8001e4c:	e893 0003 	ldmia.w	r3, {r0, r1}
 8001e50:	9003      	str	r0, [sp, #12]
 8001e52:	f8ad 1010 	strh.w	r1, [sp, #16]
 8001e56:	0c09      	lsrs	r1, r1, #16
 8001e58:	f88d 1012 	strb.w	r1, [sp, #18]
	ssd1306_WriteString(msg, Font_11x18, White);
 8001e5c:	4a49      	ldr	r2, [pc, #292]	@ (8001f84 <ssd1306_ConfigView+0x14c>)
 8001e5e:	2301      	movs	r3, #1
 8001e60:	ca06      	ldmia	r2, {r1, r2}
 8001e62:	a803      	add	r0, sp, #12
 8001e64:	f001 f8a2 	bl	8002fac <ssd1306_WriteString>
	ssd1306_SetCursor(0, 18);
 8001e68:	2112      	movs	r1, #18
 8001e6a:	2000      	movs	r0, #0
 8001e6c:	f001 f8b8 	bl	8002fe0 <ssd1306_SetCursor>
	sprintf(msg, "RUN TIME");
 8001e70:	4a45      	ldr	r2, [pc, #276]	@ (8001f88 <ssd1306_ConfigView+0x150>)
 8001e72:	ab03      	add	r3, sp, #12
 8001e74:	ca07      	ldmia	r2, {r0, r1, r2}
 8001e76:	c303      	stmia	r3!, {r0, r1}
 8001e78:	701a      	strb	r2, [r3, #0]
	ssd1306_WriteString(msg, Font_6x8, White);
 8001e7a:	4c44      	ldr	r4, [pc, #272]	@ (8001f8c <ssd1306_ConfigView+0x154>)
 8001e7c:	2301      	movs	r3, #1
 8001e7e:	e894 0006 	ldmia.w	r4, {r1, r2}
 8001e82:	a803      	add	r0, sp, #12
 8001e84:	f001 f892 	bl	8002fac <ssd1306_WriteString>
	ssd1306_SetCursor(0, 26);
 8001e88:	211a      	movs	r1, #26
 8001e8a:	2000      	movs	r0, #0
 8001e8c:	f001 f8a8 	bl	8002fe0 <ssd1306_SetCursor>
	sprintf(msg, "%02u:%02u:%02u", Time.hours, Time.minutes, Time.seconds);
 8001e90:	4a3f      	ldr	r2, [pc, #252]	@ (8001f90 <ssd1306_ConfigView+0x158>)
 8001e92:	4e40      	ldr	r6, [pc, #256]	@ (8001f94 <ssd1306_ConfigView+0x15c>)
 8001e94:	6893      	ldr	r3, [r2, #8]
 8001e96:	9300      	str	r3, [sp, #0]
 8001e98:	6853      	ldr	r3, [r2, #4]
 8001e9a:	6812      	ldr	r2, [r2, #0]
 8001e9c:	4631      	mov	r1, r6
 8001e9e:	a803      	add	r0, sp, #12
 8001ea0:	f005 f9da 	bl	8007258 <siprintf>
	ssd1306_WriteString(msg, Font_7x10, White);
 8001ea4:	4d3c      	ldr	r5, [pc, #240]	@ (8001f98 <ssd1306_ConfigView+0x160>)
 8001ea6:	2301      	movs	r3, #1
 8001ea8:	e895 0006 	ldmia.w	r5, {r1, r2}
 8001eac:	a803      	add	r0, sp, #12
 8001eae:	f001 f87d 	bl	8002fac <ssd1306_WriteString>
	ssd1306_SetCursor(0, 36);
 8001eb2:	2124      	movs	r1, #36	@ 0x24
 8001eb4:	2000      	movs	r0, #0
 8001eb6:	f001 f893 	bl	8002fe0 <ssd1306_SetCursor>
	sprintf(msg, "SET TIME");
 8001eba:	4a38      	ldr	r2, [pc, #224]	@ (8001f9c <ssd1306_ConfigView+0x164>)
 8001ebc:	ab03      	add	r3, sp, #12
 8001ebe:	ca07      	ldmia	r2, {r0, r1, r2}
 8001ec0:	c303      	stmia	r3!, {r0, r1}
 8001ec2:	701a      	strb	r2, [r3, #0]
	ssd1306_WriteString(msg, Font_6x8, White);
 8001ec4:	2301      	movs	r3, #1
 8001ec6:	e894 0006 	ldmia.w	r4, {r1, r2}
 8001eca:	a803      	add	r0, sp, #12
 8001ecc:	f001 f86e 	bl	8002fac <ssd1306_WriteString>
	ssd1306_SetCursor(0, 44);
 8001ed0:	212c      	movs	r1, #44	@ 0x2c
 8001ed2:	2000      	movs	r0, #0
 8001ed4:	f001 f884 	bl	8002fe0 <ssd1306_SetCursor>
	sprintf(msg, "%02u:%02u:%02u", ALARM_Time.hours, ALARM_Time.minutes, ALARM_Time.seconds);
 8001ed8:	4a31      	ldr	r2, [pc, #196]	@ (8001fa0 <ssd1306_ConfigView+0x168>)
 8001eda:	6893      	ldr	r3, [r2, #8]
 8001edc:	9300      	str	r3, [sp, #0]
 8001ede:	6853      	ldr	r3, [r2, #4]
 8001ee0:	6812      	ldr	r2, [r2, #0]
 8001ee2:	4631      	mov	r1, r6
 8001ee4:	a803      	add	r0, sp, #12
 8001ee6:	f005 f9b7 	bl	8007258 <siprintf>
	ssd1306_WriteString(msg, Font_7x10, White);
 8001eea:	2301      	movs	r3, #1
 8001eec:	e895 0006 	ldmia.w	r5, {r1, r2}
 8001ef0:	a803      	add	r0, sp, #12
 8001ef2:	f001 f85b 	bl	8002fac <ssd1306_WriteString>

	ssd1306_SetCursor(0, 56);
 8001ef6:	2138      	movs	r1, #56	@ 0x38
 8001ef8:	2000      	movs	r0, #0
 8001efa:	f001 f871 	bl	8002fe0 <ssd1306_SetCursor>
	sprintf(msg, "<");
 8001efe:	233c      	movs	r3, #60	@ 0x3c
 8001f00:	f8ad 300c 	strh.w	r3, [sp, #12]
	ssd1306_WriteString(msg, Font_6x8, White);
 8001f04:	2301      	movs	r3, #1
 8001f06:	e894 0006 	ldmia.w	r4, {r1, r2}
 8001f0a:	a803      	add	r0, sp, #12
 8001f0c:	f001 f84e 	bl	8002fac <ssd1306_WriteString>
	ssd1306_SetCursor(32, 56);
 8001f10:	2138      	movs	r1, #56	@ 0x38
 8001f12:	2020      	movs	r0, #32
 8001f14:	f001 f864 	bl	8002fe0 <ssd1306_SetCursor>
	sprintf(msg, "+h");
 8001f18:	4b22      	ldr	r3, [pc, #136]	@ (8001fa4 <ssd1306_ConfigView+0x16c>)
 8001f1a:	681b      	ldr	r3, [r3, #0]
 8001f1c:	f8ad 300c 	strh.w	r3, [sp, #12]
 8001f20:	0c1b      	lsrs	r3, r3, #16
 8001f22:	f88d 300e 	strb.w	r3, [sp, #14]
	ssd1306_WriteString(msg, Font_6x8, White);
 8001f26:	2301      	movs	r3, #1
 8001f28:	e894 0006 	ldmia.w	r4, {r1, r2}
 8001f2c:	a803      	add	r0, sp, #12
 8001f2e:	f001 f83d 	bl	8002fac <ssd1306_WriteString>
	ssd1306_SetCursor(64, 56);
 8001f32:	2138      	movs	r1, #56	@ 0x38
 8001f34:	2040      	movs	r0, #64	@ 0x40
 8001f36:	f001 f853 	bl	8002fe0 <ssd1306_SetCursor>
	sprintf(msg, "+m");
 8001f3a:	4b1b      	ldr	r3, [pc, #108]	@ (8001fa8 <ssd1306_ConfigView+0x170>)
 8001f3c:	681b      	ldr	r3, [r3, #0]
 8001f3e:	f8ad 300c 	strh.w	r3, [sp, #12]
 8001f42:	0c1b      	lsrs	r3, r3, #16
 8001f44:	f88d 300e 	strb.w	r3, [sp, #14]
	ssd1306_WriteString(msg, Font_6x8, White);
 8001f48:	2301      	movs	r3, #1
 8001f4a:	e894 0006 	ldmia.w	r4, {r1, r2}
 8001f4e:	a803      	add	r0, sp, #12
 8001f50:	f001 f82c 	bl	8002fac <ssd1306_WriteString>
	ssd1306_SetCursor(96, 56);
 8001f54:	2138      	movs	r1, #56	@ 0x38
 8001f56:	2060      	movs	r0, #96	@ 0x60
 8001f58:	f001 f842 	bl	8002fe0 <ssd1306_SetCursor>
	sprintf(msg, "+s");
 8001f5c:	4b13      	ldr	r3, [pc, #76]	@ (8001fac <ssd1306_ConfigView+0x174>)
 8001f5e:	681b      	ldr	r3, [r3, #0]
 8001f60:	f8ad 300c 	strh.w	r3, [sp, #12]
 8001f64:	0c1b      	lsrs	r3, r3, #16
 8001f66:	f88d 300e 	strb.w	r3, [sp, #14]
	ssd1306_WriteString(msg, Font_6x8, White);
 8001f6a:	2301      	movs	r3, #1
 8001f6c:	e894 0006 	ldmia.w	r4, {r1, r2}
 8001f70:	a803      	add	r0, sp, #12
 8001f72:	f001 f81b 	bl	8002fac <ssd1306_WriteString>
	ssd1306_UpdateScreen();
 8001f76:	f000 ff09 	bl	8002d8c <ssd1306_UpdateScreen>
}
 8001f7a:	b01c      	add	sp, #112	@ 0x70
 8001f7c:	bd70      	pop	{r4, r5, r6, pc}
 8001f7e:	bf00      	nop
 8001f80:	0800ad38 	.word	0x0800ad38
 8001f84:	200000e4 	.word	0x200000e4
 8001f88:	0800ac70 	.word	0x0800ac70
 8001f8c:	200000f4 	.word	0x200000f4
 8001f90:	20000304 	.word	0x20000304
 8001f94:	0800ac7c 	.word	0x0800ac7c
 8001f98:	200000ec 	.word	0x200000ec
 8001f9c:	0800ad40 	.word	0x0800ad40
 8001fa0:	200002f8 	.word	0x200002f8
 8001fa4:	0800ad4c 	.word	0x0800ad4c
 8001fa8:	0800ad50 	.word	0x0800ad50
 8001fac:	0800ad54 	.word	0x0800ad54

08001fb0 <KeyHandeler_IndexView>:


void KeyHandeler_WelcomeView(){

}
void KeyHandeler_IndexView(){
 8001fb0:	b508      	push	{r3, lr}
	if (FLAG_SentKEY0) {
 8001fb2:	4b1a      	ldr	r3, [pc, #104]	@ (800201c <KeyHandeler_IndexView+0x6c>)
 8001fb4:	781b      	ldrb	r3, [r3, #0]
 8001fb6:	b993      	cbnz	r3, 8001fde <KeyHandeler_IndexView+0x2e>
		CurrentView=V_NETWORK;
		HAL_Delay(200);
		FLAG_SentKEY0=0;
	}else
	if (FLAG_SentKEY1) {
 8001fb8:	4b19      	ldr	r3, [pc, #100]	@ (8002020 <KeyHandeler_IndexView+0x70>)
 8001fba:	781b      	ldrb	r3, [r3, #0]
 8001fbc:	b9cb      	cbnz	r3, 8001ff2 <KeyHandeler_IndexView+0x42>
		CurrentView=V_BUZZER;
		HAL_Delay(200);
		FLAG_SentKEY1=0;
	}else
	if (FLAG_SentKEY2) {
 8001fbe:	4b19      	ldr	r3, [pc, #100]	@ (8002024 <KeyHandeler_IndexView+0x74>)
 8001fc0:	781b      	ldrb	r3, [r3, #0]
 8001fc2:	bb03      	cbnz	r3, 8002006 <KeyHandeler_IndexView+0x56>
		CurrentView=V_PUMP;
		HAL_Delay(200);
		FLAG_SentKEY2=0;
	}else
	if (FLAG_SentKEY3) {
 8001fc4:	4b18      	ldr	r3, [pc, #96]	@ (8002028 <KeyHandeler_IndexView+0x78>)
 8001fc6:	781b      	ldrb	r3, [r3, #0]
 8001fc8:	b193      	cbz	r3, 8001ff0 <KeyHandeler_IndexView+0x40>
		CurrentView=V_SENSOR;
 8001fca:	4b18      	ldr	r3, [pc, #96]	@ (800202c <KeyHandeler_IndexView+0x7c>)
 8001fcc:	2203      	movs	r2, #3
 8001fce:	701a      	strb	r2, [r3, #0]
		HAL_Delay(200);
 8001fd0:	20c8      	movs	r0, #200	@ 0xc8
 8001fd2:	f001 fb8b 	bl	80036ec <HAL_Delay>
		FLAG_SentKEY3=0;
 8001fd6:	4b14      	ldr	r3, [pc, #80]	@ (8002028 <KeyHandeler_IndexView+0x78>)
 8001fd8:	2200      	movs	r2, #0
 8001fda:	701a      	strb	r2, [r3, #0]
	}
}
 8001fdc:	e008      	b.n	8001ff0 <KeyHandeler_IndexView+0x40>
		CurrentView=V_NETWORK;
 8001fde:	4b13      	ldr	r3, [pc, #76]	@ (800202c <KeyHandeler_IndexView+0x7c>)
 8001fe0:	2202      	movs	r2, #2
 8001fe2:	701a      	strb	r2, [r3, #0]
		HAL_Delay(200);
 8001fe4:	20c8      	movs	r0, #200	@ 0xc8
 8001fe6:	f001 fb81 	bl	80036ec <HAL_Delay>
		FLAG_SentKEY0=0;
 8001fea:	4b0c      	ldr	r3, [pc, #48]	@ (800201c <KeyHandeler_IndexView+0x6c>)
 8001fec:	2200      	movs	r2, #0
 8001fee:	701a      	strb	r2, [r3, #0]
}
 8001ff0:	bd08      	pop	{r3, pc}
		CurrentView=V_BUZZER;
 8001ff2:	4b0e      	ldr	r3, [pc, #56]	@ (800202c <KeyHandeler_IndexView+0x7c>)
 8001ff4:	2205      	movs	r2, #5
 8001ff6:	701a      	strb	r2, [r3, #0]
		HAL_Delay(200);
 8001ff8:	20c8      	movs	r0, #200	@ 0xc8
 8001ffa:	f001 fb77 	bl	80036ec <HAL_Delay>
		FLAG_SentKEY1=0;
 8001ffe:	4b08      	ldr	r3, [pc, #32]	@ (8002020 <KeyHandeler_IndexView+0x70>)
 8002000:	2200      	movs	r2, #0
 8002002:	701a      	strb	r2, [r3, #0]
 8002004:	e7f4      	b.n	8001ff0 <KeyHandeler_IndexView+0x40>
		CurrentView=V_PUMP;
 8002006:	4b09      	ldr	r3, [pc, #36]	@ (800202c <KeyHandeler_IndexView+0x7c>)
 8002008:	2204      	movs	r2, #4
 800200a:	701a      	strb	r2, [r3, #0]
		HAL_Delay(200);
 800200c:	20c8      	movs	r0, #200	@ 0xc8
 800200e:	f001 fb6d 	bl	80036ec <HAL_Delay>
		FLAG_SentKEY2=0;
 8002012:	4b04      	ldr	r3, [pc, #16]	@ (8002024 <KeyHandeler_IndexView+0x74>)
 8002014:	2200      	movs	r2, #0
 8002016:	701a      	strb	r2, [r3, #0]
 8002018:	e7ea      	b.n	8001ff0 <KeyHandeler_IndexView+0x40>
 800201a:	bf00      	nop
 800201c:	200002f5 	.word	0x200002f5
 8002020:	200002f4 	.word	0x200002f4
 8002024:	200002f3 	.word	0x200002f3
 8002028:	200002f2 	.word	0x200002f2
 800202c:	200000a8 	.word	0x200000a8

08002030 <KeyHandeler_NetWorkView>:

void KeyHandeler_NetWorkView(){
 8002030:	b508      	push	{r3, lr}
	if (FLAG_SentKEY0) {
 8002032:	4b1d      	ldr	r3, [pc, #116]	@ (80020a8 <KeyHandeler_NetWorkView+0x78>)
 8002034:	781b      	ldrb	r3, [r3, #0]
 8002036:	b993      	cbnz	r3, 800205e <KeyHandeler_NetWorkView+0x2e>
		ssd1306_NoticeView("RESET_SERVER");
		ESP_RESET_SERVER();
		HAL_Delay(200);
		FLAG_SentKEY0=0;
	}else
	if (FLAG_SentKEY1) {
 8002038:	4b1c      	ldr	r3, [pc, #112]	@ (80020ac <KeyHandeler_NetWorkView+0x7c>)
 800203a:	781b      	ldrb	r3, [r3, #0]
 800203c:	b9db      	cbnz	r3, 8002076 <KeyHandeler_NetWorkView+0x46>
		ssd1306_NoticeView("INIT_BASE");
		ESP_INIT_BASE();
		HAL_Delay(200);
		FLAG_SentKEY1=0;
	}else
	if (FLAG_SentKEY2) {
 800203e:	4b1c      	ldr	r3, [pc, #112]	@ (80020b0 <KeyHandeler_NetWorkView+0x80>)
 8002040:	781b      	ldrb	r3, [r3, #0]
 8002042:	bb23      	cbnz	r3, 800208e <KeyHandeler_NetWorkView+0x5e>
		ssd1306_NoticeView("INIT_FULL");
		ESP_INIT_FULL();
		HAL_Delay(200);
		FLAG_SentKEY2=0;
	}else
	if (FLAG_SentKEY3) {
 8002044:	4b1b      	ldr	r3, [pc, #108]	@ (80020b4 <KeyHandeler_NetWorkView+0x84>)
 8002046:	781b      	ldrb	r3, [r3, #0]
 8002048:	b1a3      	cbz	r3, 8002074 <KeyHandeler_NetWorkView+0x44>
		CurrentView=V_INDEX;
 800204a:	4b1b      	ldr	r3, [pc, #108]	@ (80020b8 <KeyHandeler_NetWorkView+0x88>)
 800204c:	2201      	movs	r2, #1
 800204e:	701a      	strb	r2, [r3, #0]
		HAL_Delay(200);
 8002050:	20c8      	movs	r0, #200	@ 0xc8
 8002052:	f001 fb4b 	bl	80036ec <HAL_Delay>
		FLAG_SentKEY3=0;
 8002056:	4b17      	ldr	r3, [pc, #92]	@ (80020b4 <KeyHandeler_NetWorkView+0x84>)
 8002058:	2200      	movs	r2, #0
 800205a:	701a      	strb	r2, [r3, #0]
	}
}
 800205c:	e00a      	b.n	8002074 <KeyHandeler_NetWorkView+0x44>
		ssd1306_NoticeView("RESET_SERVER");
 800205e:	4817      	ldr	r0, [pc, #92]	@ (80020bc <KeyHandeler_NetWorkView+0x8c>)
 8002060:	f7ff fb0a 	bl	8001678 <ssd1306_NoticeView>
		ESP_RESET_SERVER();
 8002064:	f7ff f928 	bl	80012b8 <ESP_RESET_SERVER>
		HAL_Delay(200);
 8002068:	20c8      	movs	r0, #200	@ 0xc8
 800206a:	f001 fb3f 	bl	80036ec <HAL_Delay>
		FLAG_SentKEY0=0;
 800206e:	4b0e      	ldr	r3, [pc, #56]	@ (80020a8 <KeyHandeler_NetWorkView+0x78>)
 8002070:	2200      	movs	r2, #0
 8002072:	701a      	strb	r2, [r3, #0]
}
 8002074:	bd08      	pop	{r3, pc}
		ssd1306_NoticeView("INIT_BASE");
 8002076:	4812      	ldr	r0, [pc, #72]	@ (80020c0 <KeyHandeler_NetWorkView+0x90>)
 8002078:	f7ff fafe 	bl	8001678 <ssd1306_NoticeView>
		ESP_INIT_BASE();
 800207c:	f7ff f988 	bl	8001390 <ESP_INIT_BASE>
		HAL_Delay(200);
 8002080:	20c8      	movs	r0, #200	@ 0xc8
 8002082:	f001 fb33 	bl	80036ec <HAL_Delay>
		FLAG_SentKEY1=0;
 8002086:	4b09      	ldr	r3, [pc, #36]	@ (80020ac <KeyHandeler_NetWorkView+0x7c>)
 8002088:	2200      	movs	r2, #0
 800208a:	701a      	strb	r2, [r3, #0]
 800208c:	e7f2      	b.n	8002074 <KeyHandeler_NetWorkView+0x44>
		ssd1306_NoticeView("INIT_FULL");
 800208e:	480d      	ldr	r0, [pc, #52]	@ (80020c4 <KeyHandeler_NetWorkView+0x94>)
 8002090:	f7ff faf2 	bl	8001678 <ssd1306_NoticeView>
		ESP_INIT_FULL();
 8002094:	f7ff f936 	bl	8001304 <ESP_INIT_FULL>
		HAL_Delay(200);
 8002098:	20c8      	movs	r0, #200	@ 0xc8
 800209a:	f001 fb27 	bl	80036ec <HAL_Delay>
		FLAG_SentKEY2=0;
 800209e:	4b04      	ldr	r3, [pc, #16]	@ (80020b0 <KeyHandeler_NetWorkView+0x80>)
 80020a0:	2200      	movs	r2, #0
 80020a2:	701a      	strb	r2, [r3, #0]
 80020a4:	e7e6      	b.n	8002074 <KeyHandeler_NetWorkView+0x44>
 80020a6:	bf00      	nop
 80020a8:	200002f5 	.word	0x200002f5
 80020ac:	200002f4 	.word	0x200002f4
 80020b0:	200002f3 	.word	0x200002f3
 80020b4:	200002f2 	.word	0x200002f2
 80020b8:	200000a8 	.word	0x200000a8
 80020bc:	0800ad58 	.word	0x0800ad58
 80020c0:	0800ad68 	.word	0x0800ad68
 80020c4:	0800ad74 	.word	0x0800ad74

080020c8 <KeyHandeler_SensorView>:
void KeyHandeler_SensorView(){
 80020c8:	b510      	push	{r4, lr}
	if (FLAG_SentKEY0) {
 80020ca:	4b43      	ldr	r3, [pc, #268]	@ (80021d8 <KeyHandeler_SensorView+0x110>)
 80020cc:	781b      	ldrb	r3, [r3, #0]
 80020ce:	2b00      	cmp	r3, #0
 80020d0:	d02d      	beq.n	800212e <KeyHandeler_SensorView+0x66>
		switch (FLAG_NowSettingVal) {
 80020d2:	4b42      	ldr	r3, [pc, #264]	@ (80021dc <KeyHandeler_SensorView+0x114>)
 80020d4:	781b      	ldrb	r3, [r3, #0]
 80020d6:	2b03      	cmp	r3, #3
 80020d8:	d80a      	bhi.n	80020f0 <KeyHandeler_SensorView+0x28>
 80020da:	e8df f003 	tbb	[pc, r3]
 80020de:	1002      	.short	0x1002
 80020e0:	2018      	.short	0x2018
			case 0:
				DHT11_Alarm_H.temp++;
 80020e2:	4c3f      	ldr	r4, [pc, #252]	@ (80021e0 <KeyHandeler_SensorView+0x118>)
 80020e4:	f04f 517e 	mov.w	r1, #1065353216	@ 0x3f800000
 80020e8:	6860      	ldr	r0, [r4, #4]
 80020ea:	f7fe fdf7 	bl	8000cdc <__addsf3>
 80020ee:	6060      	str	r0, [r4, #4]
				DHT11_Alarm_L.hum++;
				break;
			default:
				break;
		}
		HAL_Delay(200);
 80020f0:	20c8      	movs	r0, #200	@ 0xc8
 80020f2:	f001 fafb 	bl	80036ec <HAL_Delay>
		FLAG_SentKEY0=0;
 80020f6:	4b38      	ldr	r3, [pc, #224]	@ (80021d8 <KeyHandeler_SensorView+0x110>)
 80020f8:	2200      	movs	r2, #0
 80020fa:	701a      	strb	r2, [r3, #0]
	if (FLAG_SentKEY3) {
		CurrentView=V_INDEX;
		HAL_Delay(200);
		FLAG_SentKEY3=0;
	}
}
 80020fc:	bd10      	pop	{r4, pc}
				DHT11_Alarm_L.temp++;
 80020fe:	4c39      	ldr	r4, [pc, #228]	@ (80021e4 <KeyHandeler_SensorView+0x11c>)
 8002100:	f04f 517e 	mov.w	r1, #1065353216	@ 0x3f800000
 8002104:	6860      	ldr	r0, [r4, #4]
 8002106:	f7fe fde9 	bl	8000cdc <__addsf3>
 800210a:	6060      	str	r0, [r4, #4]
				break;
 800210c:	e7f0      	b.n	80020f0 <KeyHandeler_SensorView+0x28>
				DHT11_Alarm_H.hum++;
 800210e:	4c34      	ldr	r4, [pc, #208]	@ (80021e0 <KeyHandeler_SensorView+0x118>)
 8002110:	f04f 517e 	mov.w	r1, #1065353216	@ 0x3f800000
 8002114:	6820      	ldr	r0, [r4, #0]
 8002116:	f7fe fde1 	bl	8000cdc <__addsf3>
 800211a:	6020      	str	r0, [r4, #0]
				break;
 800211c:	e7e8      	b.n	80020f0 <KeyHandeler_SensorView+0x28>
				DHT11_Alarm_L.hum++;
 800211e:	4c31      	ldr	r4, [pc, #196]	@ (80021e4 <KeyHandeler_SensorView+0x11c>)
 8002120:	f04f 517e 	mov.w	r1, #1065353216	@ 0x3f800000
 8002124:	6820      	ldr	r0, [r4, #0]
 8002126:	f7fe fdd9 	bl	8000cdc <__addsf3>
 800212a:	6020      	str	r0, [r4, #0]
				break;
 800212c:	e7e0      	b.n	80020f0 <KeyHandeler_SensorView+0x28>
	if (FLAG_SentKEY1) {
 800212e:	4b2e      	ldr	r3, [pc, #184]	@ (80021e8 <KeyHandeler_SensorView+0x120>)
 8002130:	781b      	ldrb	r3, [r3, #0]
 8002132:	f003 02ff 	and.w	r2, r3, #255	@ 0xff
 8002136:	2b00      	cmp	r3, #0
 8002138:	d02d      	beq.n	8002196 <KeyHandeler_SensorView+0xce>
		switch (FLAG_NowSettingVal) {
 800213a:	4b28      	ldr	r3, [pc, #160]	@ (80021dc <KeyHandeler_SensorView+0x114>)
 800213c:	781b      	ldrb	r3, [r3, #0]
 800213e:	2b03      	cmp	r3, #3
 8002140:	d80a      	bhi.n	8002158 <KeyHandeler_SensorView+0x90>
 8002142:	e8df f003 	tbb	[pc, r3]
 8002146:	1002      	.short	0x1002
 8002148:	2018      	.short	0x2018
				DHT11_Alarm_H.temp--;
 800214a:	4c25      	ldr	r4, [pc, #148]	@ (80021e0 <KeyHandeler_SensorView+0x118>)
 800214c:	f04f 517e 	mov.w	r1, #1065353216	@ 0x3f800000
 8002150:	6860      	ldr	r0, [r4, #4]
 8002152:	f7fe fdc1 	bl	8000cd8 <__aeabi_fsub>
 8002156:	6060      	str	r0, [r4, #4]
		HAL_Delay(200);
 8002158:	20c8      	movs	r0, #200	@ 0xc8
 800215a:	f001 fac7 	bl	80036ec <HAL_Delay>
		FLAG_SentKEY1=0;
 800215e:	4b22      	ldr	r3, [pc, #136]	@ (80021e8 <KeyHandeler_SensorView+0x120>)
 8002160:	2200      	movs	r2, #0
 8002162:	701a      	strb	r2, [r3, #0]
 8002164:	e7ca      	b.n	80020fc <KeyHandeler_SensorView+0x34>
				DHT11_Alarm_L.temp--;
 8002166:	4c1f      	ldr	r4, [pc, #124]	@ (80021e4 <KeyHandeler_SensorView+0x11c>)
 8002168:	f04f 517e 	mov.w	r1, #1065353216	@ 0x3f800000
 800216c:	6860      	ldr	r0, [r4, #4]
 800216e:	f7fe fdb3 	bl	8000cd8 <__aeabi_fsub>
 8002172:	6060      	str	r0, [r4, #4]
				break;
 8002174:	e7f0      	b.n	8002158 <KeyHandeler_SensorView+0x90>
				DHT11_Alarm_H.hum--;
 8002176:	4c1a      	ldr	r4, [pc, #104]	@ (80021e0 <KeyHandeler_SensorView+0x118>)
 8002178:	f04f 517e 	mov.w	r1, #1065353216	@ 0x3f800000
 800217c:	6820      	ldr	r0, [r4, #0]
 800217e:	f7fe fdab 	bl	8000cd8 <__aeabi_fsub>
 8002182:	6020      	str	r0, [r4, #0]
				break;
 8002184:	e7e8      	b.n	8002158 <KeyHandeler_SensorView+0x90>
				DHT11_Alarm_L.hum--;
 8002186:	4c17      	ldr	r4, [pc, #92]	@ (80021e4 <KeyHandeler_SensorView+0x11c>)
 8002188:	f04f 517e 	mov.w	r1, #1065353216	@ 0x3f800000
 800218c:	6820      	ldr	r0, [r4, #0]
 800218e:	f7fe fda3 	bl	8000cd8 <__aeabi_fsub>
 8002192:	6020      	str	r0, [r4, #0]
				break;
 8002194:	e7e0      	b.n	8002158 <KeyHandeler_SensorView+0x90>
	if (FLAG_SentKEY2) {
 8002196:	4b15      	ldr	r3, [pc, #84]	@ (80021ec <KeyHandeler_SensorView+0x124>)
 8002198:	781b      	ldrb	r3, [r3, #0]
 800219a:	b173      	cbz	r3, 80021ba <KeyHandeler_SensorView+0xf2>
		if (FLAG_NowSettingVal++>2) {
 800219c:	4b0f      	ldr	r3, [pc, #60]	@ (80021dc <KeyHandeler_SensorView+0x114>)
 800219e:	781b      	ldrb	r3, [r3, #0]
 80021a0:	2b02      	cmp	r3, #2
 80021a2:	bf9c      	itt	ls
 80021a4:	3301      	addls	r3, #1
 80021a6:	b2da      	uxtbls	r2, r3
 80021a8:	4b0c      	ldr	r3, [pc, #48]	@ (80021dc <KeyHandeler_SensorView+0x114>)
 80021aa:	701a      	strb	r2, [r3, #0]
		HAL_Delay(200);
 80021ac:	20c8      	movs	r0, #200	@ 0xc8
 80021ae:	f001 fa9d 	bl	80036ec <HAL_Delay>
		FLAG_SentKEY2=0;
 80021b2:	4b0e      	ldr	r3, [pc, #56]	@ (80021ec <KeyHandeler_SensorView+0x124>)
 80021b4:	2200      	movs	r2, #0
 80021b6:	701a      	strb	r2, [r3, #0]
 80021b8:	e7a0      	b.n	80020fc <KeyHandeler_SensorView+0x34>
	if (FLAG_SentKEY3) {
 80021ba:	4b0d      	ldr	r3, [pc, #52]	@ (80021f0 <KeyHandeler_SensorView+0x128>)
 80021bc:	781b      	ldrb	r3, [r3, #0]
 80021be:	2b00      	cmp	r3, #0
 80021c0:	d09c      	beq.n	80020fc <KeyHandeler_SensorView+0x34>
		CurrentView=V_INDEX;
 80021c2:	4b0c      	ldr	r3, [pc, #48]	@ (80021f4 <KeyHandeler_SensorView+0x12c>)
 80021c4:	2201      	movs	r2, #1
 80021c6:	701a      	strb	r2, [r3, #0]
		HAL_Delay(200);
 80021c8:	20c8      	movs	r0, #200	@ 0xc8
 80021ca:	f001 fa8f 	bl	80036ec <HAL_Delay>
		FLAG_SentKEY3=0;
 80021ce:	4b08      	ldr	r3, [pc, #32]	@ (80021f0 <KeyHandeler_SensorView+0x128>)
 80021d0:	2200      	movs	r2, #0
 80021d2:	701a      	strb	r2, [r3, #0]
}
 80021d4:	e792      	b.n	80020fc <KeyHandeler_SensorView+0x34>
 80021d6:	bf00      	nop
 80021d8:	200002f5 	.word	0x200002f5
 80021dc:	20000096 	.word	0x20000096
 80021e0:	200000d8 	.word	0x200000d8
 80021e4:	200000d0 	.word	0x200000d0
 80021e8:	200002f4 	.word	0x200002f4
 80021ec:	200002f3 	.word	0x200002f3
 80021f0:	200002f2 	.word	0x200002f2
 80021f4:	200000a8 	.word	0x200000a8

080021f8 <KeyHandeler_PumpView>:
void KeyHandeler_PumpView(){
 80021f8:	b508      	push	{r3, lr}
	if (FLAG_SentKEY0) {
 80021fa:	4b1f      	ldr	r3, [pc, #124]	@ (8002278 <KeyHandeler_PumpView+0x80>)
 80021fc:	781b      	ldrb	r3, [r3, #0]
 80021fe:	b993      	cbnz	r3, 8002226 <KeyHandeler_PumpView+0x2e>
		PUMP_PWM=PUMP_PWM+10;
	    __HAL_TIM_SET_COMPARE(&htim3, TIM_CHANNEL_1, PUMP_PWM);
		HAL_Delay(200);
		FLAG_SentKEY0=0;
	}else
	if (FLAG_SentKEY1) {
 8002200:	4b1e      	ldr	r3, [pc, #120]	@ (800227c <KeyHandeler_PumpView+0x84>)
 8002202:	781b      	ldrb	r3, [r3, #0]
 8002204:	b9f3      	cbnz	r3, 8002244 <KeyHandeler_PumpView+0x4c>
		PUMP_PWM=PUMP_PWM-10;
	    __HAL_TIM_SET_COMPARE(&htim3, TIM_CHANNEL_1, PUMP_PWM);
		HAL_Delay(200);
		FLAG_SentKEY1=0;
	}else
	if (FLAG_SentKEY2) {
 8002206:	4b1e      	ldr	r3, [pc, #120]	@ (8002280 <KeyHandeler_PumpView+0x88>)
 8002208:	781b      	ldrb	r3, [r3, #0]
 800220a:	bb53      	cbnz	r3, 8002262 <KeyHandeler_PumpView+0x6a>
		CurrentView=V_CONFIG;
		HAL_Delay(200);
		FLAG_SentKEY2=0;
	}else
	if (FLAG_SentKEY3) {
 800220c:	4b1d      	ldr	r3, [pc, #116]	@ (8002284 <KeyHandeler_PumpView+0x8c>)
 800220e:	781b      	ldrb	r3, [r3, #0]
 8002210:	b1bb      	cbz	r3, 8002242 <KeyHandeler_PumpView+0x4a>
		CurrentView=V_INDEX;
 8002212:	4b1d      	ldr	r3, [pc, #116]	@ (8002288 <KeyHandeler_PumpView+0x90>)
 8002214:	2201      	movs	r2, #1
 8002216:	701a      	strb	r2, [r3, #0]
		HAL_Delay(200);
 8002218:	20c8      	movs	r0, #200	@ 0xc8
 800221a:	f001 fa67 	bl	80036ec <HAL_Delay>
		FLAG_SentKEY3=0;
 800221e:	4b19      	ldr	r3, [pc, #100]	@ (8002284 <KeyHandeler_PumpView+0x8c>)
 8002220:	2200      	movs	r2, #0
 8002222:	701a      	strb	r2, [r3, #0]
	}
}
 8002224:	e00d      	b.n	8002242 <KeyHandeler_PumpView+0x4a>
		PUMP_PWM=PUMP_PWM+10;
 8002226:	4a19      	ldr	r2, [pc, #100]	@ (800228c <KeyHandeler_PumpView+0x94>)
 8002228:	8813      	ldrh	r3, [r2, #0]
 800222a:	330a      	adds	r3, #10
 800222c:	b29b      	uxth	r3, r3
 800222e:	8013      	strh	r3, [r2, #0]
	    __HAL_TIM_SET_COMPARE(&htim3, TIM_CHANNEL_1, PUMP_PWM);
 8002230:	4a17      	ldr	r2, [pc, #92]	@ (8002290 <KeyHandeler_PumpView+0x98>)
 8002232:	6812      	ldr	r2, [r2, #0]
 8002234:	6353      	str	r3, [r2, #52]	@ 0x34
		HAL_Delay(200);
 8002236:	20c8      	movs	r0, #200	@ 0xc8
 8002238:	f001 fa58 	bl	80036ec <HAL_Delay>
		FLAG_SentKEY0=0;
 800223c:	4b0e      	ldr	r3, [pc, #56]	@ (8002278 <KeyHandeler_PumpView+0x80>)
 800223e:	2200      	movs	r2, #0
 8002240:	701a      	strb	r2, [r3, #0]
}
 8002242:	bd08      	pop	{r3, pc}
		PUMP_PWM=PUMP_PWM-10;
 8002244:	4a11      	ldr	r2, [pc, #68]	@ (800228c <KeyHandeler_PumpView+0x94>)
 8002246:	8813      	ldrh	r3, [r2, #0]
 8002248:	3b0a      	subs	r3, #10
 800224a:	b29b      	uxth	r3, r3
 800224c:	8013      	strh	r3, [r2, #0]
	    __HAL_TIM_SET_COMPARE(&htim3, TIM_CHANNEL_1, PUMP_PWM);
 800224e:	4a10      	ldr	r2, [pc, #64]	@ (8002290 <KeyHandeler_PumpView+0x98>)
 8002250:	6812      	ldr	r2, [r2, #0]
 8002252:	6353      	str	r3, [r2, #52]	@ 0x34
		HAL_Delay(200);
 8002254:	20c8      	movs	r0, #200	@ 0xc8
 8002256:	f001 fa49 	bl	80036ec <HAL_Delay>
		FLAG_SentKEY1=0;
 800225a:	4b08      	ldr	r3, [pc, #32]	@ (800227c <KeyHandeler_PumpView+0x84>)
 800225c:	2200      	movs	r2, #0
 800225e:	701a      	strb	r2, [r3, #0]
 8002260:	e7ef      	b.n	8002242 <KeyHandeler_PumpView+0x4a>
		CurrentView=V_CONFIG;
 8002262:	4b09      	ldr	r3, [pc, #36]	@ (8002288 <KeyHandeler_PumpView+0x90>)
 8002264:	2206      	movs	r2, #6
 8002266:	701a      	strb	r2, [r3, #0]
		HAL_Delay(200);
 8002268:	20c8      	movs	r0, #200	@ 0xc8
 800226a:	f001 fa3f 	bl	80036ec <HAL_Delay>
		FLAG_SentKEY2=0;
 800226e:	4b04      	ldr	r3, [pc, #16]	@ (8002280 <KeyHandeler_PumpView+0x88>)
 8002270:	2200      	movs	r2, #0
 8002272:	701a      	strb	r2, [r3, #0]
 8002274:	e7e5      	b.n	8002242 <KeyHandeler_PumpView+0x4a>
 8002276:	bf00      	nop
 8002278:	200002f5 	.word	0x200002f5
 800227c:	200002f4 	.word	0x200002f4
 8002280:	200002f3 	.word	0x200002f3
 8002284:	200002f2 	.word	0x200002f2
 8002288:	200000a8 	.word	0x200000a8
 800228c:	200000e2 	.word	0x200000e2
 8002290:	200004fc 	.word	0x200004fc

08002294 <KeyHandeler_BuzzerView>:
void KeyHandeler_BuzzerView(){
 8002294:	b510      	push	{r4, lr}
	if (FLAG_SentKEY0) {
 8002296:	4b24      	ldr	r3, [pc, #144]	@ (8002328 <KeyHandeler_BuzzerView+0x94>)
 8002298:	781b      	ldrb	r3, [r3, #0]
 800229a:	b9bb      	cbnz	r3, 80022cc <KeyHandeler_BuzzerView+0x38>
		buzzer.frequency=buzzer.frequency+10;
		Buzzer_SetFrequency(&buzzer, buzzer.frequency);
		HAL_Delay(200);
		FLAG_SentKEY0=0;
	}else
	if (FLAG_SentKEY1) {
 800229c:	4b23      	ldr	r3, [pc, #140]	@ (800232c <KeyHandeler_BuzzerView+0x98>)
 800229e:	781b      	ldrb	r3, [r3, #0]
 80022a0:	f003 04ff 	and.w	r4, r3, #255	@ 0xff
 80022a4:	b9fb      	cbnz	r3, 80022e6 <KeyHandeler_BuzzerView+0x52>
		buzzer.frequency=buzzer.frequency-10;
		Buzzer_SetFrequency(&buzzer, buzzer.frequency);
		HAL_Delay(200);
		FLAG_SentKEY1=0;
	}else
	if (FLAG_SentKEY2) {
 80022a6:	4b22      	ldr	r3, [pc, #136]	@ (8002330 <KeyHandeler_BuzzerView+0x9c>)
 80022a8:	781b      	ldrb	r3, [r3, #0]
 80022aa:	b37b      	cbz	r3, 800230c <KeyHandeler_BuzzerView+0x78>
		if (FLAG_MUTE) {
 80022ac:	4b21      	ldr	r3, [pc, #132]	@ (8002334 <KeyHandeler_BuzzerView+0xa0>)
 80022ae:	781b      	ldrb	r3, [r3, #0]
 80022b0:	b333      	cbz	r3, 8002300 <KeyHandeler_BuzzerView+0x6c>
			Buzzer_SetVolume(&buzzer, 36);
 80022b2:	2124      	movs	r1, #36	@ 0x24
 80022b4:	4820      	ldr	r0, [pc, #128]	@ (8002338 <KeyHandeler_BuzzerView+0xa4>)
 80022b6:	f7ff f99f 	bl	80015f8 <Buzzer_SetVolume>
			FLAG_MUTE=0;
 80022ba:	4b1e      	ldr	r3, [pc, #120]	@ (8002334 <KeyHandeler_BuzzerView+0xa0>)
 80022bc:	701c      	strb	r4, [r3, #0]
		}else {
			Buzzer_SetVolume(&buzzer, 0);
			FLAG_MUTE=1;
		}
		HAL_Delay(200);
 80022be:	20c8      	movs	r0, #200	@ 0xc8
 80022c0:	f001 fa14 	bl	80036ec <HAL_Delay>
		FLAG_SentKEY2=0;
 80022c4:	4b1a      	ldr	r3, [pc, #104]	@ (8002330 <KeyHandeler_BuzzerView+0x9c>)
 80022c6:	2200      	movs	r2, #0
 80022c8:	701a      	strb	r2, [r3, #0]
 80022ca:	e00b      	b.n	80022e4 <KeyHandeler_BuzzerView+0x50>
		buzzer.frequency=buzzer.frequency+10;
 80022cc:	481a      	ldr	r0, [pc, #104]	@ (8002338 <KeyHandeler_BuzzerView+0xa4>)
 80022ce:	6881      	ldr	r1, [r0, #8]
 80022d0:	310a      	adds	r1, #10
 80022d2:	6081      	str	r1, [r0, #8]
		Buzzer_SetFrequency(&buzzer, buzzer.frequency);
 80022d4:	f7ff f984 	bl	80015e0 <Buzzer_SetFrequency>
		HAL_Delay(200);
 80022d8:	20c8      	movs	r0, #200	@ 0xc8
 80022da:	f001 fa07 	bl	80036ec <HAL_Delay>
		FLAG_SentKEY0=0;
 80022de:	4b12      	ldr	r3, [pc, #72]	@ (8002328 <KeyHandeler_BuzzerView+0x94>)
 80022e0:	2200      	movs	r2, #0
 80022e2:	701a      	strb	r2, [r3, #0]
	if (FLAG_SentKEY3) {
		CurrentView=V_INDEX;
		HAL_Delay(200);
		FLAG_SentKEY3=0;
	}
}
 80022e4:	bd10      	pop	{r4, pc}
		buzzer.frequency=buzzer.frequency-10;
 80022e6:	4814      	ldr	r0, [pc, #80]	@ (8002338 <KeyHandeler_BuzzerView+0xa4>)
 80022e8:	6881      	ldr	r1, [r0, #8]
 80022ea:	390a      	subs	r1, #10
 80022ec:	6081      	str	r1, [r0, #8]
		Buzzer_SetFrequency(&buzzer, buzzer.frequency);
 80022ee:	f7ff f977 	bl	80015e0 <Buzzer_SetFrequency>
		HAL_Delay(200);
 80022f2:	20c8      	movs	r0, #200	@ 0xc8
 80022f4:	f001 f9fa 	bl	80036ec <HAL_Delay>
		FLAG_SentKEY1=0;
 80022f8:	4b0c      	ldr	r3, [pc, #48]	@ (800232c <KeyHandeler_BuzzerView+0x98>)
 80022fa:	2200      	movs	r2, #0
 80022fc:	701a      	strb	r2, [r3, #0]
 80022fe:	e7f1      	b.n	80022e4 <KeyHandeler_BuzzerView+0x50>
			Buzzer_SetVolume(&buzzer, 0);
 8002300:	2100      	movs	r1, #0
 8002302:	480d      	ldr	r0, [pc, #52]	@ (8002338 <KeyHandeler_BuzzerView+0xa4>)
 8002304:	f7ff f978 	bl	80015f8 <Buzzer_SetVolume>
 8002308:	2401      	movs	r4, #1
 800230a:	e7d6      	b.n	80022ba <KeyHandeler_BuzzerView+0x26>
	if (FLAG_SentKEY3) {
 800230c:	4b0b      	ldr	r3, [pc, #44]	@ (800233c <KeyHandeler_BuzzerView+0xa8>)
 800230e:	781b      	ldrb	r3, [r3, #0]
 8002310:	2b00      	cmp	r3, #0
 8002312:	d0e7      	beq.n	80022e4 <KeyHandeler_BuzzerView+0x50>
		CurrentView=V_INDEX;
 8002314:	4b0a      	ldr	r3, [pc, #40]	@ (8002340 <KeyHandeler_BuzzerView+0xac>)
 8002316:	2201      	movs	r2, #1
 8002318:	701a      	strb	r2, [r3, #0]
		HAL_Delay(200);
 800231a:	20c8      	movs	r0, #200	@ 0xc8
 800231c:	f001 f9e6 	bl	80036ec <HAL_Delay>
		FLAG_SentKEY3=0;
 8002320:	4b06      	ldr	r3, [pc, #24]	@ (800233c <KeyHandeler_BuzzerView+0xa8>)
 8002322:	2200      	movs	r2, #0
 8002324:	701a      	strb	r2, [r3, #0]
}
 8002326:	e7dd      	b.n	80022e4 <KeyHandeler_BuzzerView+0x50>
 8002328:	200002f5 	.word	0x200002f5
 800232c:	200002f4 	.word	0x200002f4
 8002330:	200002f3 	.word	0x200002f3
 8002334:	200000e0 	.word	0x200000e0
 8002338:	200000ac 	.word	0x200000ac
 800233c:	200002f2 	.word	0x200002f2
 8002340:	200000a8 	.word	0x200000a8

08002344 <KeyHandeler_ConfigView>:
void KeyHandeler_ConfigView(){
 8002344:	b508      	push	{r3, lr}
	if (FLAG_SentKEY0) {
 8002346:	4b22      	ldr	r3, [pc, #136]	@ (80023d0 <KeyHandeler_ConfigView+0x8c>)
 8002348:	781b      	ldrb	r3, [r3, #0]
 800234a:	b173      	cbz	r3, 800236a <KeyHandeler_ConfigView+0x26>
		if (++ALARM_Time.seconds>60) {
 800234c:	4b21      	ldr	r3, [pc, #132]	@ (80023d4 <KeyHandeler_ConfigView+0x90>)
 800234e:	689b      	ldr	r3, [r3, #8]
 8002350:	3301      	adds	r3, #1
			ALARM_Time.seconds=0;
 8002352:	2b3d      	cmp	r3, #61	@ 0x3d
 8002354:	bf28      	it	cs
 8002356:	2300      	movcs	r3, #0
 8002358:	4a1e      	ldr	r2, [pc, #120]	@ (80023d4 <KeyHandeler_ConfigView+0x90>)
 800235a:	6093      	str	r3, [r2, #8]
		}
		HAL_Delay(200);
 800235c:	20c8      	movs	r0, #200	@ 0xc8
 800235e:	f001 f9c5 	bl	80036ec <HAL_Delay>
		FLAG_SentKEY0=0;
 8002362:	4b1b      	ldr	r3, [pc, #108]	@ (80023d0 <KeyHandeler_ConfigView+0x8c>)
 8002364:	2200      	movs	r2, #0
 8002366:	701a      	strb	r2, [r3, #0]
		CurrentView=V_PUMP;
		HAL_Delay(200);
		FLAG_SentKEY3=0;
	}

}
 8002368:	bd08      	pop	{r3, pc}
	if (FLAG_SentKEY1) {
 800236a:	4b1b      	ldr	r3, [pc, #108]	@ (80023d8 <KeyHandeler_ConfigView+0x94>)
 800236c:	781b      	ldrb	r3, [r3, #0]
 800236e:	b173      	cbz	r3, 800238e <KeyHandeler_ConfigView+0x4a>
		if (++ALARM_Time.minutes>60) {
 8002370:	4b18      	ldr	r3, [pc, #96]	@ (80023d4 <KeyHandeler_ConfigView+0x90>)
 8002372:	685b      	ldr	r3, [r3, #4]
 8002374:	3301      	adds	r3, #1
			ALARM_Time.minutes=0;
 8002376:	2b3d      	cmp	r3, #61	@ 0x3d
 8002378:	bf28      	it	cs
 800237a:	2300      	movcs	r3, #0
 800237c:	4a15      	ldr	r2, [pc, #84]	@ (80023d4 <KeyHandeler_ConfigView+0x90>)
 800237e:	6053      	str	r3, [r2, #4]
		HAL_Delay(200);
 8002380:	20c8      	movs	r0, #200	@ 0xc8
 8002382:	f001 f9b3 	bl	80036ec <HAL_Delay>
		FLAG_SentKEY1=0;
 8002386:	4b14      	ldr	r3, [pc, #80]	@ (80023d8 <KeyHandeler_ConfigView+0x94>)
 8002388:	2200      	movs	r2, #0
 800238a:	701a      	strb	r2, [r3, #0]
 800238c:	e7ec      	b.n	8002368 <KeyHandeler_ConfigView+0x24>
	if (FLAG_SentKEY2) {
 800238e:	4b13      	ldr	r3, [pc, #76]	@ (80023dc <KeyHandeler_ConfigView+0x98>)
 8002390:	781b      	ldrb	r3, [r3, #0]
 8002392:	b173      	cbz	r3, 80023b2 <KeyHandeler_ConfigView+0x6e>
		if (++ALARM_Time.hours>24) {
 8002394:	4b0f      	ldr	r3, [pc, #60]	@ (80023d4 <KeyHandeler_ConfigView+0x90>)
 8002396:	681b      	ldr	r3, [r3, #0]
 8002398:	3301      	adds	r3, #1
			ALARM_Time.hours=0;
 800239a:	2b19      	cmp	r3, #25
 800239c:	bf28      	it	cs
 800239e:	2300      	movcs	r3, #0
 80023a0:	4a0c      	ldr	r2, [pc, #48]	@ (80023d4 <KeyHandeler_ConfigView+0x90>)
 80023a2:	6013      	str	r3, [r2, #0]
		HAL_Delay(200);
 80023a4:	20c8      	movs	r0, #200	@ 0xc8
 80023a6:	f001 f9a1 	bl	80036ec <HAL_Delay>
		FLAG_SentKEY2=0;
 80023aa:	4b0c      	ldr	r3, [pc, #48]	@ (80023dc <KeyHandeler_ConfigView+0x98>)
 80023ac:	2200      	movs	r2, #0
 80023ae:	701a      	strb	r2, [r3, #0]
 80023b0:	e7da      	b.n	8002368 <KeyHandeler_ConfigView+0x24>
	if (FLAG_SentKEY3) {
 80023b2:	4b0b      	ldr	r3, [pc, #44]	@ (80023e0 <KeyHandeler_ConfigView+0x9c>)
 80023b4:	781b      	ldrb	r3, [r3, #0]
 80023b6:	2b00      	cmp	r3, #0
 80023b8:	d0d6      	beq.n	8002368 <KeyHandeler_ConfigView+0x24>
		CurrentView=V_PUMP;
 80023ba:	4b0a      	ldr	r3, [pc, #40]	@ (80023e4 <KeyHandeler_ConfigView+0xa0>)
 80023bc:	2204      	movs	r2, #4
 80023be:	701a      	strb	r2, [r3, #0]
		HAL_Delay(200);
 80023c0:	20c8      	movs	r0, #200	@ 0xc8
 80023c2:	f001 f993 	bl	80036ec <HAL_Delay>
		FLAG_SentKEY3=0;
 80023c6:	4b06      	ldr	r3, [pc, #24]	@ (80023e0 <KeyHandeler_ConfigView+0x9c>)
 80023c8:	2200      	movs	r2, #0
 80023ca:	701a      	strb	r2, [r3, #0]
}
 80023cc:	e7cc      	b.n	8002368 <KeyHandeler_ConfigView+0x24>
 80023ce:	bf00      	nop
 80023d0:	200002f5 	.word	0x200002f5
 80023d4:	200002f8 	.word	0x200002f8
 80023d8:	200002f4 	.word	0x200002f4
 80023dc:	200002f3 	.word	0x200002f3
 80023e0:	200002f2 	.word	0x200002f2
 80023e4:	200000a8 	.word	0x200000a8

080023e8 <KeyHandeler>:





void KeyHandeler(uint8_t SWView) {
 80023e8:	b508      	push	{r3, lr}
	if (SWView == V_WELCOME) {
 80023ea:	3801      	subs	r0, #1
 80023ec:	2805      	cmp	r0, #5
 80023ee:	d806      	bhi.n	80023fe <KeyHandeler+0x16>
 80023f0:	e8df f000 	tbb	[pc, r0]
 80023f4:	0c090603 	.word	0x0c090603
 80023f8:	120f      	.short	0x120f
	    KeyHandeler_WelcomeView();
	} else if (SWView == V_INDEX) {
	    KeyHandeler_IndexView();
 80023fa:	f7ff fdd9 	bl	8001fb0 <KeyHandeler_IndexView>
	} else if (SWView == V_BUZZER) {
	    KeyHandeler_BuzzerView();
	} else if (SWView == V_CONFIG) {
	    KeyHandeler_ConfigView();
	}
}
 80023fe:	bd08      	pop	{r3, pc}
	    KeyHandeler_NetWorkView();
 8002400:	f7ff fe16 	bl	8002030 <KeyHandeler_NetWorkView>
 8002404:	e7fb      	b.n	80023fe <KeyHandeler+0x16>
	    KeyHandeler_SensorView();
 8002406:	f7ff fe5f 	bl	80020c8 <KeyHandeler_SensorView>
 800240a:	e7f8      	b.n	80023fe <KeyHandeler+0x16>
	    KeyHandeler_PumpView();
 800240c:	f7ff fef4 	bl	80021f8 <KeyHandeler_PumpView>
 8002410:	e7f5      	b.n	80023fe <KeyHandeler+0x16>
	    KeyHandeler_BuzzerView();
 8002412:	f7ff ff3f 	bl	8002294 <KeyHandeler_BuzzerView>
 8002416:	e7f2      	b.n	80023fe <KeyHandeler+0x16>
	    KeyHandeler_ConfigView();
 8002418:	f7ff ff94 	bl	8002344 <KeyHandeler_ConfigView>
}
 800241c:	e7ef      	b.n	80023fe <KeyHandeler+0x16>

0800241e <ShowView>:

void ShowView(uint8_t SWView) {
 800241e:	b508      	push	{r3, lr}
    switch (SWView) {
 8002420:	2806      	cmp	r0, #6
 8002422:	d807      	bhi.n	8002434 <ShowView+0x16>
 8002424:	e8df f000 	tbb	[pc, r0]
 8002428:	0d0a0704 	.word	0x0d0a0704
 800242c:	1310      	.short	0x1310
 800242e:	16          	.byte	0x16
 800242f:	00          	.byte	0x00
        case V_WELCOME:
            ssd1306_WelcomeView();
 8002430:	f7ff f952 	bl	80016d8 <ssd1306_WelcomeView>

        default:
            // Handle invalid view case
            break;
    }
}
 8002434:	bd08      	pop	{r3, pc}
            ssd1306_IndexView();
 8002436:	f7ff f993 	bl	8001760 <ssd1306_IndexView>
            break;
 800243a:	e7fb      	b.n	8002434 <ShowView+0x16>
            ssd1306_NetWorkView();
 800243c:	f7ff fa1c 	bl	8001878 <ssd1306_NetWorkView>
            break;
 8002440:	e7f8      	b.n	8002434 <ShowView+0x16>
            ssd1306_SensorView();
 8002442:	f7ff fa81 	bl	8001948 <ssd1306_SensorView>
            break;
 8002446:	e7f5      	b.n	8002434 <ShowView+0x16>
            ssd1306_PumpView();
 8002448:	f7ff fbb4 	bl	8001bb4 <ssd1306_PumpView>
            break;
 800244c:	e7f2      	b.n	8002434 <ShowView+0x16>
            ssd1306_BuzzerView();
 800244e:	f7ff fc63 	bl	8001d18 <ssd1306_BuzzerView>
            break;
 8002452:	e7ef      	b.n	8002434 <ShowView+0x16>
		   ssd1306_ConfigView();
 8002454:	f7ff fcf0 	bl	8001e38 <ssd1306_ConfigView>
}
 8002458:	e7ec      	b.n	8002434 <ShowView+0x16>
	...

0800245c <convertSecondsToTime>:

void convertSecondsToTime(uint32_t total_seconds, TimeTypedef* time)
{
    time->hours = total_seconds / 3600;
 800245c:	4b09      	ldr	r3, [pc, #36]	@ (8002484 <convertSecondsToTime+0x28>)
 800245e:	fba3 2300 	umull	r2, r3, r3, r0
 8002462:	0adb      	lsrs	r3, r3, #11
 8002464:	600b      	str	r3, [r1, #0]
    total_seconds %= 3600;
 8002466:	f44f 6261 	mov.w	r2, #3600	@ 0xe10
 800246a:	fb02 0013 	mls	r0, r2, r3, r0
    time->minutes = total_seconds / 60;
 800246e:	4b06      	ldr	r3, [pc, #24]	@ (8002488 <convertSecondsToTime+0x2c>)
 8002470:	fba3 2300 	umull	r2, r3, r3, r0
 8002474:	095b      	lsrs	r3, r3, #5
 8002476:	604b      	str	r3, [r1, #4]
    time->seconds = total_seconds % 60;
 8002478:	ebc3 1303 	rsb	r3, r3, r3, lsl #4
 800247c:	eba0 0083 	sub.w	r0, r0, r3, lsl #2
 8002480:	6088      	str	r0, [r1, #8]
}
 8002482:	4770      	bx	lr
 8002484:	91a2b3c5 	.word	0x91a2b3c5
 8002488:	88888889 	.word	0x88888889

0800248c <SystemClock_Config>:
/**
  * @brief System Clock Configuration
  * @retval None
  */
void SystemClock_Config(void)
{
 800248c:	b500      	push	{lr}
 800248e:	b095      	sub	sp, #84	@ 0x54
  RCC_OscInitTypeDef RCC_OscInitStruct = {0};
 8002490:	2300      	movs	r3, #0
 8002492:	930c      	str	r3, [sp, #48]	@ 0x30
 8002494:	930d      	str	r3, [sp, #52]	@ 0x34
 8002496:	930f      	str	r3, [sp, #60]	@ 0x3c
 8002498:	9310      	str	r3, [sp, #64]	@ 0x40
  RCC_ClkInitTypeDef RCC_ClkInitStruct = {0};
 800249a:	9305      	str	r3, [sp, #20]
 800249c:	9306      	str	r3, [sp, #24]
 800249e:	9307      	str	r3, [sp, #28]
 80024a0:	9308      	str	r3, [sp, #32]
 80024a2:	9309      	str	r3, [sp, #36]	@ 0x24
  RCC_PeriphCLKInitTypeDef PeriphClkInit = {0};
 80024a4:	9301      	str	r3, [sp, #4]
 80024a6:	9302      	str	r3, [sp, #8]
 80024a8:	9303      	str	r3, [sp, #12]
 80024aa:	9304      	str	r3, [sp, #16]

  /** Initializes the RCC Oscillators according to the specified parameters
  * in the RCC_OscInitTypeDef structure.
  */
  RCC_OscInitStruct.OscillatorType = RCC_OSCILLATORTYPE_HSE;
 80024ac:	2201      	movs	r2, #1
 80024ae:	920a      	str	r2, [sp, #40]	@ 0x28
  RCC_OscInitStruct.HSEState = RCC_HSE_ON;
 80024b0:	f44f 3380 	mov.w	r3, #65536	@ 0x10000
 80024b4:	930b      	str	r3, [sp, #44]	@ 0x2c
  RCC_OscInitStruct.HSEPredivValue = RCC_HSE_PREDIV_DIV1;
  RCC_OscInitStruct.HSIState = RCC_HSI_ON;
 80024b6:	920e      	str	r2, [sp, #56]	@ 0x38
  RCC_OscInitStruct.PLL.PLLState = RCC_PLL_ON;
 80024b8:	2202      	movs	r2, #2
 80024ba:	9211      	str	r2, [sp, #68]	@ 0x44
  RCC_OscInitStruct.PLL.PLLSource = RCC_PLLSOURCE_HSE;
 80024bc:	9312      	str	r3, [sp, #72]	@ 0x48
  RCC_OscInitStruct.PLL.PLLMUL = RCC_PLL_MUL9;
 80024be:	f44f 13e0 	mov.w	r3, #1835008	@ 0x1c0000
 80024c2:	9313      	str	r3, [sp, #76]	@ 0x4c
  if (HAL_RCC_OscConfig(&RCC_OscInitStruct) != HAL_OK)
 80024c4:	a80a      	add	r0, sp, #40	@ 0x28
 80024c6:	f002 faeb 	bl	8004aa0 <HAL_RCC_OscConfig>
 80024ca:	b9c8      	cbnz	r0, 8002500 <SystemClock_Config+0x74>
    Error_Handler();
  }

  /** Initializes the CPU, AHB and APB buses clocks
  */
  RCC_ClkInitStruct.ClockType = RCC_CLOCKTYPE_HCLK|RCC_CLOCKTYPE_SYSCLK
 80024cc:	230f      	movs	r3, #15
 80024ce:	9305      	str	r3, [sp, #20]
                              |RCC_CLOCKTYPE_PCLK1|RCC_CLOCKTYPE_PCLK2;
  RCC_ClkInitStruct.SYSCLKSource = RCC_SYSCLKSOURCE_PLLCLK;
 80024d0:	2102      	movs	r1, #2
 80024d2:	9106      	str	r1, [sp, #24]
  RCC_ClkInitStruct.AHBCLKDivider = RCC_SYSCLK_DIV1;
 80024d4:	2300      	movs	r3, #0
 80024d6:	9307      	str	r3, [sp, #28]
  RCC_ClkInitStruct.APB1CLKDivider = RCC_HCLK_DIV2;
 80024d8:	f44f 6280 	mov.w	r2, #1024	@ 0x400
 80024dc:	9208      	str	r2, [sp, #32]
  RCC_ClkInitStruct.APB2CLKDivider = RCC_HCLK_DIV1;
 80024de:	9309      	str	r3, [sp, #36]	@ 0x24

  if (HAL_RCC_ClockConfig(&RCC_ClkInitStruct, FLASH_LATENCY_2) != HAL_OK)
 80024e0:	a805      	add	r0, sp, #20
 80024e2:	f002 fd1d 	bl	8004f20 <HAL_RCC_ClockConfig>
 80024e6:	b968      	cbnz	r0, 8002504 <SystemClock_Config+0x78>
  {
    Error_Handler();
  }
  PeriphClkInit.PeriphClockSelection = RCC_PERIPHCLK_ADC;
 80024e8:	2302      	movs	r3, #2
 80024ea:	9301      	str	r3, [sp, #4]
  PeriphClkInit.AdcClockSelection = RCC_ADCPCLK2_DIV6;
 80024ec:	f44f 4300 	mov.w	r3, #32768	@ 0x8000
 80024f0:	9303      	str	r3, [sp, #12]
  if (HAL_RCCEx_PeriphCLKConfig(&PeriphClkInit) != HAL_OK)
 80024f2:	a801      	add	r0, sp, #4
 80024f4:	f002 fdec 	bl	80050d0 <HAL_RCCEx_PeriphCLKConfig>
 80024f8:	b930      	cbnz	r0, 8002508 <SystemClock_Config+0x7c>
  {
    Error_Handler();
  }
}
 80024fa:	b015      	add	sp, #84	@ 0x54
 80024fc:	f85d fb04 	ldr.w	pc, [sp], #4
  __ASM volatile ("cpsid i" : : : "memory");
 8002500:	b672      	cpsid	i
void Error_Handler(void)
{
  /* USER CODE BEGIN Error_Handler_Debug */
  /* User can add his own implementation to report the HAL error return state */
  __disable_irq();
  while (1)
 8002502:	e7fe      	b.n	8002502 <SystemClock_Config+0x76>
 8002504:	b672      	cpsid	i
 8002506:	e7fe      	b.n	8002506 <SystemClock_Config+0x7a>
 8002508:	b672      	cpsid	i
 800250a:	e7fe      	b.n	800250a <SystemClock_Config+0x7e>

0800250c <main>:
{
 800250c:	b580      	push	{r7, lr}
 800250e:	f5ad 6d99 	sub.w	sp, sp, #1224	@ 0x4c8
  HAL_Init();
 8002512:	f001 f8c7 	bl	80036a4 <HAL_Init>
  SystemClock_Config();
 8002516:	f7ff ffb9 	bl	800248c <SystemClock_Config>
  GPIO_InitTypeDef GPIO_InitStruct = {0};
 800251a:	2400      	movs	r4, #0
 800251c:	9438      	str	r4, [sp, #224]	@ 0xe0
 800251e:	9439      	str	r4, [sp, #228]	@ 0xe4
 8002520:	943a      	str	r4, [sp, #232]	@ 0xe8
 8002522:	943b      	str	r4, [sp, #236]	@ 0xec
  __HAL_RCC_GPIOC_CLK_ENABLE();
 8002524:	4daa      	ldr	r5, [pc, #680]	@ (80027d0 <main+0x2c4>)
 8002526:	69ab      	ldr	r3, [r5, #24]
 8002528:	f043 0310 	orr.w	r3, r3, #16
 800252c:	61ab      	str	r3, [r5, #24]
 800252e:	69ab      	ldr	r3, [r5, #24]
 8002530:	f003 0310 	and.w	r3, r3, #16
 8002534:	9327      	str	r3, [sp, #156]	@ 0x9c
 8002536:	9b27      	ldr	r3, [sp, #156]	@ 0x9c
  __HAL_RCC_GPIOD_CLK_ENABLE();
 8002538:	69ab      	ldr	r3, [r5, #24]
 800253a:	f043 0320 	orr.w	r3, r3, #32
 800253e:	61ab      	str	r3, [r5, #24]
 8002540:	69ab      	ldr	r3, [r5, #24]
 8002542:	f003 0320 	and.w	r3, r3, #32
 8002546:	9328      	str	r3, [sp, #160]	@ 0xa0
 8002548:	9b28      	ldr	r3, [sp, #160]	@ 0xa0
  __HAL_RCC_GPIOA_CLK_ENABLE();
 800254a:	69ab      	ldr	r3, [r5, #24]
 800254c:	f043 0304 	orr.w	r3, r3, #4
 8002550:	61ab      	str	r3, [r5, #24]
 8002552:	69ab      	ldr	r3, [r5, #24]
 8002554:	f003 0304 	and.w	r3, r3, #4
 8002558:	9329      	str	r3, [sp, #164]	@ 0xa4
 800255a:	9b29      	ldr	r3, [sp, #164]	@ 0xa4
  __HAL_RCC_GPIOB_CLK_ENABLE();
 800255c:	69ab      	ldr	r3, [r5, #24]
 800255e:	f043 0308 	orr.w	r3, r3, #8
 8002562:	61ab      	str	r3, [r5, #24]
 8002564:	69ab      	ldr	r3, [r5, #24]
 8002566:	f003 0308 	and.w	r3, r3, #8
 800256a:	932a      	str	r3, [sp, #168]	@ 0xa8
 800256c:	9b2a      	ldr	r3, [sp, #168]	@ 0xa8
  HAL_GPIO_WritePin(GPIOB, GPIO_PIN_1, GPIO_PIN_RESET);
 800256e:	f8df 8264 	ldr.w	r8, [pc, #612]	@ 80027d4 <main+0x2c8>
 8002572:	4622      	mov	r2, r4
 8002574:	2102      	movs	r1, #2
 8002576:	4640      	mov	r0, r8
 8002578:	f001 ff7c 	bl	8004474 <HAL_GPIO_WritePin>
  GPIO_InitStruct.Pin = DHT11_Pin;
 800257c:	2601      	movs	r6, #1
 800257e:	9638      	str	r6, [sp, #224]	@ 0xe0
  GPIO_InitStruct.Mode = GPIO_MODE_INPUT;
 8002580:	9439      	str	r4, [sp, #228]	@ 0xe4
  GPIO_InitStruct.Pull = GPIO_PULLUP;
 8002582:	963a      	str	r6, [sp, #232]	@ 0xe8
  HAL_GPIO_Init(DHT11_GPIO_Port, &GPIO_InitStruct);
 8002584:	a938      	add	r1, sp, #224	@ 0xe0
 8002586:	4640      	mov	r0, r8
 8002588:	f001 fe2e 	bl	80041e8 <HAL_GPIO_Init>
  GPIO_InitStruct.Pin = GPIO_PIN_1;
 800258c:	2702      	movs	r7, #2
 800258e:	9738      	str	r7, [sp, #224]	@ 0xe0
  GPIO_InitStruct.Mode = GPIO_MODE_OUTPUT_PP;
 8002590:	9639      	str	r6, [sp, #228]	@ 0xe4
  GPIO_InitStruct.Pull = GPIO_NOPULL;
 8002592:	943a      	str	r4, [sp, #232]	@ 0xe8
  GPIO_InitStruct.Speed = GPIO_SPEED_FREQ_LOW;
 8002594:	973b      	str	r7, [sp, #236]	@ 0xec
  HAL_GPIO_Init(GPIOB, &GPIO_InitStruct);
 8002596:	a938      	add	r1, sp, #224	@ 0xe0
 8002598:	4640      	mov	r0, r8
 800259a:	f001 fe25 	bl	80041e8 <HAL_GPIO_Init>
  GPIO_InitStruct.Pin = GPIO_PIN_12|GPIO_PIN_13|GPIO_PIN_14|GPIO_PIN_15;
 800259e:	f44f 4370 	mov.w	r3, #61440	@ 0xf000
 80025a2:	9338      	str	r3, [sp, #224]	@ 0xe0
  GPIO_InitStruct.Mode = GPIO_MODE_IT_RISING;
 80025a4:	4b8c      	ldr	r3, [pc, #560]	@ (80027d8 <main+0x2cc>)
 80025a6:	9339      	str	r3, [sp, #228]	@ 0xe4
  GPIO_InitStruct.Pull = GPIO_PULLDOWN;
 80025a8:	973a      	str	r7, [sp, #232]	@ 0xe8
  HAL_GPIO_Init(GPIOB, &GPIO_InitStruct);
 80025aa:	a938      	add	r1, sp, #224	@ 0xe0
 80025ac:	4640      	mov	r0, r8
 80025ae:	f001 fe1b 	bl	80041e8 <HAL_GPIO_Init>
  HAL_NVIC_SetPriority(EXTI15_10_IRQn, 1, 0);
 80025b2:	4622      	mov	r2, r4
 80025b4:	4631      	mov	r1, r6
 80025b6:	2028      	movs	r0, #40	@ 0x28
 80025b8:	f001 fc2c 	bl	8003e14 <HAL_NVIC_SetPriority>
  HAL_NVIC_EnableIRQ(EXTI15_10_IRQn);
 80025bc:	2028      	movs	r0, #40	@ 0x28
 80025be:	f001 fc5f 	bl	8003e80 <HAL_NVIC_EnableIRQ>
  __HAL_RCC_DMA1_CLK_ENABLE();
 80025c2:	696b      	ldr	r3, [r5, #20]
 80025c4:	4333      	orrs	r3, r6
 80025c6:	616b      	str	r3, [r5, #20]
 80025c8:	696b      	ldr	r3, [r5, #20]
 80025ca:	4033      	ands	r3, r6
 80025cc:	9326      	str	r3, [sp, #152]	@ 0x98
 80025ce:	9b26      	ldr	r3, [sp, #152]	@ 0x98
  HAL_NVIC_SetPriority(DMA1_Channel1_IRQn, 0, 0);
 80025d0:	4622      	mov	r2, r4
 80025d2:	4621      	mov	r1, r4
 80025d4:	200b      	movs	r0, #11
 80025d6:	f001 fc1d 	bl	8003e14 <HAL_NVIC_SetPriority>
  HAL_NVIC_EnableIRQ(DMA1_Channel1_IRQn);
 80025da:	200b      	movs	r0, #11
 80025dc:	f001 fc50 	bl	8003e80 <HAL_NVIC_EnableIRQ>
  HAL_NVIC_SetPriority(DMA1_Channel2_IRQn, 0, 0);
 80025e0:	4622      	mov	r2, r4
 80025e2:	4621      	mov	r1, r4
 80025e4:	200c      	movs	r0, #12
 80025e6:	f001 fc15 	bl	8003e14 <HAL_NVIC_SetPriority>
  HAL_NVIC_EnableIRQ(DMA1_Channel2_IRQn);
 80025ea:	200c      	movs	r0, #12
 80025ec:	f001 fc48 	bl	8003e80 <HAL_NVIC_EnableIRQ>
  HAL_NVIC_SetPriority(DMA1_Channel3_IRQn, 0, 0);
 80025f0:	4622      	mov	r2, r4
 80025f2:	4621      	mov	r1, r4
 80025f4:	200d      	movs	r0, #13
 80025f6:	f001 fc0d 	bl	8003e14 <HAL_NVIC_SetPriority>
  HAL_NVIC_EnableIRQ(DMA1_Channel3_IRQn);
 80025fa:	200d      	movs	r0, #13
 80025fc:	f001 fc40 	bl	8003e80 <HAL_NVIC_EnableIRQ>
  ADC_ChannelConfTypeDef sConfig = {0};
 8002600:	9438      	str	r4, [sp, #224]	@ 0xe0
 8002602:	9439      	str	r4, [sp, #228]	@ 0xe4
 8002604:	943a      	str	r4, [sp, #232]	@ 0xe8
  hadc1.Instance = ADC1;
 8002606:	4875      	ldr	r0, [pc, #468]	@ (80027dc <main+0x2d0>)
 8002608:	4b75      	ldr	r3, [pc, #468]	@ (80027e0 <main+0x2d4>)
 800260a:	6003      	str	r3, [r0, #0]
  hadc1.Init.ScanConvMode = ADC_SCAN_ENABLE;
 800260c:	f44f 7380 	mov.w	r3, #256	@ 0x100
 8002610:	6083      	str	r3, [r0, #8]
  hadc1.Init.ContinuousConvMode = ENABLE;
 8002612:	7306      	strb	r6, [r0, #12]
  hadc1.Init.DiscontinuousConvMode = DISABLE;
 8002614:	7504      	strb	r4, [r0, #20]
  hadc1.Init.ExternalTrigConv = ADC_EXTERNALTRIGCONV_T4_CC4;
 8002616:	f44f 2320 	mov.w	r3, #655360	@ 0xa0000
 800261a:	61c3      	str	r3, [r0, #28]
  hadc1.Init.DataAlign = ADC_DATAALIGN_RIGHT;
 800261c:	6044      	str	r4, [r0, #4]
  hadc1.Init.NbrOfConversion = 2;
 800261e:	6107      	str	r7, [r0, #16]
  if (HAL_ADC_Init(&hadc1) != HAL_OK)
 8002620:	f001 fb60 	bl	8003ce4 <HAL_ADC_Init>
 8002624:	2800      	cmp	r0, #0
 8002626:	f040 8283 	bne.w	8002b30 <main+0x624>
  sConfig.Channel = ADC_CHANNEL_4;
 800262a:	2304      	movs	r3, #4
 800262c:	9338      	str	r3, [sp, #224]	@ 0xe0
  sConfig.Rank = ADC_REGULAR_RANK_1;
 800262e:	2301      	movs	r3, #1
 8002630:	9339      	str	r3, [sp, #228]	@ 0xe4
  sConfig.SamplingTime = ADC_SAMPLETIME_239CYCLES_5;
 8002632:	2307      	movs	r3, #7
 8002634:	933a      	str	r3, [sp, #232]	@ 0xe8
  if (HAL_ADC_ConfigChannel(&hadc1, &sConfig) != HAL_OK)
 8002636:	a938      	add	r1, sp, #224	@ 0xe0
 8002638:	4868      	ldr	r0, [pc, #416]	@ (80027dc <main+0x2d0>)
 800263a:	f001 f92b 	bl	8003894 <HAL_ADC_ConfigChannel>
 800263e:	2800      	cmp	r0, #0
 8002640:	f040 8278 	bne.w	8002b34 <main+0x628>
  sConfig.Channel = ADC_CHANNEL_5;
 8002644:	2305      	movs	r3, #5
 8002646:	9338      	str	r3, [sp, #224]	@ 0xe0
  sConfig.Rank = ADC_REGULAR_RANK_2;
 8002648:	2302      	movs	r3, #2
 800264a:	9339      	str	r3, [sp, #228]	@ 0xe4
  if (HAL_ADC_ConfigChannel(&hadc1, &sConfig) != HAL_OK)
 800264c:	a938      	add	r1, sp, #224	@ 0xe0
 800264e:	4863      	ldr	r0, [pc, #396]	@ (80027dc <main+0x2d0>)
 8002650:	f001 f920 	bl	8003894 <HAL_ADC_ConfigChannel>
 8002654:	2800      	cmp	r0, #0
 8002656:	f040 826f 	bne.w	8002b38 <main+0x62c>
  hi2c1.Instance = I2C1;
 800265a:	4862      	ldr	r0, [pc, #392]	@ (80027e4 <main+0x2d8>)
 800265c:	4b62      	ldr	r3, [pc, #392]	@ (80027e8 <main+0x2dc>)
 800265e:	6003      	str	r3, [r0, #0]
  hi2c1.Init.ClockSpeed = 400000;
 8002660:	4b62      	ldr	r3, [pc, #392]	@ (80027ec <main+0x2e0>)
 8002662:	6043      	str	r3, [r0, #4]
  hi2c1.Init.DutyCycle = I2C_DUTYCYCLE_2;
 8002664:	2300      	movs	r3, #0
 8002666:	6083      	str	r3, [r0, #8]
  hi2c1.Init.OwnAddress1 = 0;
 8002668:	60c3      	str	r3, [r0, #12]
  hi2c1.Init.AddressingMode = I2C_ADDRESSINGMODE_7BIT;
 800266a:	f44f 4280 	mov.w	r2, #16384	@ 0x4000
 800266e:	6102      	str	r2, [r0, #16]
  hi2c1.Init.DualAddressMode = I2C_DUALADDRESS_DISABLE;
 8002670:	6143      	str	r3, [r0, #20]
  hi2c1.Init.OwnAddress2 = 0;
 8002672:	6183      	str	r3, [r0, #24]
  hi2c1.Init.GeneralCallMode = I2C_GENERALCALL_DISABLE;
 8002674:	61c3      	str	r3, [r0, #28]
  hi2c1.Init.NoStretchMode = I2C_NOSTRETCH_DISABLE;
 8002676:	6203      	str	r3, [r0, #32]
  if (HAL_I2C_Init(&hi2c1) != HAL_OK)
 8002678:	f002 f89a 	bl	80047b0 <HAL_I2C_Init>
 800267c:	2800      	cmp	r0, #0
 800267e:	f040 825d 	bne.w	8002b3c <main+0x630>
  huart1.Instance = USART1;
 8002682:	485b      	ldr	r0, [pc, #364]	@ (80027f0 <main+0x2e4>)
 8002684:	4b5b      	ldr	r3, [pc, #364]	@ (80027f4 <main+0x2e8>)
 8002686:	6003      	str	r3, [r0, #0]
  huart1.Init.BaudRate = 115200;
 8002688:	f44f 33e1 	mov.w	r3, #115200	@ 0x1c200
 800268c:	6043      	str	r3, [r0, #4]
  huart1.Init.WordLength = UART_WORDLENGTH_8B;
 800268e:	2300      	movs	r3, #0
 8002690:	6083      	str	r3, [r0, #8]
  huart1.Init.StopBits = UART_STOPBITS_1;
 8002692:	60c3      	str	r3, [r0, #12]
  huart1.Init.Parity = UART_PARITY_NONE;
 8002694:	6103      	str	r3, [r0, #16]
  huart1.Init.Mode = UART_MODE_TX_RX;
 8002696:	220c      	movs	r2, #12
 8002698:	6142      	str	r2, [r0, #20]
  huart1.Init.HwFlowCtl = UART_HWCONTROL_NONE;
 800269a:	6183      	str	r3, [r0, #24]
  huart1.Init.OverSampling = UART_OVERSAMPLING_16;
 800269c:	61c3      	str	r3, [r0, #28]
  if (HAL_UART_Init(&huart1) != HAL_OK)
 800269e:	f003 fb2d 	bl	8005cfc <HAL_UART_Init>
 80026a2:	2800      	cmp	r0, #0
 80026a4:	f040 824c 	bne.w	8002b40 <main+0x634>
  huart3.Instance = USART3;
 80026a8:	4853      	ldr	r0, [pc, #332]	@ (80027f8 <main+0x2ec>)
 80026aa:	4b54      	ldr	r3, [pc, #336]	@ (80027fc <main+0x2f0>)
 80026ac:	6003      	str	r3, [r0, #0]
  huart3.Init.BaudRate = 115200;
 80026ae:	f44f 33e1 	mov.w	r3, #115200	@ 0x1c200
 80026b2:	6043      	str	r3, [r0, #4]
  huart3.Init.WordLength = UART_WORDLENGTH_8B;
 80026b4:	2300      	movs	r3, #0
 80026b6:	6083      	str	r3, [r0, #8]
  huart3.Init.StopBits = UART_STOPBITS_1;
 80026b8:	60c3      	str	r3, [r0, #12]
  huart3.Init.Parity = UART_PARITY_NONE;
 80026ba:	6103      	str	r3, [r0, #16]
  huart3.Init.Mode = UART_MODE_TX_RX;
 80026bc:	220c      	movs	r2, #12
 80026be:	6142      	str	r2, [r0, #20]
  huart3.Init.HwFlowCtl = UART_HWCONTROL_NONE;
 80026c0:	6183      	str	r3, [r0, #24]
  huart3.Init.OverSampling = UART_OVERSAMPLING_16;
 80026c2:	61c3      	str	r3, [r0, #28]
  if (HAL_UART_Init(&huart3) != HAL_OK)
 80026c4:	f003 fb1a 	bl	8005cfc <HAL_UART_Init>
 80026c8:	2800      	cmp	r0, #0
 80026ca:	f040 823b 	bne.w	8002b44 <main+0x638>
  TIM_ClockConfigTypeDef sClockSourceConfig = {0};
 80026ce:	2400      	movs	r4, #0
 80026d0:	942d      	str	r4, [sp, #180]	@ 0xb4
 80026d2:	942e      	str	r4, [sp, #184]	@ 0xb8
 80026d4:	942f      	str	r4, [sp, #188]	@ 0xbc
 80026d6:	9430      	str	r4, [sp, #192]	@ 0xc0
  TIM_MasterConfigTypeDef sMasterConfig = {0};
 80026d8:	942b      	str	r4, [sp, #172]	@ 0xac
 80026da:	942c      	str	r4, [sp, #176]	@ 0xb0
  TIM_OC_InitTypeDef sConfigOC = {0};
 80026dc:	9431      	str	r4, [sp, #196]	@ 0xc4
 80026de:	9432      	str	r4, [sp, #200]	@ 0xc8
 80026e0:	9433      	str	r4, [sp, #204]	@ 0xcc
 80026e2:	9434      	str	r4, [sp, #208]	@ 0xd0
 80026e4:	9435      	str	r4, [sp, #212]	@ 0xd4
 80026e6:	9436      	str	r4, [sp, #216]	@ 0xd8
 80026e8:	9437      	str	r4, [sp, #220]	@ 0xdc
  TIM_BreakDeadTimeConfigTypeDef sBreakDeadTimeConfig = {0};
 80026ea:	2220      	movs	r2, #32
 80026ec:	4621      	mov	r1, r4
 80026ee:	a838      	add	r0, sp, #224	@ 0xe0
 80026f0:	f004 fe15 	bl	800731e <memset>
  htim1.Instance = TIM1;
 80026f4:	4842      	ldr	r0, [pc, #264]	@ (8002800 <main+0x2f4>)
 80026f6:	4b43      	ldr	r3, [pc, #268]	@ (8002804 <main+0x2f8>)
 80026f8:	6003      	str	r3, [r0, #0]
  htim1.Init.Prescaler = 0;
 80026fa:	6044      	str	r4, [r0, #4]
  htim1.Init.CounterMode = TIM_COUNTERMODE_UP;
 80026fc:	6084      	str	r4, [r0, #8]
  htim1.Init.Period = 0;
 80026fe:	60c4      	str	r4, [r0, #12]
  htim1.Init.ClockDivision = TIM_CLOCKDIVISION_DIV1;
 8002700:	6104      	str	r4, [r0, #16]
  htim1.Init.RepetitionCounter = 0;
 8002702:	6144      	str	r4, [r0, #20]
  htim1.Init.AutoReloadPreload = TIM_AUTORELOAD_PRELOAD_DISABLE;
 8002704:	6184      	str	r4, [r0, #24]
  if (HAL_TIM_Base_Init(&htim1) != HAL_OK)
 8002706:	f002 ff5f 	bl	80055c8 <HAL_TIM_Base_Init>
 800270a:	2800      	cmp	r0, #0
 800270c:	f040 821c 	bne.w	8002b48 <main+0x63c>
  sClockSourceConfig.ClockSource = TIM_CLOCKSOURCE_INTERNAL;
 8002710:	f44f 5380 	mov.w	r3, #4096	@ 0x1000
 8002714:	932d      	str	r3, [sp, #180]	@ 0xb4
  if (HAL_TIM_ConfigClockSource(&htim1, &sClockSourceConfig) != HAL_OK)
 8002716:	a92d      	add	r1, sp, #180	@ 0xb4
 8002718:	4839      	ldr	r0, [pc, #228]	@ (8002800 <main+0x2f4>)
 800271a:	f003 f8b0 	bl	800587e <HAL_TIM_ConfigClockSource>
 800271e:	2800      	cmp	r0, #0
 8002720:	f040 8214 	bne.w	8002b4c <main+0x640>
  if (HAL_TIM_PWM_Init(&htim1) != HAL_OK)
 8002724:	4836      	ldr	r0, [pc, #216]	@ (8002800 <main+0x2f4>)
 8002726:	f002 ffa7 	bl	8005678 <HAL_TIM_PWM_Init>
 800272a:	2800      	cmp	r0, #0
 800272c:	f040 8210 	bne.w	8002b50 <main+0x644>
  sMasterConfig.MasterOutputTrigger = TIM_TRGO_RESET;
 8002730:	2300      	movs	r3, #0
 8002732:	932b      	str	r3, [sp, #172]	@ 0xac
  sMasterConfig.MasterSlaveMode = TIM_MASTERSLAVEMODE_DISABLE;
 8002734:	932c      	str	r3, [sp, #176]	@ 0xb0
  if (HAL_TIMEx_MasterConfigSynchronization(&htim1, &sMasterConfig) != HAL_OK)
 8002736:	a92b      	add	r1, sp, #172	@ 0xac
 8002738:	4831      	ldr	r0, [pc, #196]	@ (8002800 <main+0x2f4>)
 800273a:	f003 f9c9 	bl	8005ad0 <HAL_TIMEx_MasterConfigSynchronization>
 800273e:	2800      	cmp	r0, #0
 8002740:	f040 8208 	bne.w	8002b54 <main+0x648>
  sConfigOC.OCMode = TIM_OCMODE_PWM2;
 8002744:	2370      	movs	r3, #112	@ 0x70
 8002746:	9331      	str	r3, [sp, #196]	@ 0xc4
  sConfigOC.Pulse = 1;
 8002748:	2301      	movs	r3, #1
 800274a:	9332      	str	r3, [sp, #200]	@ 0xc8
  sConfigOC.OCPolarity = TIM_OCPOLARITY_HIGH;
 800274c:	2200      	movs	r2, #0
 800274e:	9233      	str	r2, [sp, #204]	@ 0xcc
  sConfigOC.OCNPolarity = TIM_OCNPOLARITY_HIGH;
 8002750:	9234      	str	r2, [sp, #208]	@ 0xd0
  sConfigOC.OCFastMode = TIM_OCFAST_DISABLE;
 8002752:	9235      	str	r2, [sp, #212]	@ 0xd4
  sConfigOC.OCIdleState = TIM_OCIDLESTATE_RESET;
 8002754:	9236      	str	r2, [sp, #216]	@ 0xd8
  sConfigOC.OCNIdleState = TIM_OCNIDLESTATE_RESET;
 8002756:	9237      	str	r2, [sp, #220]	@ 0xdc
  if (HAL_TIM_PWM_ConfigChannel(&htim1, &sConfigOC, TIM_CHANNEL_1) != HAL_OK)
 8002758:	a931      	add	r1, sp, #196	@ 0xc4
 800275a:	4829      	ldr	r0, [pc, #164]	@ (8002800 <main+0x2f4>)
 800275c:	f003 f815 	bl	800578a <HAL_TIM_PWM_ConfigChannel>
 8002760:	2800      	cmp	r0, #0
 8002762:	f040 81f9 	bne.w	8002b58 <main+0x64c>
  sConfigOC.OCMode = TIM_OCMODE_PWM1;
 8002766:	2360      	movs	r3, #96	@ 0x60
 8002768:	9331      	str	r3, [sp, #196]	@ 0xc4
  sConfigOC.Pulse = 70;
 800276a:	2346      	movs	r3, #70	@ 0x46
 800276c:	9332      	str	r3, [sp, #200]	@ 0xc8
  sConfigOC.OCIdleState = TIM_OCIDLESTATE_SET;
 800276e:	f44f 7380 	mov.w	r3, #256	@ 0x100
 8002772:	9336      	str	r3, [sp, #216]	@ 0xd8
  if (HAL_TIM_PWM_ConfigChannel(&htim1, &sConfigOC, TIM_CHANNEL_2) != HAL_OK)
 8002774:	2204      	movs	r2, #4
 8002776:	a931      	add	r1, sp, #196	@ 0xc4
 8002778:	4821      	ldr	r0, [pc, #132]	@ (8002800 <main+0x2f4>)
 800277a:	f003 f806 	bl	800578a <HAL_TIM_PWM_ConfigChannel>
 800277e:	2800      	cmp	r0, #0
 8002780:	f040 81ec 	bne.w	8002b5c <main+0x650>
  sConfigOC.Pulse = 1;
 8002784:	2301      	movs	r3, #1
 8002786:	9332      	str	r3, [sp, #200]	@ 0xc8
  sConfigOC.OCIdleState = TIM_OCIDLESTATE_RESET;
 8002788:	2300      	movs	r3, #0
 800278a:	9336      	str	r3, [sp, #216]	@ 0xd8
  if (HAL_TIM_PWM_ConfigChannel(&htim1, &sConfigOC, TIM_CHANNEL_3) != HAL_OK)
 800278c:	2208      	movs	r2, #8
 800278e:	a931      	add	r1, sp, #196	@ 0xc4
 8002790:	481b      	ldr	r0, [pc, #108]	@ (8002800 <main+0x2f4>)
 8002792:	f002 fffa 	bl	800578a <HAL_TIM_PWM_ConfigChannel>
 8002796:	2800      	cmp	r0, #0
 8002798:	f040 81e2 	bne.w	8002b60 <main+0x654>
  sBreakDeadTimeConfig.OffStateRunMode = TIM_OSSR_DISABLE;
 800279c:	2300      	movs	r3, #0
 800279e:	9338      	str	r3, [sp, #224]	@ 0xe0
  sBreakDeadTimeConfig.OffStateIDLEMode = TIM_OSSI_DISABLE;
 80027a0:	9339      	str	r3, [sp, #228]	@ 0xe4
  sBreakDeadTimeConfig.LockLevel = TIM_LOCKLEVEL_OFF;
 80027a2:	933a      	str	r3, [sp, #232]	@ 0xe8
  sBreakDeadTimeConfig.DeadTime = 0;
 80027a4:	933b      	str	r3, [sp, #236]	@ 0xec
  sBreakDeadTimeConfig.BreakState = TIM_BREAK_DISABLE;
 80027a6:	933c      	str	r3, [sp, #240]	@ 0xf0
  sBreakDeadTimeConfig.BreakPolarity = TIM_BREAKPOLARITY_HIGH;
 80027a8:	f44f 5200 	mov.w	r2, #8192	@ 0x2000
 80027ac:	923d      	str	r2, [sp, #244]	@ 0xf4
  sBreakDeadTimeConfig.AutomaticOutput = TIM_AUTOMATICOUTPUT_DISABLE;
 80027ae:	933f      	str	r3, [sp, #252]	@ 0xfc
  if (HAL_TIMEx_ConfigBreakDeadTime(&htim1, &sBreakDeadTimeConfig) != HAL_OK)
 80027b0:	a938      	add	r1, sp, #224	@ 0xe0
 80027b2:	4813      	ldr	r0, [pc, #76]	@ (8002800 <main+0x2f4>)
 80027b4:	f003 f9c0 	bl	8005b38 <HAL_TIMEx_ConfigBreakDeadTime>
 80027b8:	2800      	cmp	r0, #0
 80027ba:	f040 81d3 	bne.w	8002b64 <main+0x658>
  HAL_TIM_MspPostInit(&htim1);
 80027be:	4810      	ldr	r0, [pc, #64]	@ (8002800 <main+0x2f4>)
 80027c0:	f000 fd40 	bl	8003244 <HAL_TIM_MspPostInit>
  ADC_ChannelConfTypeDef sConfig = {0};
 80027c4:	2300      	movs	r3, #0
 80027c6:	9338      	str	r3, [sp, #224]	@ 0xe0
 80027c8:	9339      	str	r3, [sp, #228]	@ 0xe4
 80027ca:	933a      	str	r3, [sp, #232]	@ 0xe8
 80027cc:	e01c      	b.n	8002808 <main+0x2fc>
 80027ce:	bf00      	nop
 80027d0:	40021000 	.word	0x40021000
 80027d4:	40010c00 	.word	0x40010c00
 80027d8:	10110000 	.word	0x10110000
 80027dc:	2000069c 	.word	0x2000069c
 80027e0:	40012400 	.word	0x40012400
 80027e4:	200005d4 	.word	0x200005d4
 80027e8:	40005400 	.word	0x40005400
 80027ec:	00061a80 	.word	0x00061a80
 80027f0:	2000046c 	.word	0x2000046c
 80027f4:	40013800 	.word	0x40013800
 80027f8:	20000424 	.word	0x20000424
 80027fc:	40004800 	.word	0x40004800
 8002800:	2000058c 	.word	0x2000058c
 8002804:	40012c00 	.word	0x40012c00
  hadc2.Instance = ADC2;
 8002808:	48b4      	ldr	r0, [pc, #720]	@ (8002adc <main+0x5d0>)
 800280a:	4ab5      	ldr	r2, [pc, #724]	@ (8002ae0 <main+0x5d4>)
 800280c:	6002      	str	r2, [r0, #0]
  hadc2.Init.ScanConvMode = ADC_SCAN_ENABLE;
 800280e:	f44f 7280 	mov.w	r2, #256	@ 0x100
 8002812:	6082      	str	r2, [r0, #8]
  hadc2.Init.ContinuousConvMode = ENABLE;
 8002814:	2201      	movs	r2, #1
 8002816:	7302      	strb	r2, [r0, #12]
  hadc2.Init.DiscontinuousConvMode = DISABLE;
 8002818:	7503      	strb	r3, [r0, #20]
  hadc2.Init.ExternalTrigConv = ADC_SOFTWARE_START;
 800281a:	f44f 2260 	mov.w	r2, #917504	@ 0xe0000
 800281e:	61c2      	str	r2, [r0, #28]
  hadc2.Init.DataAlign = ADC_DATAALIGN_RIGHT;
 8002820:	6043      	str	r3, [r0, #4]
  hadc2.Init.NbrOfConversion = 3;
 8002822:	2303      	movs	r3, #3
 8002824:	6103      	str	r3, [r0, #16]
  if (HAL_ADC_Init(&hadc2) != HAL_OK)
 8002826:	f001 fa5d 	bl	8003ce4 <HAL_ADC_Init>
 800282a:	2800      	cmp	r0, #0
 800282c:	f040 819c 	bne.w	8002b68 <main+0x65c>
  sConfig.Channel = ADC_CHANNEL_1;
 8002830:	2301      	movs	r3, #1
 8002832:	9338      	str	r3, [sp, #224]	@ 0xe0
  sConfig.Rank = ADC_REGULAR_RANK_1;
 8002834:	9339      	str	r3, [sp, #228]	@ 0xe4
  sConfig.SamplingTime = ADC_SAMPLETIME_1CYCLE_5;
 8002836:	2300      	movs	r3, #0
 8002838:	933a      	str	r3, [sp, #232]	@ 0xe8
  if (HAL_ADC_ConfigChannel(&hadc2, &sConfig) != HAL_OK)
 800283a:	a938      	add	r1, sp, #224	@ 0xe0
 800283c:	48a7      	ldr	r0, [pc, #668]	@ (8002adc <main+0x5d0>)
 800283e:	f001 f829 	bl	8003894 <HAL_ADC_ConfigChannel>
 8002842:	2800      	cmp	r0, #0
 8002844:	f040 8192 	bne.w	8002b6c <main+0x660>
  sConfig.Channel = ADC_CHANNEL_2;
 8002848:	2302      	movs	r3, #2
 800284a:	9338      	str	r3, [sp, #224]	@ 0xe0
  sConfig.Rank = ADC_REGULAR_RANK_2;
 800284c:	9339      	str	r3, [sp, #228]	@ 0xe4
  if (HAL_ADC_ConfigChannel(&hadc2, &sConfig) != HAL_OK)
 800284e:	a938      	add	r1, sp, #224	@ 0xe0
 8002850:	48a2      	ldr	r0, [pc, #648]	@ (8002adc <main+0x5d0>)
 8002852:	f001 f81f 	bl	8003894 <HAL_ADC_ConfigChannel>
 8002856:	2800      	cmp	r0, #0
 8002858:	f040 818a 	bne.w	8002b70 <main+0x664>
  sConfig.Channel = ADC_CHANNEL_3;
 800285c:	2303      	movs	r3, #3
 800285e:	9338      	str	r3, [sp, #224]	@ 0xe0
  sConfig.Rank = ADC_REGULAR_RANK_3;
 8002860:	9339      	str	r3, [sp, #228]	@ 0xe4
  if (HAL_ADC_ConfigChannel(&hadc2, &sConfig) != HAL_OK)
 8002862:	a938      	add	r1, sp, #224	@ 0xe0
 8002864:	489d      	ldr	r0, [pc, #628]	@ (8002adc <main+0x5d0>)
 8002866:	f001 f815 	bl	8003894 <HAL_ADC_ConfigChannel>
 800286a:	2800      	cmp	r0, #0
 800286c:	f040 8182 	bne.w	8002b74 <main+0x668>
  TIM_ClockConfigTypeDef sClockSourceConfig = {0};
 8002870:	2300      	movs	r3, #0
 8002872:	9331      	str	r3, [sp, #196]	@ 0xc4
 8002874:	9332      	str	r3, [sp, #200]	@ 0xc8
 8002876:	9333      	str	r3, [sp, #204]	@ 0xcc
 8002878:	9334      	str	r3, [sp, #208]	@ 0xd0
  TIM_MasterConfigTypeDef sMasterConfig = {0};
 800287a:	932d      	str	r3, [sp, #180]	@ 0xb4
 800287c:	932e      	str	r3, [sp, #184]	@ 0xb8
  TIM_OC_InitTypeDef sConfigOC = {0};
 800287e:	9338      	str	r3, [sp, #224]	@ 0xe0
 8002880:	9339      	str	r3, [sp, #228]	@ 0xe4
 8002882:	933a      	str	r3, [sp, #232]	@ 0xe8
 8002884:	933b      	str	r3, [sp, #236]	@ 0xec
 8002886:	933c      	str	r3, [sp, #240]	@ 0xf0
 8002888:	933d      	str	r3, [sp, #244]	@ 0xf4
 800288a:	933e      	str	r3, [sp, #248]	@ 0xf8
  htim3.Instance = TIM3;
 800288c:	4895      	ldr	r0, [pc, #596]	@ (8002ae4 <main+0x5d8>)
 800288e:	4a96      	ldr	r2, [pc, #600]	@ (8002ae8 <main+0x5dc>)
 8002890:	6002      	str	r2, [r0, #0]
  htim3.Init.Prescaler = 0;
 8002892:	6043      	str	r3, [r0, #4]
  htim3.Init.CounterMode = TIM_COUNTERMODE_UP;
 8002894:	6083      	str	r3, [r0, #8]
  htim3.Init.Period = 720;
 8002896:	f44f 7234 	mov.w	r2, #720	@ 0x2d0
 800289a:	60c2      	str	r2, [r0, #12]
  htim3.Init.ClockDivision = TIM_CLOCKDIVISION_DIV1;
 800289c:	6103      	str	r3, [r0, #16]
  htim3.Init.AutoReloadPreload = TIM_AUTORELOAD_PRELOAD_DISABLE;
 800289e:	6183      	str	r3, [r0, #24]
  if (HAL_TIM_Base_Init(&htim3) != HAL_OK)
 80028a0:	f002 fe92 	bl	80055c8 <HAL_TIM_Base_Init>
 80028a4:	2800      	cmp	r0, #0
 80028a6:	f040 8167 	bne.w	8002b78 <main+0x66c>
  sClockSourceConfig.ClockSource = TIM_CLOCKSOURCE_INTERNAL;
 80028aa:	f44f 5380 	mov.w	r3, #4096	@ 0x1000
 80028ae:	9331      	str	r3, [sp, #196]	@ 0xc4
  if (HAL_TIM_ConfigClockSource(&htim3, &sClockSourceConfig) != HAL_OK)
 80028b0:	a931      	add	r1, sp, #196	@ 0xc4
 80028b2:	488c      	ldr	r0, [pc, #560]	@ (8002ae4 <main+0x5d8>)
 80028b4:	f002 ffe3 	bl	800587e <HAL_TIM_ConfigClockSource>
 80028b8:	2800      	cmp	r0, #0
 80028ba:	f040 815f 	bne.w	8002b7c <main+0x670>
  if (HAL_TIM_PWM_Init(&htim3) != HAL_OK)
 80028be:	4889      	ldr	r0, [pc, #548]	@ (8002ae4 <main+0x5d8>)
 80028c0:	f002 feda 	bl	8005678 <HAL_TIM_PWM_Init>
 80028c4:	2800      	cmp	r0, #0
 80028c6:	f040 815b 	bne.w	8002b80 <main+0x674>
  sMasterConfig.MasterOutputTrigger = TIM_TRGO_RESET;
 80028ca:	2300      	movs	r3, #0
 80028cc:	932d      	str	r3, [sp, #180]	@ 0xb4
  sMasterConfig.MasterSlaveMode = TIM_MASTERSLAVEMODE_DISABLE;
 80028ce:	932e      	str	r3, [sp, #184]	@ 0xb8
  if (HAL_TIMEx_MasterConfigSynchronization(&htim3, &sMasterConfig) != HAL_OK)
 80028d0:	a92d      	add	r1, sp, #180	@ 0xb4
 80028d2:	4884      	ldr	r0, [pc, #528]	@ (8002ae4 <main+0x5d8>)
 80028d4:	f003 f8fc 	bl	8005ad0 <HAL_TIMEx_MasterConfigSynchronization>
 80028d8:	2800      	cmp	r0, #0
 80028da:	f040 8153 	bne.w	8002b84 <main+0x678>
  sConfigOC.OCMode = TIM_OCMODE_PWM1;
 80028de:	2360      	movs	r3, #96	@ 0x60
 80028e0:	9338      	str	r3, [sp, #224]	@ 0xe0
  sConfigOC.Pulse = 0;
 80028e2:	2200      	movs	r2, #0
 80028e4:	9239      	str	r2, [sp, #228]	@ 0xe4
  sConfigOC.OCPolarity = TIM_OCPOLARITY_HIGH;
 80028e6:	923a      	str	r2, [sp, #232]	@ 0xe8
  sConfigOC.OCFastMode = TIM_OCFAST_DISABLE;
 80028e8:	923c      	str	r2, [sp, #240]	@ 0xf0
  if (HAL_TIM_PWM_ConfigChannel(&htim3, &sConfigOC, TIM_CHANNEL_1) != HAL_OK)
 80028ea:	a938      	add	r1, sp, #224	@ 0xe0
 80028ec:	487d      	ldr	r0, [pc, #500]	@ (8002ae4 <main+0x5d8>)
 80028ee:	f002 ff4c 	bl	800578a <HAL_TIM_PWM_ConfigChannel>
 80028f2:	2800      	cmp	r0, #0
 80028f4:	f040 8148 	bne.w	8002b88 <main+0x67c>
  HAL_TIM_MspPostInit(&htim3);
 80028f8:	487a      	ldr	r0, [pc, #488]	@ (8002ae4 <main+0x5d8>)
 80028fa:	f000 fca3 	bl	8003244 <HAL_TIM_MspPostInit>
  TIM_ClockConfigTypeDef sClockSourceConfig = {0};
 80028fe:	2300      	movs	r3, #0
 8002900:	9331      	str	r3, [sp, #196]	@ 0xc4
 8002902:	9332      	str	r3, [sp, #200]	@ 0xc8
 8002904:	9333      	str	r3, [sp, #204]	@ 0xcc
 8002906:	9334      	str	r3, [sp, #208]	@ 0xd0
  TIM_MasterConfigTypeDef sMasterConfig = {0};
 8002908:	932d      	str	r3, [sp, #180]	@ 0xb4
 800290a:	932e      	str	r3, [sp, #184]	@ 0xb8
  TIM_OC_InitTypeDef sConfigOC = {0};
 800290c:	9338      	str	r3, [sp, #224]	@ 0xe0
 800290e:	9339      	str	r3, [sp, #228]	@ 0xe4
 8002910:	933a      	str	r3, [sp, #232]	@ 0xe8
 8002912:	933b      	str	r3, [sp, #236]	@ 0xec
 8002914:	933c      	str	r3, [sp, #240]	@ 0xf0
 8002916:	933d      	str	r3, [sp, #244]	@ 0xf4
 8002918:	933e      	str	r3, [sp, #248]	@ 0xf8
  htim4.Instance = TIM4;
 800291a:	4874      	ldr	r0, [pc, #464]	@ (8002aec <main+0x5e0>)
 800291c:	4a74      	ldr	r2, [pc, #464]	@ (8002af0 <main+0x5e4>)
 800291e:	6002      	str	r2, [r0, #0]
  htim4.Init.Prescaler = 0;
 8002920:	6043      	str	r3, [r0, #4]
  htim4.Init.CounterMode = TIM_COUNTERMODE_UP;
 8002922:	6083      	str	r3, [r0, #8]
  htim4.Init.Period = 72-1;
 8002924:	2247      	movs	r2, #71	@ 0x47
 8002926:	60c2      	str	r2, [r0, #12]
  htim4.Init.ClockDivision = TIM_CLOCKDIVISION_DIV1;
 8002928:	6103      	str	r3, [r0, #16]
  htim4.Init.AutoReloadPreload = TIM_AUTORELOAD_PRELOAD_DISABLE;
 800292a:	6183      	str	r3, [r0, #24]
  if (HAL_TIM_Base_Init(&htim4) != HAL_OK)
 800292c:	f002 fe4c 	bl	80055c8 <HAL_TIM_Base_Init>
 8002930:	2800      	cmp	r0, #0
 8002932:	f040 812b 	bne.w	8002b8c <main+0x680>
  sClockSourceConfig.ClockSource = TIM_CLOCKSOURCE_INTERNAL;
 8002936:	f44f 5380 	mov.w	r3, #4096	@ 0x1000
 800293a:	9331      	str	r3, [sp, #196]	@ 0xc4
  if (HAL_TIM_ConfigClockSource(&htim4, &sClockSourceConfig) != HAL_OK)
 800293c:	a931      	add	r1, sp, #196	@ 0xc4
 800293e:	486b      	ldr	r0, [pc, #428]	@ (8002aec <main+0x5e0>)
 8002940:	f002 ff9d 	bl	800587e <HAL_TIM_ConfigClockSource>
 8002944:	2800      	cmp	r0, #0
 8002946:	f040 8123 	bne.w	8002b90 <main+0x684>
  if (HAL_TIM_OC_Init(&htim4) != HAL_OK)
 800294a:	4868      	ldr	r0, [pc, #416]	@ (8002aec <main+0x5e0>)
 800294c:	f002 fe68 	bl	8005620 <HAL_TIM_OC_Init>
 8002950:	2800      	cmp	r0, #0
 8002952:	f040 811f 	bne.w	8002b94 <main+0x688>
  sMasterConfig.MasterOutputTrigger = TIM_TRGO_RESET;
 8002956:	2300      	movs	r3, #0
 8002958:	932d      	str	r3, [sp, #180]	@ 0xb4
  sMasterConfig.MasterSlaveMode = TIM_MASTERSLAVEMODE_DISABLE;
 800295a:	932e      	str	r3, [sp, #184]	@ 0xb8
  if (HAL_TIMEx_MasterConfigSynchronization(&htim4, &sMasterConfig) != HAL_OK)
 800295c:	a92d      	add	r1, sp, #180	@ 0xb4
 800295e:	4863      	ldr	r0, [pc, #396]	@ (8002aec <main+0x5e0>)
 8002960:	f003 f8b6 	bl	8005ad0 <HAL_TIMEx_MasterConfigSynchronization>
 8002964:	2800      	cmp	r0, #0
 8002966:	f040 8117 	bne.w	8002b98 <main+0x68c>
  sConfigOC.OCMode = TIM_OCMODE_TOGGLE;
 800296a:	2330      	movs	r3, #48	@ 0x30
 800296c:	9338      	str	r3, [sp, #224]	@ 0xe0
  sConfigOC.Pulse = 36;
 800296e:	2324      	movs	r3, #36	@ 0x24
 8002970:	9339      	str	r3, [sp, #228]	@ 0xe4
  sConfigOC.OCPolarity = TIM_OCPOLARITY_HIGH;
 8002972:	2300      	movs	r3, #0
 8002974:	933a      	str	r3, [sp, #232]	@ 0xe8
  sConfigOC.OCFastMode = TIM_OCFAST_DISABLE;
 8002976:	933c      	str	r3, [sp, #240]	@ 0xf0
  if (HAL_TIM_OC_ConfigChannel(&htim4, &sConfigOC, TIM_CHANNEL_4) != HAL_OK)
 8002978:	220c      	movs	r2, #12
 800297a:	a938      	add	r1, sp, #224	@ 0xe0
 800297c:	485b      	ldr	r0, [pc, #364]	@ (8002aec <main+0x5e0>)
 800297e:	f002 fed5 	bl	800572c <HAL_TIM_OC_ConfigChannel>
 8002982:	2800      	cmp	r0, #0
 8002984:	f040 810a 	bne.w	8002b9c <main+0x690>
  TIM_ClockConfigTypeDef sClockSourceConfig = {0};
 8002988:	2300      	movs	r3, #0
 800298a:	9338      	str	r3, [sp, #224]	@ 0xe0
 800298c:	9339      	str	r3, [sp, #228]	@ 0xe4
 800298e:	933a      	str	r3, [sp, #232]	@ 0xe8
 8002990:	933b      	str	r3, [sp, #236]	@ 0xec
  TIM_MasterConfigTypeDef sMasterConfig = {0};
 8002992:	9331      	str	r3, [sp, #196]	@ 0xc4
 8002994:	9332      	str	r3, [sp, #200]	@ 0xc8
  htim2.Instance = TIM2;
 8002996:	4857      	ldr	r0, [pc, #348]	@ (8002af4 <main+0x5e8>)
 8002998:	f04f 4280 	mov.w	r2, #1073741824	@ 0x40000000
 800299c:	6002      	str	r2, [r0, #0]
  htim2.Init.Prescaler = 7200-1;
 800299e:	f641 421f 	movw	r2, #7199	@ 0x1c1f
 80029a2:	6042      	str	r2, [r0, #4]
  htim2.Init.CounterMode = TIM_COUNTERMODE_UP;
 80029a4:	6083      	str	r3, [r0, #8]
  htim2.Init.Period = 10000-1;
 80029a6:	f242 720f 	movw	r2, #9999	@ 0x270f
 80029aa:	60c2      	str	r2, [r0, #12]
  htim2.Init.ClockDivision = TIM_CLOCKDIVISION_DIV1;
 80029ac:	6103      	str	r3, [r0, #16]
  htim2.Init.AutoReloadPreload = TIM_AUTORELOAD_PRELOAD_DISABLE;
 80029ae:	6183      	str	r3, [r0, #24]
  if (HAL_TIM_Base_Init(&htim2) != HAL_OK)
 80029b0:	f002 fe0a 	bl	80055c8 <HAL_TIM_Base_Init>
 80029b4:	2800      	cmp	r0, #0
 80029b6:	f040 80f3 	bne.w	8002ba0 <main+0x694>
  sClockSourceConfig.ClockSource = TIM_CLOCKSOURCE_INTERNAL;
 80029ba:	f44f 5380 	mov.w	r3, #4096	@ 0x1000
 80029be:	9338      	str	r3, [sp, #224]	@ 0xe0
  if (HAL_TIM_ConfigClockSource(&htim2, &sClockSourceConfig) != HAL_OK)
 80029c0:	a938      	add	r1, sp, #224	@ 0xe0
 80029c2:	484c      	ldr	r0, [pc, #304]	@ (8002af4 <main+0x5e8>)
 80029c4:	f002 ff5b 	bl	800587e <HAL_TIM_ConfigClockSource>
 80029c8:	2800      	cmp	r0, #0
 80029ca:	f040 80eb 	bne.w	8002ba4 <main+0x698>
  sMasterConfig.MasterOutputTrigger = TIM_TRGO_RESET;
 80029ce:	2300      	movs	r3, #0
 80029d0:	9331      	str	r3, [sp, #196]	@ 0xc4
  sMasterConfig.MasterSlaveMode = TIM_MASTERSLAVEMODE_DISABLE;
 80029d2:	9332      	str	r3, [sp, #200]	@ 0xc8
  if (HAL_TIMEx_MasterConfigSynchronization(&htim2, &sMasterConfig) != HAL_OK)
 80029d4:	a931      	add	r1, sp, #196	@ 0xc4
 80029d6:	4847      	ldr	r0, [pc, #284]	@ (8002af4 <main+0x5e8>)
 80029d8:	f003 f87a 	bl	8005ad0 <HAL_TIMEx_MasterConfigSynchronization>
 80029dc:	2800      	cmp	r0, #0
 80029de:	f040 80e3 	bne.w	8002ba8 <main+0x69c>
  HAL_ADC_Start(&hadc1);
 80029e2:	4d45      	ldr	r5, [pc, #276]	@ (8002af8 <main+0x5ec>)
 80029e4:	4628      	mov	r0, r5
 80029e6:	f001 f845 	bl	8003a74 <HAL_ADC_Start>
  ssd1306_Init();
 80029ea:	f000 f9ed 	bl	8002dc8 <ssd1306_Init>
  ssd1306_WelcomeView();
 80029ee:	f7fe fe73 	bl	80016d8 <ssd1306_WelcomeView>
  HAL_TIM_Base_Start_IT(&htim2);
 80029f2:	4840      	ldr	r0, [pc, #256]	@ (8002af4 <main+0x5e8>)
 80029f4:	f002 fca2 	bl	800533c <HAL_TIM_Base_Start_IT>
  HAL_TIM_Base_Start(&htim1);
 80029f8:	4c40      	ldr	r4, [pc, #256]	@ (8002afc <main+0x5f0>)
 80029fa:	4620      	mov	r0, r4
 80029fc:	f002 fc70 	bl	80052e0 <HAL_TIM_Base_Start>
  HAL_TIM_PWM_Start(&htim1, TIM_CHANNEL_1);
 8002a00:	2100      	movs	r1, #0
 8002a02:	4620      	mov	r0, r4
 8002a04:	f003 f800 	bl	8005a08 <HAL_TIM_PWM_Start>
  HAL_TIM_PWM_Start(&htim1, TIM_CHANNEL_2);
 8002a08:	2104      	movs	r1, #4
 8002a0a:	4620      	mov	r0, r4
 8002a0c:	f002 fffc 	bl	8005a08 <HAL_TIM_PWM_Start>
  HAL_TIM_Base_Start(&htim3);
 8002a10:	4c34      	ldr	r4, [pc, #208]	@ (8002ae4 <main+0x5d8>)
 8002a12:	4620      	mov	r0, r4
 8002a14:	f002 fc64 	bl	80052e0 <HAL_TIM_Base_Start>
  HAL_TIM_PWM_Start(&htim3, TIM_CHANNEL_1);
 8002a18:	2100      	movs	r1, #0
 8002a1a:	4620      	mov	r0, r4
 8002a1c:	f002 fff4 	bl	8005a08 <HAL_TIM_PWM_Start>
  HAL_TIM_Base_Start(&htim4);
 8002a20:	4832      	ldr	r0, [pc, #200]	@ (8002aec <main+0x5e0>)
 8002a22:	f002 fc5d 	bl	80052e0 <HAL_TIM_Base_Start>
  HAL_ADC_Start_DMA(&hadc1, (uint32_t*)PUMP, 2);
 8002a26:	2202      	movs	r2, #2
 8002a28:	4935      	ldr	r1, [pc, #212]	@ (8002b00 <main+0x5f4>)
 8002a2a:	4628      	mov	r0, r5
 8002a2c:	f001 f894 	bl	8003b58 <HAL_ADC_Start_DMA>
  ESP_UART_Init(&huart3);
 8002a30:	4834      	ldr	r0, [pc, #208]	@ (8002b04 <main+0x5f8>)
 8002a32:	f7fe faeb 	bl	800100c <ESP_UART_Init>
  ESP_INIT_BASE();
 8002a36:	f7fe fcab 	bl	8001390 <ESP_INIT_BASE>
  HAL_Delay(100);
 8002a3a:	2064      	movs	r0, #100	@ 0x64
 8002a3c:	f000 fe56 	bl	80036ec <HAL_Delay>
	WiFiInfo=ESP_CheckWiFi();
 8002a40:	a818      	add	r0, sp, #96	@ 0x60
 8002a42:	f7fe fb29 	bl	8001098 <ESP_CheckWiFi>
 8002a46:	ac18      	add	r4, sp, #96	@ 0x60
 8002a48:	4e2f      	ldr	r6, [pc, #188]	@ (8002b08 <main+0x5fc>)
 8002a4a:	af24      	add	r7, sp, #144	@ 0x90
 8002a4c:	4635      	mov	r5, r6
 8002a4e:	6820      	ldr	r0, [r4, #0]
 8002a50:	6861      	ldr	r1, [r4, #4]
 8002a52:	68a2      	ldr	r2, [r4, #8]
 8002a54:	68e3      	ldr	r3, [r4, #12]
 8002a56:	c50f      	stmia	r5!, {r0, r1, r2, r3}
 8002a58:	3410      	adds	r4, #16
 8002a5a:	462e      	mov	r6, r5
 8002a5c:	42bc      	cmp	r4, r7
 8002a5e:	d1f5      	bne.n	8002a4c <main+0x540>
 8002a60:	6820      	ldr	r0, [r4, #0]
 8002a62:	6028      	str	r0, [r5, #0]
 8002a64:	7923      	ldrb	r3, [r4, #4]
 8002a66:	712b      	strb	r3, [r5, #4]
	  HAL_Delay(100);
 8002a68:	2064      	movs	r0, #100	@ 0x64
 8002a6a:	f000 fe3f 	bl	80036ec <HAL_Delay>
	IPInfo=ESP_GetIPInfo();
 8002a6e:	a806      	add	r0, sp, #24
 8002a70:	f7fe fb88 	bl	8001184 <ESP_GetIPInfo>
 8002a74:	2244      	movs	r2, #68	@ 0x44
 8002a76:	a906      	add	r1, sp, #24
 8002a78:	4824      	ldr	r0, [pc, #144]	@ (8002b0c <main+0x600>)
 8002a7a:	f004 fd7c 	bl	8007576 <memcpy>
  ssd1306_NetWorkView();
 8002a7e:	f7fe fefb 	bl	8001878 <ssd1306_NetWorkView>
  Buzzer_Init(&buzzer);
 8002a82:	4c23      	ldr	r4, [pc, #140]	@ (8002b10 <main+0x604>)
 8002a84:	4620      	mov	r0, r4
 8002a86:	f7fe fdcb 	bl	8001620 <Buzzer_Init>
  Buzzer_SetVolume(&buzzer, 36);
 8002a8a:	2124      	movs	r1, #36	@ 0x24
 8002a8c:	4620      	mov	r0, r4
 8002a8e:	f7fe fdb3 	bl	80015f8 <Buzzer_SetVolume>
  HAL_Delay(100);
 8002a92:	2064      	movs	r0, #100	@ 0x64
 8002a94:	f000 fe2a 	bl	80036ec <HAL_Delay>
  Buzzer_SetFrequency(&buzzer, 200);
 8002a98:	21c8      	movs	r1, #200	@ 0xc8
 8002a9a:	4620      	mov	r0, r4
 8002a9c:	f7fe fda0 	bl	80015e0 <Buzzer_SetFrequency>
  HAL_Delay(100);
 8002aa0:	2064      	movs	r0, #100	@ 0x64
 8002aa2:	f000 fe23 	bl	80036ec <HAL_Delay>
  Buzzer_SetFrequency(&buzzer, 300);
 8002aa6:	f44f 7196 	mov.w	r1, #300	@ 0x12c
 8002aaa:	4620      	mov	r0, r4
 8002aac:	f7fe fd98 	bl	80015e0 <Buzzer_SetFrequency>
  HAL_Delay(100);
 8002ab0:	2064      	movs	r0, #100	@ 0x64
 8002ab2:	f000 fe1b 	bl	80036ec <HAL_Delay>
  Buzzer_SetFrequency(&buzzer, 400);
 8002ab6:	f44f 71c8 	mov.w	r1, #400	@ 0x190
 8002aba:	4620      	mov	r0, r4
 8002abc:	f7fe fd90 	bl	80015e0 <Buzzer_SetFrequency>
  HAL_Delay(100);
 8002ac0:	2064      	movs	r0, #100	@ 0x64
 8002ac2:	f000 fe13 	bl	80036ec <HAL_Delay>
  Buzzer_SetFrequency(&buzzer, 500);
 8002ac6:	f44f 71fa 	mov.w	r1, #500	@ 0x1f4
 8002aca:	4620      	mov	r0, r4
 8002acc:	f7fe fd88 	bl	80015e0 <Buzzer_SetFrequency>
  HAL_Delay(100);
 8002ad0:	2064      	movs	r0, #100	@ 0x64
 8002ad2:	f000 fe0b 	bl	80036ec <HAL_Delay>
  Buzzer_SetVolume(&buzzer, 2);
 8002ad6:	2102      	movs	r1, #2
 8002ad8:	e01c      	b.n	8002b14 <main+0x608>
 8002ada:	bf00      	nop
 8002adc:	2000066c 	.word	0x2000066c
 8002ae0:	40012800 	.word	0x40012800
 8002ae4:	200004fc 	.word	0x200004fc
 8002ae8:	40000400 	.word	0x40000400
 8002aec:	200004b4 	.word	0x200004b4
 8002af0:	40000800 	.word	0x40000800
 8002af4:	20000544 	.word	0x20000544
 8002af8:	2000069c 	.word	0x2000069c
 8002afc:	2000058c 	.word	0x2000058c
 8002b00:	20000398 	.word	0x20000398
 8002b04:	20000424 	.word	0x20000424
 8002b08:	20000360 	.word	0x20000360
 8002b0c:	2000031c 	.word	0x2000031c
 8002b10:	200000ac 	.word	0x200000ac
 8002b14:	4620      	mov	r0, r4
 8002b16:	f7fe fd6f 	bl	80015f8 <Buzzer_SetVolume>
  Buzzer_SetVolume(&buzzer, 0);
 8002b1a:	2100      	movs	r1, #0
 8002b1c:	4620      	mov	r0, r4
 8002b1e:	f7fe fd6b 	bl	80015f8 <Buzzer_SetVolume>
  HAL_Delay(100);
 8002b22:	2064      	movs	r0, #100	@ 0x64
 8002b24:	f000 fde2 	bl	80036ec <HAL_Delay>
	  if (FLAG_CheckDHT) {
 8002b28:	4c6b      	ldr	r4, [pc, #428]	@ (8002cd8 <main+0x7cc>)
			DHT11_Info = DHT_getData(&DHT11_Sensor);
 8002b2a:	4d6c      	ldr	r5, [pc, #432]	@ (8002cdc <main+0x7d0>)
 8002b2c:	4e6c      	ldr	r6, [pc, #432]	@ (8002ce0 <main+0x7d4>)
 8002b2e:	e0b4      	b.n	8002c9a <main+0x78e>
 8002b30:	b672      	cpsid	i
  while (1)
 8002b32:	e7fe      	b.n	8002b32 <main+0x626>
 8002b34:	b672      	cpsid	i
 8002b36:	e7fe      	b.n	8002b36 <main+0x62a>
 8002b38:	b672      	cpsid	i
 8002b3a:	e7fe      	b.n	8002b3a <main+0x62e>
 8002b3c:	b672      	cpsid	i
 8002b3e:	e7fe      	b.n	8002b3e <main+0x632>
 8002b40:	b672      	cpsid	i
 8002b42:	e7fe      	b.n	8002b42 <main+0x636>
 8002b44:	b672      	cpsid	i
 8002b46:	e7fe      	b.n	8002b46 <main+0x63a>
 8002b48:	b672      	cpsid	i
 8002b4a:	e7fe      	b.n	8002b4a <main+0x63e>
 8002b4c:	b672      	cpsid	i
 8002b4e:	e7fe      	b.n	8002b4e <main+0x642>
 8002b50:	b672      	cpsid	i
 8002b52:	e7fe      	b.n	8002b52 <main+0x646>
 8002b54:	b672      	cpsid	i
 8002b56:	e7fe      	b.n	8002b56 <main+0x64a>
 8002b58:	b672      	cpsid	i
 8002b5a:	e7fe      	b.n	8002b5a <main+0x64e>
 8002b5c:	b672      	cpsid	i
 8002b5e:	e7fe      	b.n	8002b5e <main+0x652>
 8002b60:	b672      	cpsid	i
 8002b62:	e7fe      	b.n	8002b62 <main+0x656>
 8002b64:	b672      	cpsid	i
 8002b66:	e7fe      	b.n	8002b66 <main+0x65a>
 8002b68:	b672      	cpsid	i
 8002b6a:	e7fe      	b.n	8002b6a <main+0x65e>
 8002b6c:	b672      	cpsid	i
 8002b6e:	e7fe      	b.n	8002b6e <main+0x662>
 8002b70:	b672      	cpsid	i
 8002b72:	e7fe      	b.n	8002b72 <main+0x666>
 8002b74:	b672      	cpsid	i
 8002b76:	e7fe      	b.n	8002b76 <main+0x66a>
 8002b78:	b672      	cpsid	i
 8002b7a:	e7fe      	b.n	8002b7a <main+0x66e>
 8002b7c:	b672      	cpsid	i
 8002b7e:	e7fe      	b.n	8002b7e <main+0x672>
 8002b80:	b672      	cpsid	i
 8002b82:	e7fe      	b.n	8002b82 <main+0x676>
 8002b84:	b672      	cpsid	i
 8002b86:	e7fe      	b.n	8002b86 <main+0x67a>
 8002b88:	b672      	cpsid	i
 8002b8a:	e7fe      	b.n	8002b8a <main+0x67e>
 8002b8c:	b672      	cpsid	i
 8002b8e:	e7fe      	b.n	8002b8e <main+0x682>
 8002b90:	b672      	cpsid	i
 8002b92:	e7fe      	b.n	8002b92 <main+0x686>
 8002b94:	b672      	cpsid	i
 8002b96:	e7fe      	b.n	8002b96 <main+0x68a>
 8002b98:	b672      	cpsid	i
 8002b9a:	e7fe      	b.n	8002b9a <main+0x68e>
 8002b9c:	b672      	cpsid	i
 8002b9e:	e7fe      	b.n	8002b9e <main+0x692>
 8002ba0:	b672      	cpsid	i
 8002ba2:	e7fe      	b.n	8002ba2 <main+0x696>
 8002ba4:	b672      	cpsid	i
 8002ba6:	e7fe      	b.n	8002ba6 <main+0x69a>
 8002ba8:	b672      	cpsid	i
 8002baa:	e7fe      	b.n	8002baa <main+0x69e>
			DHT11_Info = DHT_getData(&DHT11_Sensor);
 8002bac:	af06      	add	r7, sp, #24
 8002bae:	4631      	mov	r1, r6
 8002bb0:	4638      	mov	r0, r7
 8002bb2:	f7fe fc03 	bl	80013bc <DHT_getData>
 8002bb6:	e897 0003 	ldmia.w	r7, {r0, r1}
 8002bba:	e885 0003 	stmia.w	r5, {r0, r1}
			FLAG_CheckDHT=0;
 8002bbe:	2300      	movs	r3, #0
 8002bc0:	7023      	strb	r3, [r4, #0]
 8002bc2:	e06d      	b.n	8002ca0 <main+0x794>
			sprintf(msg, "DATA:T:%lf,H:%lf,Duty:%d,U:%d,I:%d\r\n", DHT11_Info.temp,DHT11_Info.hum,PUMP_PWM,PUMP[0],PUMP[1]);
 8002bc4:	6868      	ldr	r0, [r5, #4]
 8002bc6:	f7fd fce3 	bl	8000590 <__aeabi_f2d>
 8002bca:	4680      	mov	r8, r0
 8002bcc:	4689      	mov	r9, r1
 8002bce:	4b45      	ldr	r3, [pc, #276]	@ (8002ce4 <main+0x7d8>)
 8002bd0:	885a      	ldrh	r2, [r3, #2]
 8002bd2:	9204      	str	r2, [sp, #16]
 8002bd4:	881b      	ldrh	r3, [r3, #0]
 8002bd6:	9303      	str	r3, [sp, #12]
 8002bd8:	4b43      	ldr	r3, [pc, #268]	@ (8002ce8 <main+0x7dc>)
 8002bda:	881b      	ldrh	r3, [r3, #0]
 8002bdc:	9302      	str	r3, [sp, #8]
 8002bde:	6828      	ldr	r0, [r5, #0]
 8002be0:	f7fd fcd6 	bl	8000590 <__aeabi_f2d>
 8002be4:	e9cd 0100 	strd	r0, r1, [sp]
 8002be8:	4642      	mov	r2, r8
 8002bea:	464b      	mov	r3, r9
 8002bec:	493f      	ldr	r1, [pc, #252]	@ (8002cec <main+0x7e0>)
 8002bee:	a838      	add	r0, sp, #224	@ 0xe0
 8002bf0:	f004 fb32 	bl	8007258 <siprintf>
			ESP_SendTCP(0,msg);
 8002bf4:	a938      	add	r1, sp, #224	@ 0xe0
 8002bf6:	2000      	movs	r0, #0
 8002bf8:	f7fe f9de 	bl	8000fb8 <ESP_SendTCP>
			  HAL_Delay(100);
 8002bfc:	2064      	movs	r0, #100	@ 0x64
 8002bfe:	f000 fd75 	bl	80036ec <HAL_Delay>
			  FLAG_SentTCP=0;
 8002c02:	4b3b      	ldr	r3, [pc, #236]	@ (8002cf0 <main+0x7e4>)
 8002c04:	2200      	movs	r2, #0
 8002c06:	701a      	strb	r2, [r3, #0]
 8002c08:	e04e      	b.n	8002ca8 <main+0x79c>
			WiFiInfo=ESP_CheckWiFi();
 8002c0a:	a806      	add	r0, sp, #24
 8002c0c:	f7fe fa44 	bl	8001098 <ESP_CheckWiFi>
 8002c10:	f10d 0c18 	add.w	ip, sp, #24
 8002c14:	4f37      	ldr	r7, [pc, #220]	@ (8002cf4 <main+0x7e8>)
 8002c16:	f10d 0848 	add.w	r8, sp, #72	@ 0x48
 8002c1a:	46be      	mov	lr, r7
 8002c1c:	f8dc 0000 	ldr.w	r0, [ip]
 8002c20:	f8dc 1004 	ldr.w	r1, [ip, #4]
 8002c24:	f8dc 2008 	ldr.w	r2, [ip, #8]
 8002c28:	f8dc 300c 	ldr.w	r3, [ip, #12]
 8002c2c:	e8ae 000f 	stmia.w	lr!, {r0, r1, r2, r3}
 8002c30:	f10c 0c10 	add.w	ip, ip, #16
 8002c34:	4677      	mov	r7, lr
 8002c36:	45c4      	cmp	ip, r8
 8002c38:	d1ef      	bne.n	8002c1a <main+0x70e>
 8002c3a:	f8dc 0000 	ldr.w	r0, [ip]
 8002c3e:	f8ce 0000 	str.w	r0, [lr]
 8002c42:	f89c 3004 	ldrb.w	r3, [ip, #4]
 8002c46:	f88e 3004 	strb.w	r3, [lr, #4]
			HAL_Delay(200);
 8002c4a:	20c8      	movs	r0, #200	@ 0xc8
 8002c4c:	f000 fd4e 	bl	80036ec <HAL_Delay>
			IPInfo=ESP_GetIPInfo();
 8002c50:	a806      	add	r0, sp, #24
 8002c52:	f7fe fa97 	bl	8001184 <ESP_GetIPInfo>
 8002c56:	2244      	movs	r2, #68	@ 0x44
 8002c58:	a906      	add	r1, sp, #24
 8002c5a:	4827      	ldr	r0, [pc, #156]	@ (8002cf8 <main+0x7ec>)
 8002c5c:	f004 fc8b 	bl	8007576 <memcpy>
			FLAG_CheckWifi=0;
 8002c60:	4b26      	ldr	r3, [pc, #152]	@ (8002cfc <main+0x7f0>)
 8002c62:	2200      	movs	r2, #0
 8002c64:	701a      	strb	r2, [r3, #0]
 8002c66:	e023      	b.n	8002cb0 <main+0x7a4>
			__HAL_TIM_SET_COMPARE(&htim1, TIM_CHANNEL_1, PWM_LED1_VAL);
 8002c68:	4a25      	ldr	r2, [pc, #148]	@ (8002d00 <main+0x7f4>)
 8002c6a:	8813      	ldrh	r3, [r2, #0]
 8002c6c:	4925      	ldr	r1, [pc, #148]	@ (8002d04 <main+0x7f8>)
 8002c6e:	6809      	ldr	r1, [r1, #0]
 8002c70:	634b      	str	r3, [r1, #52]	@ 0x34
			__HAL_TIM_SET_COMPARE(&htim1, TIM_CHANNEL_2, PWM_LED1_VAL);
 8002c72:	638b      	str	r3, [r1, #56]	@ 0x38
			if (--PWM_LED1_VAL==0) {
 8002c74:	3b01      	subs	r3, #1
 8002c76:	b29b      	uxth	r3, r3
 8002c78:	8013      	strh	r3, [r2, #0]
 8002c7a:	b913      	cbnz	r3, 8002c82 <main+0x776>
				PWM_LED_Inverse=1;
 8002c7c:	4b22      	ldr	r3, [pc, #136]	@ (8002d08 <main+0x7fc>)
 8002c7e:	2201      	movs	r2, #1
 8002c80:	701a      	strb	r2, [r3, #0]
	    convertSecondsToTime(CNT_TIMER2, &Time);
 8002c82:	4b22      	ldr	r3, [pc, #136]	@ (8002d0c <main+0x800>)
 8002c84:	6818      	ldr	r0, [r3, #0]
 8002c86:	4922      	ldr	r1, [pc, #136]	@ (8002d10 <main+0x804>)
 8002c88:	f7ff fbe8 	bl	800245c <convertSecondsToTime>
		KeyHandeler(CurrentView);
 8002c8c:	4f21      	ldr	r7, [pc, #132]	@ (8002d14 <main+0x808>)
 8002c8e:	7838      	ldrb	r0, [r7, #0]
 8002c90:	f7ff fbaa 	bl	80023e8 <KeyHandeler>
		ShowView(CurrentView);
 8002c94:	7838      	ldrb	r0, [r7, #0]
 8002c96:	f7ff fbc2 	bl	800241e <ShowView>
	  if (FLAG_CheckDHT) {
 8002c9a:	7823      	ldrb	r3, [r4, #0]
 8002c9c:	2b00      	cmp	r3, #0
 8002c9e:	d185      	bne.n	8002bac <main+0x6a0>
		if (FLAG_SentTCP) {
 8002ca0:	4b13      	ldr	r3, [pc, #76]	@ (8002cf0 <main+0x7e4>)
 8002ca2:	781b      	ldrb	r3, [r3, #0]
 8002ca4:	2b00      	cmp	r3, #0
 8002ca6:	d18d      	bne.n	8002bc4 <main+0x6b8>
		if (FLAG_CheckWifi) {
 8002ca8:	4b14      	ldr	r3, [pc, #80]	@ (8002cfc <main+0x7f0>)
 8002caa:	781b      	ldrb	r3, [r3, #0]
 8002cac:	2b00      	cmp	r3, #0
 8002cae:	d1ac      	bne.n	8002c0a <main+0x6fe>
		if (PWM_LED_Inverse) {
 8002cb0:	4b15      	ldr	r3, [pc, #84]	@ (8002d08 <main+0x7fc>)
 8002cb2:	781b      	ldrb	r3, [r3, #0]
 8002cb4:	2b00      	cmp	r3, #0
 8002cb6:	d0d7      	beq.n	8002c68 <main+0x75c>
			__HAL_TIM_SET_COMPARE(&htim1, TIM_CHANNEL_1, PWM_LED1_VAL);
 8002cb8:	4a11      	ldr	r2, [pc, #68]	@ (8002d00 <main+0x7f4>)
 8002cba:	8813      	ldrh	r3, [r2, #0]
 8002cbc:	4911      	ldr	r1, [pc, #68]	@ (8002d04 <main+0x7f8>)
 8002cbe:	6809      	ldr	r1, [r1, #0]
 8002cc0:	634b      	str	r3, [r1, #52]	@ 0x34
			__HAL_TIM_SET_COMPARE(&htim1, TIM_CHANNEL_2, PWM_LED1_VAL);
 8002cc2:	638b      	str	r3, [r1, #56]	@ 0x38
			if (++PWM_LED1_VAL==72) {
 8002cc4:	3301      	adds	r3, #1
 8002cc6:	b29b      	uxth	r3, r3
 8002cc8:	8013      	strh	r3, [r2, #0]
 8002cca:	2b48      	cmp	r3, #72	@ 0x48
 8002ccc:	d1d9      	bne.n	8002c82 <main+0x776>
				PWM_LED_Inverse=0;
 8002cce:	4b0e      	ldr	r3, [pc, #56]	@ (8002d08 <main+0x7fc>)
 8002cd0:	2200      	movs	r2, #0
 8002cd2:	701a      	strb	r2, [r3, #0]
 8002cd4:	e7d5      	b.n	8002c82 <main+0x776>
 8002cd6:	bf00      	nop
 8002cd8:	20000094 	.word	0x20000094
 8002cdc:	20000314 	.word	0x20000314
 8002ce0:	200000bc 	.word	0x200000bc
 8002ce4:	20000398 	.word	0x20000398
 8002ce8:	200000e2 	.word	0x200000e2
 8002cec:	0800ad80 	.word	0x0800ad80
 8002cf0:	20000093 	.word	0x20000093
 8002cf4:	20000360 	.word	0x20000360
 8002cf8:	2000031c 	.word	0x2000031c
 8002cfc:	20000095 	.word	0x20000095
 8002d00:	200002f0 	.word	0x200002f0
 8002d04:	2000058c 	.word	0x2000058c
 8002d08:	20000092 	.word	0x20000092
 8002d0c:	20000310 	.word	0x20000310
 8002d10:	20000304 	.word	0x20000304
 8002d14:	200000a8 	.word	0x200000a8

08002d18 <Error_Handler>:
 8002d18:	b672      	cpsid	i
  while (1)
 8002d1a:	e7fe      	b.n	8002d1a <Error_Handler+0x2>

08002d1c <ssd1306_WriteCommand>:
void ssd1306_Reset(void) {
	/* for I2C - do nothing */
}

// Send a byte to the command register
void ssd1306_WriteCommand(uint8_t byte) {
 8002d1c:	b500      	push	{lr}
 8002d1e:	b087      	sub	sp, #28
 8002d20:	f88d 0017 	strb.w	r0, [sp, #23]
	HAL_I2C_Mem_Write(&SSD1306_I2C_PORT, SSD1306_I2C_ADDR, 0x00, 1, &byte, 1, HAL_MAX_DELAY);
 8002d24:	f04f 33ff 	mov.w	r3, #4294967295
 8002d28:	9302      	str	r3, [sp, #8]
 8002d2a:	2301      	movs	r3, #1
 8002d2c:	9301      	str	r3, [sp, #4]
 8002d2e:	f10d 0217 	add.w	r2, sp, #23
 8002d32:	9200      	str	r2, [sp, #0]
 8002d34:	2200      	movs	r2, #0
 8002d36:	2178      	movs	r1, #120	@ 0x78
 8002d38:	4802      	ldr	r0, [pc, #8]	@ (8002d44 <ssd1306_WriteCommand+0x28>)
 8002d3a:	f001 fdfb 	bl	8004934 <HAL_I2C_Mem_Write>
}
 8002d3e:	b007      	add	sp, #28
 8002d40:	f85d fb04 	ldr.w	pc, [sp], #4
 8002d44:	200005d4 	.word	0x200005d4

08002d48 <ssd1306_WriteData>:

// Send data
void ssd1306_WriteData(uint8_t* buffer, size_t buff_size) {
 8002d48:	b500      	push	{lr}
 8002d4a:	b085      	sub	sp, #20
	HAL_I2C_Mem_Write(&SSD1306_I2C_PORT, SSD1306_I2C_ADDR, 0x40, 1, buffer, buff_size, HAL_MAX_DELAY);
 8002d4c:	f04f 33ff 	mov.w	r3, #4294967295
 8002d50:	9302      	str	r3, [sp, #8]
 8002d52:	b289      	uxth	r1, r1
 8002d54:	9101      	str	r1, [sp, #4]
 8002d56:	9000      	str	r0, [sp, #0]
 8002d58:	2301      	movs	r3, #1
 8002d5a:	2240      	movs	r2, #64	@ 0x40
 8002d5c:	2178      	movs	r1, #120	@ 0x78
 8002d5e:	4803      	ldr	r0, [pc, #12]	@ (8002d6c <ssd1306_WriteData+0x24>)
 8002d60:	f001 fde8 	bl	8004934 <HAL_I2C_Mem_Write>
}
 8002d64:	b005      	add	sp, #20
 8002d66:	f85d fb04 	ldr.w	pc, [sp], #4
 8002d6a:	bf00      	nop
 8002d6c:	200005d4 	.word	0x200005d4

08002d70 <ssd1306_Fill>:
// Fill the whole screen with the given color
void ssd1306_Fill(SSD1306_COLOR color) {
    /* Set memory */
    uint32_t i;

    for(i = 0; i < sizeof(SSD1306_Buffer); i++) {
 8002d70:	4a05      	ldr	r2, [pc, #20]	@ (8002d88 <ssd1306_Fill+0x18>)
 8002d72:	f502 6180 	add.w	r1, r2, #1024	@ 0x400
        SSD1306_Buffer[i] = (color == Black) ? 0x00 : 0xFF;
 8002d76:	1e03      	subs	r3, r0, #0
 8002d78:	bf18      	it	ne
 8002d7a:	2301      	movne	r3, #1
 8002d7c:	425b      	negs	r3, r3
 8002d7e:	f802 3f01 	strb.w	r3, [r2, #1]!
    for(i = 0; i < sizeof(SSD1306_Buffer); i++) {
 8002d82:	428a      	cmp	r2, r1
 8002d84:	d1f7      	bne.n	8002d76 <ssd1306_Fill+0x6>
    }
}
 8002d86:	4770      	bx	lr
 8002d88:	200006d3 	.word	0x200006d3

08002d8c <ssd1306_UpdateScreen>:

// Write the screenbuffer with changed to the screen
void ssd1306_UpdateScreen(void) {
 8002d8c:	e92d 41f0 	stmdb	sp!, {r4, r5, r6, r7, r8, lr}
    // depends on the screen height:
    //
    //  * 32px   ==  4 pages
    //  * 64px   ==  8 pages
    //  * 128px  ==  16 pages
    for(uint8_t i = 0; i < SSD1306_HEIGHT/8; i++) {
 8002d90:	4d0c      	ldr	r5, [pc, #48]	@ (8002dc4 <ssd1306_UpdateScreen+0x38>)
void ssd1306_UpdateScreen(void) {
 8002d92:	24b0      	movs	r4, #176	@ 0xb0
        ssd1306_WriteCommand(0xB0 + i); // Set the current RAM page address.
        ssd1306_WriteCommand(0x00);
 8002d94:	f04f 0800 	mov.w	r8, #0
        ssd1306_WriteCommand(0x10);
 8002d98:	2710      	movs	r7, #16
        ssd1306_WriteData(&SSD1306_Buffer[SSD1306_WIDTH*i],SSD1306_WIDTH);
 8002d9a:	2680      	movs	r6, #128	@ 0x80
        ssd1306_WriteCommand(0xB0 + i); // Set the current RAM page address.
 8002d9c:	4620      	mov	r0, r4
 8002d9e:	f7ff ffbd 	bl	8002d1c <ssd1306_WriteCommand>
        ssd1306_WriteCommand(0x00);
 8002da2:	4640      	mov	r0, r8
 8002da4:	f7ff ffba 	bl	8002d1c <ssd1306_WriteCommand>
        ssd1306_WriteCommand(0x10);
 8002da8:	4638      	mov	r0, r7
 8002daa:	f7ff ffb7 	bl	8002d1c <ssd1306_WriteCommand>
        ssd1306_WriteData(&SSD1306_Buffer[SSD1306_WIDTH*i],SSD1306_WIDTH);
 8002dae:	4631      	mov	r1, r6
 8002db0:	4628      	mov	r0, r5
 8002db2:	f7ff ffc9 	bl	8002d48 <ssd1306_WriteData>
    for(uint8_t i = 0; i < SSD1306_HEIGHT/8; i++) {
 8002db6:	3401      	adds	r4, #1
 8002db8:	b2e4      	uxtb	r4, r4
 8002dba:	3580      	adds	r5, #128	@ 0x80
 8002dbc:	2cb8      	cmp	r4, #184	@ 0xb8
 8002dbe:	d1ed      	bne.n	8002d9c <ssd1306_UpdateScreen+0x10>
    }
}
 8002dc0:	e8bd 81f0 	ldmia.w	sp!, {r4, r5, r6, r7, r8, pc}
 8002dc4:	200006d4 	.word	0x200006d4

08002dc8 <ssd1306_Init>:
void ssd1306_Init(void) {
 8002dc8:	b508      	push	{r3, lr}
    HAL_Delay(100);
 8002dca:	2064      	movs	r0, #100	@ 0x64
 8002dcc:	f000 fc8e 	bl	80036ec <HAL_Delay>
    ssd1306_WriteCommand(0xAE); //display off
 8002dd0:	20ae      	movs	r0, #174	@ 0xae
 8002dd2:	f7ff ffa3 	bl	8002d1c <ssd1306_WriteCommand>
    ssd1306_WriteCommand(0x20); //Set Memory Addressing Mode   
 8002dd6:	2020      	movs	r0, #32
 8002dd8:	f7ff ffa0 	bl	8002d1c <ssd1306_WriteCommand>
    ssd1306_WriteCommand(0x00); // 00b,Horizontal Addressing Mode; 01b,Vertical Addressing Mode;
 8002ddc:	2000      	movs	r0, #0
 8002dde:	f7ff ff9d 	bl	8002d1c <ssd1306_WriteCommand>
    ssd1306_WriteCommand(0xB0); //Set Page Start Address for Page Addressing Mode,0-7
 8002de2:	20b0      	movs	r0, #176	@ 0xb0
 8002de4:	f7ff ff9a 	bl	8002d1c <ssd1306_WriteCommand>
    ssd1306_WriteCommand(0xC8); //Set COM Output Scan Direction
 8002de8:	20c8      	movs	r0, #200	@ 0xc8
 8002dea:	f7ff ff97 	bl	8002d1c <ssd1306_WriteCommand>
    ssd1306_WriteCommand(0x00); //---set low column address
 8002dee:	2000      	movs	r0, #0
 8002df0:	f7ff ff94 	bl	8002d1c <ssd1306_WriteCommand>
    ssd1306_WriteCommand(0x10); //---set high column address
 8002df4:	2010      	movs	r0, #16
 8002df6:	f7ff ff91 	bl	8002d1c <ssd1306_WriteCommand>
    ssd1306_WriteCommand(0x40); //--set start line address - CHECK
 8002dfa:	2040      	movs	r0, #64	@ 0x40
 8002dfc:	f7ff ff8e 	bl	8002d1c <ssd1306_WriteCommand>
    ssd1306_WriteCommand(0x81); //--set contrast control register - CHECK
 8002e00:	2081      	movs	r0, #129	@ 0x81
 8002e02:	f7ff ff8b 	bl	8002d1c <ssd1306_WriteCommand>
    ssd1306_WriteCommand(0xFF);
 8002e06:	20ff      	movs	r0, #255	@ 0xff
 8002e08:	f7ff ff88 	bl	8002d1c <ssd1306_WriteCommand>
    ssd1306_WriteCommand(0xA1); //--set segment re-map 0 to 127 - CHECK
 8002e0c:	20a1      	movs	r0, #161	@ 0xa1
 8002e0e:	f7ff ff85 	bl	8002d1c <ssd1306_WriteCommand>
    ssd1306_WriteCommand(0xA6); //--set normal color
 8002e12:	20a6      	movs	r0, #166	@ 0xa6
 8002e14:	f7ff ff82 	bl	8002d1c <ssd1306_WriteCommand>
    ssd1306_WriteCommand(0xA8); //--set multiplex ratio(1 to 64) - CHECK
 8002e18:	20a8      	movs	r0, #168	@ 0xa8
 8002e1a:	f7ff ff7f 	bl	8002d1c <ssd1306_WriteCommand>
    ssd1306_WriteCommand(0x3F); //
 8002e1e:	203f      	movs	r0, #63	@ 0x3f
 8002e20:	f7ff ff7c 	bl	8002d1c <ssd1306_WriteCommand>
    ssd1306_WriteCommand(0xA4); //0xa4,Output follows RAM content;0xa5,Output ignores RAM content
 8002e24:	20a4      	movs	r0, #164	@ 0xa4
 8002e26:	f7ff ff79 	bl	8002d1c <ssd1306_WriteCommand>
    ssd1306_WriteCommand(0xD3); //-set display offset - CHECK
 8002e2a:	20d3      	movs	r0, #211	@ 0xd3
 8002e2c:	f7ff ff76 	bl	8002d1c <ssd1306_WriteCommand>
    ssd1306_WriteCommand(0x00); //-not offset
 8002e30:	2000      	movs	r0, #0
 8002e32:	f7ff ff73 	bl	8002d1c <ssd1306_WriteCommand>
    ssd1306_WriteCommand(0xD5); //--set display clock divide ratio/oscillator frequency
 8002e36:	20d5      	movs	r0, #213	@ 0xd5
 8002e38:	f7ff ff70 	bl	8002d1c <ssd1306_WriteCommand>
    ssd1306_WriteCommand(0xF0); //--set divide ratio
 8002e3c:	20f0      	movs	r0, #240	@ 0xf0
 8002e3e:	f7ff ff6d 	bl	8002d1c <ssd1306_WriteCommand>
    ssd1306_WriteCommand(0xD9); //--set pre-charge period
 8002e42:	20d9      	movs	r0, #217	@ 0xd9
 8002e44:	f7ff ff6a 	bl	8002d1c <ssd1306_WriteCommand>
    ssd1306_WriteCommand(0x22); //
 8002e48:	2022      	movs	r0, #34	@ 0x22
 8002e4a:	f7ff ff67 	bl	8002d1c <ssd1306_WriteCommand>
    ssd1306_WriteCommand(0xDA); //--set com pins hardware configuration - CHECK
 8002e4e:	20da      	movs	r0, #218	@ 0xda
 8002e50:	f7ff ff64 	bl	8002d1c <ssd1306_WriteCommand>
    ssd1306_WriteCommand(0x12);
 8002e54:	2012      	movs	r0, #18
 8002e56:	f7ff ff61 	bl	8002d1c <ssd1306_WriteCommand>
    ssd1306_WriteCommand(0xDB); //--set vcomh
 8002e5a:	20db      	movs	r0, #219	@ 0xdb
 8002e5c:	f7ff ff5e 	bl	8002d1c <ssd1306_WriteCommand>
    ssd1306_WriteCommand(0x20); //0x20,0.77xVcc
 8002e60:	2020      	movs	r0, #32
 8002e62:	f7ff ff5b 	bl	8002d1c <ssd1306_WriteCommand>
    ssd1306_WriteCommand(0x8D); //--set DC-DC enable
 8002e66:	208d      	movs	r0, #141	@ 0x8d
 8002e68:	f7ff ff58 	bl	8002d1c <ssd1306_WriteCommand>
    ssd1306_WriteCommand(0x14); //
 8002e6c:	2014      	movs	r0, #20
 8002e6e:	f7ff ff55 	bl	8002d1c <ssd1306_WriteCommand>
    ssd1306_WriteCommand(0xAF); //--turn on SSD1306 panel
 8002e72:	20af      	movs	r0, #175	@ 0xaf
 8002e74:	f7ff ff52 	bl	8002d1c <ssd1306_WriteCommand>
    ssd1306_Fill(Black);
 8002e78:	2000      	movs	r0, #0
 8002e7a:	f7ff ff79 	bl	8002d70 <ssd1306_Fill>
    ssd1306_UpdateScreen();
 8002e7e:	f7ff ff85 	bl	8002d8c <ssd1306_UpdateScreen>
    SSD1306.CurrentX = 0;
 8002e82:	4b03      	ldr	r3, [pc, #12]	@ (8002e90 <ssd1306_Init+0xc8>)
 8002e84:	2200      	movs	r2, #0
 8002e86:	801a      	strh	r2, [r3, #0]
    SSD1306.CurrentY = 0;
 8002e88:	805a      	strh	r2, [r3, #2]
    SSD1306.Initialized = 1;
 8002e8a:	2201      	movs	r2, #1
 8002e8c:	715a      	strb	r2, [r3, #5]
}
 8002e8e:	bd08      	pop	{r3, pc}
 8002e90:	200006cc 	.word	0x200006cc

08002e94 <ssd1306_DrawPixel>:
//    Draw one pixel in the screenbuffer
//    X => X Coordinate
//    Y => Y Coordinate
//    color => Pixel color
void ssd1306_DrawPixel(uint8_t x, uint8_t y, SSD1306_COLOR color) {
    if(x >= SSD1306_WIDTH || y >= SSD1306_HEIGHT) {
 8002e94:	f010 0f80 	tst.w	r0, #128	@ 0x80
 8002e98:	d122      	bne.n	8002ee0 <ssd1306_DrawPixel+0x4c>
 8002e9a:	293f      	cmp	r1, #63	@ 0x3f
 8002e9c:	d820      	bhi.n	8002ee0 <ssd1306_DrawPixel+0x4c>
        // Don't write outside the buffer
        return;
    }
    
    // Check if pixel should be inverted
    if(SSD1306.Inverted) {
 8002e9e:	4b11      	ldr	r3, [pc, #68]	@ (8002ee4 <ssd1306_DrawPixel+0x50>)
 8002ea0:	791b      	ldrb	r3, [r3, #4]
 8002ea2:	b17b      	cbz	r3, 8002ec4 <ssd1306_DrawPixel+0x30>
        color = (SSD1306_COLOR)!color;
    }
    
    // Draw in the right color
    if(color == White) {
 8002ea4:	b182      	cbz	r2, 8002ec8 <ssd1306_DrawPixel+0x34>
void ssd1306_DrawPixel(uint8_t x, uint8_t y, SSD1306_COLOR color) {
 8002ea6:	b410      	push	{r4}
        SSD1306_Buffer[x + (y / 8) * SSD1306_WIDTH] |= 1 << (y % 8);
    } else { 
        SSD1306_Buffer[x + (y / 8) * SSD1306_WIDTH] &= ~(1 << (y % 8));
 8002ea8:	08cb      	lsrs	r3, r1, #3
 8002eaa:	eb00 10c3 	add.w	r0, r0, r3, lsl #7
 8002eae:	4c0e      	ldr	r4, [pc, #56]	@ (8002ee8 <ssd1306_DrawPixel+0x54>)
 8002eb0:	f001 0107 	and.w	r1, r1, #7
 8002eb4:	2201      	movs	r2, #1
 8002eb6:	408a      	lsls	r2, r1
 8002eb8:	5c23      	ldrb	r3, [r4, r0]
 8002eba:	ea23 0302 	bic.w	r3, r3, r2
 8002ebe:	5423      	strb	r3, [r4, r0]
    }
}
 8002ec0:	bc10      	pop	{r4}
 8002ec2:	4770      	bx	lr
    if(color == White) {
 8002ec4:	2a01      	cmp	r2, #1
 8002ec6:	d1ee      	bne.n	8002ea6 <ssd1306_DrawPixel+0x12>
        SSD1306_Buffer[x + (y / 8) * SSD1306_WIDTH] |= 1 << (y % 8);
 8002ec8:	08cb      	lsrs	r3, r1, #3
 8002eca:	eb00 10c3 	add.w	r0, r0, r3, lsl #7
 8002ece:	4a06      	ldr	r2, [pc, #24]	@ (8002ee8 <ssd1306_DrawPixel+0x54>)
 8002ed0:	f001 0107 	and.w	r1, r1, #7
 8002ed4:	2301      	movs	r3, #1
 8002ed6:	408b      	lsls	r3, r1
 8002ed8:	5c11      	ldrb	r1, [r2, r0]
 8002eda:	430b      	orrs	r3, r1
 8002edc:	5413      	strb	r3, [r2, r0]
 8002ede:	4770      	bx	lr
 8002ee0:	4770      	bx	lr
 8002ee2:	bf00      	nop
 8002ee4:	200006cc 	.word	0x200006cc
 8002ee8:	200006d4 	.word	0x200006d4

08002eec <ssd1306_WriteChar>:

// Draw 1 char to the screen buffer
// ch       => char om weg te schrijven
// Font     => Font waarmee we gaan schrijven
// color    => Black or White
char ssd1306_WriteChar(char ch, FontDef Font, SSD1306_COLOR color) {
 8002eec:	e92d 4ff0 	stmdb	sp!, {r4, r5, r6, r7, r8, r9, sl, fp, lr}
 8002ef0:	b085      	sub	sp, #20
 8002ef2:	4682      	mov	sl, r0
 8002ef4:	a804      	add	r0, sp, #16
 8002ef6:	e900 0006 	stmdb	r0, {r1, r2}
 8002efa:	461f      	mov	r7, r3
    uint32_t i, b, j;
    
    // Check if character is valid
    if (ch < 32 || ch > 126)
 8002efc:	f1aa 0320 	sub.w	r3, sl, #32
 8002f00:	b2db      	uxtb	r3, r3
 8002f02:	2b5e      	cmp	r3, #94	@ 0x5e
 8002f04:	d847      	bhi.n	8002f96 <ssd1306_WriteChar+0xaa>
 8002f06:	f89d 6008 	ldrb.w	r6, [sp, #8]
        return 0;
    
    // Check remaining space on current line
    if (SSD1306_WIDTH < (SSD1306.CurrentX + Font.FontWidth) ||
 8002f0a:	4b27      	ldr	r3, [pc, #156]	@ (8002fa8 <ssd1306_WriteChar+0xbc>)
 8002f0c:	f8b3 8000 	ldrh.w	r8, [r3]
 8002f10:	eb08 0306 	add.w	r3, r8, r6
 8002f14:	2b80      	cmp	r3, #128	@ 0x80
 8002f16:	dc42      	bgt.n	8002f9e <ssd1306_WriteChar+0xb2>
 8002f18:	f89d 2009 	ldrb.w	r2, [sp, #9]
        SSD1306_HEIGHT < (SSD1306.CurrentY + Font.FontHeight))
 8002f1c:	4b22      	ldr	r3, [pc, #136]	@ (8002fa8 <ssd1306_WriteChar+0xbc>)
 8002f1e:	885d      	ldrh	r5, [r3, #2]
 8002f20:	18ab      	adds	r3, r5, r2
    if (SSD1306_WIDTH < (SSD1306.CurrentX + Font.FontWidth) ||
 8002f22:	2b40      	cmp	r3, #64	@ 0x40
 8002f24:	dc3d      	bgt.n	8002fa2 <ssd1306_WriteChar+0xb6>
        // Not enough space on current line
        return 0;
    }
    
    // Use the font to write
    for(i = 0; i < Font.FontHeight; i++) {
 8002f26:	b38a      	cbz	r2, 8002f8c <ssd1306_WriteChar+0xa0>
        b = Font.data[(ch - 32) * Font.FontHeight + i];
 8002f28:	f1aa 0920 	sub.w	r9, sl, #32
 8002f2c:	fb02 f909 	mul.w	r9, r2, r9
 8002f30:	ea4f 0949 	mov.w	r9, r9, lsl #1
 8002f34:	b2ed      	uxtb	r5, r5
    for(i = 0; i < Font.FontHeight; i++) {
 8002f36:	f04f 0b00 	mov.w	fp, #0
 8002f3a:	9200      	str	r2, [sp, #0]
 8002f3c:	f8cd a004 	str.w	sl, [sp, #4]
 8002f40:	46ca      	mov	sl, r9
 8002f42:	46a9      	mov	r9, r5
 8002f44:	465d      	mov	r5, fp
        b = Font.data[(ch - 32) * Font.FontHeight + i];
 8002f46:	9903      	ldr	r1, [sp, #12]
 8002f48:	f831 b00a 	ldrh.w	fp, [r1, sl]
        for(j = 0; j < Font.FontWidth; j++) {
 8002f4c:	b196      	cbz	r6, 8002f74 <ssd1306_WriteChar+0x88>
 8002f4e:	2400      	movs	r4, #0
            if((b << j) & 0x8000)  {
 8002f50:	fa0b f304 	lsl.w	r3, fp, r4
 8002f54:	f413 4f00 	tst.w	r3, #32768	@ 0x8000
                ssd1306_DrawPixel(SSD1306.CurrentX + j, (SSD1306.CurrentY + i), (SSD1306_COLOR) color);
 8002f58:	eb08 0004 	add.w	r0, r8, r4
 8002f5c:	bf12      	itee	ne
 8002f5e:	463a      	movne	r2, r7
            } else {
                ssd1306_DrawPixel(SSD1306.CurrentX + j, (SSD1306.CurrentY + i), (SSD1306_COLOR)!color);
 8002f60:	fab7 f287 	clzeq	r2, r7
 8002f64:	0952      	lsreq	r2, r2, #5
 8002f66:	4649      	mov	r1, r9
 8002f68:	b2c0      	uxtb	r0, r0
 8002f6a:	f7ff ff93 	bl	8002e94 <ssd1306_DrawPixel>
        for(j = 0; j < Font.FontWidth; j++) {
 8002f6e:	3401      	adds	r4, #1
 8002f70:	42b4      	cmp	r4, r6
 8002f72:	d1ed      	bne.n	8002f50 <ssd1306_WriteChar+0x64>
    for(i = 0; i < Font.FontHeight; i++) {
 8002f74:	3501      	adds	r5, #1
 8002f76:	f10a 0a02 	add.w	sl, sl, #2
 8002f7a:	f109 0901 	add.w	r9, r9, #1
 8002f7e:	fa5f f989 	uxtb.w	r9, r9
 8002f82:	9b00      	ldr	r3, [sp, #0]
 8002f84:	42ab      	cmp	r3, r5
 8002f86:	d1de      	bne.n	8002f46 <ssd1306_WriteChar+0x5a>
 8002f88:	f8dd a004 	ldr.w	sl, [sp, #4]
            }
        }
    }
    
    // The current space is now taken
    SSD1306.CurrentX += Font.FontWidth;
 8002f8c:	4446      	add	r6, r8
 8002f8e:	4b06      	ldr	r3, [pc, #24]	@ (8002fa8 <ssd1306_WriteChar+0xbc>)
 8002f90:	801e      	strh	r6, [r3, #0]
    
    // Return written char for validation
    return ch;
 8002f92:	4650      	mov	r0, sl
 8002f94:	e000      	b.n	8002f98 <ssd1306_WriteChar+0xac>
        return 0;
 8002f96:	2000      	movs	r0, #0
}
 8002f98:	b005      	add	sp, #20
 8002f9a:	e8bd 8ff0 	ldmia.w	sp!, {r4, r5, r6, r7, r8, r9, sl, fp, pc}
        return 0;
 8002f9e:	2000      	movs	r0, #0
 8002fa0:	e7fa      	b.n	8002f98 <ssd1306_WriteChar+0xac>
 8002fa2:	2000      	movs	r0, #0
 8002fa4:	e7f8      	b.n	8002f98 <ssd1306_WriteChar+0xac>
 8002fa6:	bf00      	nop
 8002fa8:	200006cc 	.word	0x200006cc

08002fac <ssd1306_WriteString>:

// Write full string to screenbuffer
char ssd1306_WriteString(char* str, FontDef Font, SSD1306_COLOR color) {
 8002fac:	b570      	push	{r4, r5, r6, lr}
 8002fae:	b082      	sub	sp, #8
 8002fb0:	4604      	mov	r4, r0
 8002fb2:	a802      	add	r0, sp, #8
 8002fb4:	e900 0006 	stmdb	r0, {r1, r2}
    // Write until null-byte
    while (*str) {
 8002fb8:	7820      	ldrb	r0, [r4, #0]
 8002fba:	b170      	cbz	r0, 8002fda <ssd1306_WriteString+0x2e>
 8002fbc:	461e      	mov	r6, r3
        if (ssd1306_WriteChar(*str, Font, color) != *str) {
 8002fbe:	466d      	mov	r5, sp
 8002fc0:	4633      	mov	r3, r6
 8002fc2:	e895 0006 	ldmia.w	r5, {r1, r2}
 8002fc6:	f7ff ff91 	bl	8002eec <ssd1306_WriteChar>
 8002fca:	4602      	mov	r2, r0
 8002fcc:	7820      	ldrb	r0, [r4, #0]
 8002fce:	4282      	cmp	r2, r0
 8002fd0:	d103      	bne.n	8002fda <ssd1306_WriteString+0x2e>
    while (*str) {
 8002fd2:	f814 0f01 	ldrb.w	r0, [r4, #1]!
 8002fd6:	2800      	cmp	r0, #0
 8002fd8:	d1f2      	bne.n	8002fc0 <ssd1306_WriteString+0x14>
        str++;
    }
    
    // Everything ok
    return *str;
}
 8002fda:	b002      	add	sp, #8
 8002fdc:	bd70      	pop	{r4, r5, r6, pc}
	...

08002fe0 <ssd1306_SetCursor>:

// Position the cursor
void ssd1306_SetCursor(uint8_t x, uint8_t y) {
    SSD1306.CurrentX = x;
 8002fe0:	4b01      	ldr	r3, [pc, #4]	@ (8002fe8 <ssd1306_SetCursor+0x8>)
 8002fe2:	8018      	strh	r0, [r3, #0]
    SSD1306.CurrentY = y;
 8002fe4:	8059      	strh	r1, [r3, #2]
}
 8002fe6:	4770      	bx	lr
 8002fe8:	200006cc 	.word	0x200006cc

08002fec <HAL_MspInit>:
void HAL_TIM_MspPostInit(TIM_HandleTypeDef *htim);
                                        /**
  * Initializes the Global MSP.
  */
void HAL_MspInit(void)
{
 8002fec:	b082      	sub	sp, #8

  /* USER CODE BEGIN MspInit 0 */

  /* USER CODE END MspInit 0 */

  __HAL_RCC_AFIO_CLK_ENABLE();
 8002fee:	4b0e      	ldr	r3, [pc, #56]	@ (8003028 <HAL_MspInit+0x3c>)
 8002ff0:	699a      	ldr	r2, [r3, #24]
 8002ff2:	f042 0201 	orr.w	r2, r2, #1
 8002ff6:	619a      	str	r2, [r3, #24]
 8002ff8:	699a      	ldr	r2, [r3, #24]
 8002ffa:	f002 0201 	and.w	r2, r2, #1
 8002ffe:	9200      	str	r2, [sp, #0]
 8003000:	9a00      	ldr	r2, [sp, #0]
  __HAL_RCC_PWR_CLK_ENABLE();
 8003002:	69da      	ldr	r2, [r3, #28]
 8003004:	f042 5280 	orr.w	r2, r2, #268435456	@ 0x10000000
 8003008:	61da      	str	r2, [r3, #28]
 800300a:	69db      	ldr	r3, [r3, #28]
 800300c:	f003 5380 	and.w	r3, r3, #268435456	@ 0x10000000
 8003010:	9301      	str	r3, [sp, #4]
 8003012:	9b01      	ldr	r3, [sp, #4]

  /* System interrupt init*/

  /** NOJTAG: JTAG-DP Disabled and SW-DP Enabled
  */
  __HAL_AFIO_REMAP_SWJ_NOJTAG();
 8003014:	4a05      	ldr	r2, [pc, #20]	@ (800302c <HAL_MspInit+0x40>)
 8003016:	6853      	ldr	r3, [r2, #4]
 8003018:	f023 63e0 	bic.w	r3, r3, #117440512	@ 0x7000000
 800301c:	f043 7300 	orr.w	r3, r3, #33554432	@ 0x2000000
 8003020:	6053      	str	r3, [r2, #4]

  /* USER CODE BEGIN MspInit 1 */

  /* USER CODE END MspInit 1 */
}
 8003022:	b002      	add	sp, #8
 8003024:	4770      	bx	lr
 8003026:	bf00      	nop
 8003028:	40021000 	.word	0x40021000
 800302c:	40010000 	.word	0x40010000

08003030 <HAL_ADC_MspInit>:
* This function configures the hardware resources used in this example
* @param hadc: ADC handle pointer
* @retval None
*/
void HAL_ADC_MspInit(ADC_HandleTypeDef* hadc)
{
 8003030:	b510      	push	{r4, lr}
 8003032:	b088      	sub	sp, #32
  GPIO_InitTypeDef GPIO_InitStruct = {0};
 8003034:	2300      	movs	r3, #0
 8003036:	9304      	str	r3, [sp, #16]
 8003038:	9305      	str	r3, [sp, #20]
 800303a:	9306      	str	r3, [sp, #24]
 800303c:	9307      	str	r3, [sp, #28]
  if(hadc->Instance==ADC1)
 800303e:	6803      	ldr	r3, [r0, #0]
 8003040:	4a35      	ldr	r2, [pc, #212]	@ (8003118 <HAL_ADC_MspInit+0xe8>)
 8003042:	4293      	cmp	r3, r2
 8003044:	d004      	beq.n	8003050 <HAL_ADC_MspInit+0x20>
    HAL_NVIC_EnableIRQ(ADC1_2_IRQn);
  /* USER CODE BEGIN ADC1_MspInit 1 */

  /* USER CODE END ADC1_MspInit 1 */
  }
  else if(hadc->Instance==ADC2)
 8003046:	4a35      	ldr	r2, [pc, #212]	@ (800311c <HAL_ADC_MspInit+0xec>)
 8003048:	4293      	cmp	r3, r2
 800304a:	d040      	beq.n	80030ce <HAL_ADC_MspInit+0x9e>
  /* USER CODE BEGIN ADC2_MspInit 1 */

  /* USER CODE END ADC2_MspInit 1 */
  }

}
 800304c:	b008      	add	sp, #32
 800304e:	bd10      	pop	{r4, pc}
 8003050:	4604      	mov	r4, r0
    __HAL_RCC_ADC1_CLK_ENABLE();
 8003052:	4b33      	ldr	r3, [pc, #204]	@ (8003120 <HAL_ADC_MspInit+0xf0>)
 8003054:	699a      	ldr	r2, [r3, #24]
 8003056:	f442 7200 	orr.w	r2, r2, #512	@ 0x200
 800305a:	619a      	str	r2, [r3, #24]
 800305c:	699a      	ldr	r2, [r3, #24]
 800305e:	f402 7200 	and.w	r2, r2, #512	@ 0x200
 8003062:	9200      	str	r2, [sp, #0]
 8003064:	9a00      	ldr	r2, [sp, #0]
    __HAL_RCC_GPIOA_CLK_ENABLE();
 8003066:	699a      	ldr	r2, [r3, #24]
 8003068:	f042 0204 	orr.w	r2, r2, #4
 800306c:	619a      	str	r2, [r3, #24]
 800306e:	699b      	ldr	r3, [r3, #24]
 8003070:	f003 0304 	and.w	r3, r3, #4
 8003074:	9301      	str	r3, [sp, #4]
 8003076:	9b01      	ldr	r3, [sp, #4]
    GPIO_InitStruct.Pin = GPIO_PIN_4|GPIO_PIN_5;
 8003078:	2330      	movs	r3, #48	@ 0x30
 800307a:	9304      	str	r3, [sp, #16]
    GPIO_InitStruct.Mode = GPIO_MODE_ANALOG;
 800307c:	2303      	movs	r3, #3
 800307e:	9305      	str	r3, [sp, #20]
    HAL_GPIO_Init(GPIOA, &GPIO_InitStruct);
 8003080:	a904      	add	r1, sp, #16
 8003082:	4828      	ldr	r0, [pc, #160]	@ (8003124 <HAL_ADC_MspInit+0xf4>)
 8003084:	f001 f8b0 	bl	80041e8 <HAL_GPIO_Init>
    hdma_adc1.Instance = DMA1_Channel1;
 8003088:	4827      	ldr	r0, [pc, #156]	@ (8003128 <HAL_ADC_MspInit+0xf8>)
 800308a:	4b28      	ldr	r3, [pc, #160]	@ (800312c <HAL_ADC_MspInit+0xfc>)
 800308c:	6003      	str	r3, [r0, #0]
    hdma_adc1.Init.Direction = DMA_PERIPH_TO_MEMORY;
 800308e:	2300      	movs	r3, #0
 8003090:	6043      	str	r3, [r0, #4]
    hdma_adc1.Init.PeriphInc = DMA_PINC_DISABLE;
 8003092:	6083      	str	r3, [r0, #8]
    hdma_adc1.Init.MemInc = DMA_MINC_ENABLE;
 8003094:	2280      	movs	r2, #128	@ 0x80
 8003096:	60c2      	str	r2, [r0, #12]
    hdma_adc1.Init.PeriphDataAlignment = DMA_PDATAALIGN_HALFWORD;
 8003098:	f44f 7280 	mov.w	r2, #256	@ 0x100
 800309c:	6102      	str	r2, [r0, #16]
    hdma_adc1.Init.MemDataAlignment = DMA_MDATAALIGN_HALFWORD;
 800309e:	f44f 6280 	mov.w	r2, #1024	@ 0x400
 80030a2:	6142      	str	r2, [r0, #20]
    hdma_adc1.Init.Mode = DMA_CIRCULAR;
 80030a4:	2220      	movs	r2, #32
 80030a6:	6182      	str	r2, [r0, #24]
    hdma_adc1.Init.Priority = DMA_PRIORITY_LOW;
 80030a8:	61c3      	str	r3, [r0, #28]
    if (HAL_DMA_Init(&hdma_adc1) != HAL_OK)
 80030aa:	f000 ff0b 	bl	8003ec4 <HAL_DMA_Init>
 80030ae:	b958      	cbnz	r0, 80030c8 <HAL_ADC_MspInit+0x98>
    __HAL_LINKDMA(hadc,DMA_Handle,hdma_adc1);
 80030b0:	4b1d      	ldr	r3, [pc, #116]	@ (8003128 <HAL_ADC_MspInit+0xf8>)
 80030b2:	6223      	str	r3, [r4, #32]
 80030b4:	625c      	str	r4, [r3, #36]	@ 0x24
    HAL_NVIC_SetPriority(ADC1_2_IRQn, 0, 0);
 80030b6:	2200      	movs	r2, #0
 80030b8:	4611      	mov	r1, r2
 80030ba:	2012      	movs	r0, #18
 80030bc:	f000 feaa 	bl	8003e14 <HAL_NVIC_SetPriority>
    HAL_NVIC_EnableIRQ(ADC1_2_IRQn);
 80030c0:	2012      	movs	r0, #18
 80030c2:	f000 fedd 	bl	8003e80 <HAL_NVIC_EnableIRQ>
 80030c6:	e7c1      	b.n	800304c <HAL_ADC_MspInit+0x1c>
      Error_Handler();
 80030c8:	f7ff fe26 	bl	8002d18 <Error_Handler>
 80030cc:	e7f0      	b.n	80030b0 <HAL_ADC_MspInit+0x80>
    __HAL_RCC_ADC2_CLK_ENABLE();
 80030ce:	4b14      	ldr	r3, [pc, #80]	@ (8003120 <HAL_ADC_MspInit+0xf0>)
 80030d0:	699a      	ldr	r2, [r3, #24]
 80030d2:	f442 6280 	orr.w	r2, r2, #1024	@ 0x400
 80030d6:	619a      	str	r2, [r3, #24]
 80030d8:	699a      	ldr	r2, [r3, #24]
 80030da:	f402 6280 	and.w	r2, r2, #1024	@ 0x400
 80030de:	9202      	str	r2, [sp, #8]
 80030e0:	9a02      	ldr	r2, [sp, #8]
    __HAL_RCC_GPIOA_CLK_ENABLE();
 80030e2:	699a      	ldr	r2, [r3, #24]
 80030e4:	f042 0204 	orr.w	r2, r2, #4
 80030e8:	619a      	str	r2, [r3, #24]
 80030ea:	699b      	ldr	r3, [r3, #24]
 80030ec:	f003 0304 	and.w	r3, r3, #4
 80030f0:	9303      	str	r3, [sp, #12]
 80030f2:	9b03      	ldr	r3, [sp, #12]
    GPIO_InitStruct.Pin = GPIO_PIN_1|GPIO_PIN_2|GPIO_PIN_3;
 80030f4:	230e      	movs	r3, #14
 80030f6:	9304      	str	r3, [sp, #16]
    GPIO_InitStruct.Mode = GPIO_MODE_ANALOG;
 80030f8:	2303      	movs	r3, #3
 80030fa:	9305      	str	r3, [sp, #20]
    HAL_GPIO_Init(GPIOA, &GPIO_InitStruct);
 80030fc:	a904      	add	r1, sp, #16
 80030fe:	4809      	ldr	r0, [pc, #36]	@ (8003124 <HAL_ADC_MspInit+0xf4>)
 8003100:	f001 f872 	bl	80041e8 <HAL_GPIO_Init>
    HAL_NVIC_SetPriority(ADC1_2_IRQn, 0, 0);
 8003104:	2200      	movs	r2, #0
 8003106:	4611      	mov	r1, r2
 8003108:	2012      	movs	r0, #18
 800310a:	f000 fe83 	bl	8003e14 <HAL_NVIC_SetPriority>
    HAL_NVIC_EnableIRQ(ADC1_2_IRQn);
 800310e:	2012      	movs	r0, #18
 8003110:	f000 feb6 	bl	8003e80 <HAL_NVIC_EnableIRQ>
}
 8003114:	e79a      	b.n	800304c <HAL_ADC_MspInit+0x1c>
 8003116:	bf00      	nop
 8003118:	40012400 	.word	0x40012400
 800311c:	40012800 	.word	0x40012800
 8003120:	40021000 	.word	0x40021000
 8003124:	40010800 	.word	0x40010800
 8003128:	20000628 	.word	0x20000628
 800312c:	40020008 	.word	0x40020008

08003130 <HAL_I2C_MspInit>:
* This function configures the hardware resources used in this example
* @param hi2c: I2C handle pointer
* @retval None
*/
void HAL_I2C_MspInit(I2C_HandleTypeDef* hi2c)
{
 8003130:	b510      	push	{r4, lr}
 8003132:	b086      	sub	sp, #24
  GPIO_InitTypeDef GPIO_InitStruct = {0};
 8003134:	2300      	movs	r3, #0
 8003136:	9302      	str	r3, [sp, #8]
 8003138:	9303      	str	r3, [sp, #12]
 800313a:	9304      	str	r3, [sp, #16]
 800313c:	9305      	str	r3, [sp, #20]
  if(hi2c->Instance==I2C1)
 800313e:	6802      	ldr	r2, [r0, #0]
 8003140:	4b15      	ldr	r3, [pc, #84]	@ (8003198 <HAL_I2C_MspInit+0x68>)
 8003142:	429a      	cmp	r2, r3
 8003144:	d001      	beq.n	800314a <HAL_I2C_MspInit+0x1a>
  /* USER CODE BEGIN I2C1_MspInit 1 */

  /* USER CODE END I2C1_MspInit 1 */
  }

}
 8003146:	b006      	add	sp, #24
 8003148:	bd10      	pop	{r4, pc}
    __HAL_RCC_GPIOB_CLK_ENABLE();
 800314a:	4c14      	ldr	r4, [pc, #80]	@ (800319c <HAL_I2C_MspInit+0x6c>)
 800314c:	69a3      	ldr	r3, [r4, #24]
 800314e:	f043 0308 	orr.w	r3, r3, #8
 8003152:	61a3      	str	r3, [r4, #24]
 8003154:	69a3      	ldr	r3, [r4, #24]
 8003156:	f003 0308 	and.w	r3, r3, #8
 800315a:	9300      	str	r3, [sp, #0]
 800315c:	9b00      	ldr	r3, [sp, #0]
    GPIO_InitStruct.Pin = GPIO_PIN_8|GPIO_PIN_9;
 800315e:	f44f 7340 	mov.w	r3, #768	@ 0x300
 8003162:	9302      	str	r3, [sp, #8]
    GPIO_InitStruct.Mode = GPIO_MODE_AF_OD;
 8003164:	2312      	movs	r3, #18
 8003166:	9303      	str	r3, [sp, #12]
    GPIO_InitStruct.Speed = GPIO_SPEED_FREQ_HIGH;
 8003168:	2303      	movs	r3, #3
 800316a:	9305      	str	r3, [sp, #20]
    HAL_GPIO_Init(GPIOB, &GPIO_InitStruct);
 800316c:	a902      	add	r1, sp, #8
 800316e:	480c      	ldr	r0, [pc, #48]	@ (80031a0 <HAL_I2C_MspInit+0x70>)
 8003170:	f001 f83a 	bl	80041e8 <HAL_GPIO_Init>
    __HAL_AFIO_REMAP_I2C1_ENABLE();
 8003174:	4a0b      	ldr	r2, [pc, #44]	@ (80031a4 <HAL_I2C_MspInit+0x74>)
 8003176:	6853      	ldr	r3, [r2, #4]
 8003178:	f043 63e0 	orr.w	r3, r3, #117440512	@ 0x7000000
 800317c:	f043 0302 	orr.w	r3, r3, #2
 8003180:	6053      	str	r3, [r2, #4]
    __HAL_RCC_I2C1_CLK_ENABLE();
 8003182:	69e3      	ldr	r3, [r4, #28]
 8003184:	f443 1300 	orr.w	r3, r3, #2097152	@ 0x200000
 8003188:	61e3      	str	r3, [r4, #28]
 800318a:	69e3      	ldr	r3, [r4, #28]
 800318c:	f403 1300 	and.w	r3, r3, #2097152	@ 0x200000
 8003190:	9301      	str	r3, [sp, #4]
 8003192:	9b01      	ldr	r3, [sp, #4]
}
 8003194:	e7d7      	b.n	8003146 <HAL_I2C_MspInit+0x16>
 8003196:	bf00      	nop
 8003198:	40005400 	.word	0x40005400
 800319c:	40021000 	.word	0x40021000
 80031a0:	40010c00 	.word	0x40010c00
 80031a4:	40010000 	.word	0x40010000

080031a8 <HAL_TIM_Base_MspInit>:
* This function configures the hardware resources used in this example
* @param htim_base: TIM_Base handle pointer
* @retval None
*/
void HAL_TIM_Base_MspInit(TIM_HandleTypeDef* htim_base)
{
 80031a8:	b500      	push	{lr}
 80031aa:	b085      	sub	sp, #20
  if(htim_base->Instance==TIM1)
 80031ac:	6803      	ldr	r3, [r0, #0]
 80031ae:	4a21      	ldr	r2, [pc, #132]	@ (8003234 <HAL_TIM_Base_MspInit+0x8c>)
 80031b0:	4293      	cmp	r3, r2
 80031b2:	d013      	beq.n	80031dc <HAL_TIM_Base_MspInit+0x34>
    __HAL_RCC_TIM1_CLK_ENABLE();
  /* USER CODE BEGIN TIM1_MspInit 1 */

  /* USER CODE END TIM1_MspInit 1 */
  }
  else if(htim_base->Instance==TIM2)
 80031b4:	f1b3 4f80 	cmp.w	r3, #1073741824	@ 0x40000000
 80031b8:	d01d      	beq.n	80031f6 <HAL_TIM_Base_MspInit+0x4e>
    HAL_NVIC_EnableIRQ(TIM2_IRQn);
  /* USER CODE BEGIN TIM2_MspInit 1 */

  /* USER CODE END TIM2_MspInit 1 */
  }
  else if(htim_base->Instance==TIM3)
 80031ba:	4a1f      	ldr	r2, [pc, #124]	@ (8003238 <HAL_TIM_Base_MspInit+0x90>)
 80031bc:	4293      	cmp	r3, r2
 80031be:	d02e      	beq.n	800321e <HAL_TIM_Base_MspInit+0x76>
    __HAL_RCC_TIM3_CLK_ENABLE();
  /* USER CODE BEGIN TIM3_MspInit 1 */

  /* USER CODE END TIM3_MspInit 1 */
  }
  else if(htim_base->Instance==TIM4)
 80031c0:	4a1e      	ldr	r2, [pc, #120]	@ (800323c <HAL_TIM_Base_MspInit+0x94>)
 80031c2:	4293      	cmp	r3, r2
 80031c4:	d114      	bne.n	80031f0 <HAL_TIM_Base_MspInit+0x48>
  {
  /* USER CODE BEGIN TIM4_MspInit 0 */

  /* USER CODE END TIM4_MspInit 0 */
    /* Peripheral clock enable */
    __HAL_RCC_TIM4_CLK_ENABLE();
 80031c6:	4b1e      	ldr	r3, [pc, #120]	@ (8003240 <HAL_TIM_Base_MspInit+0x98>)
 80031c8:	69da      	ldr	r2, [r3, #28]
 80031ca:	f042 0204 	orr.w	r2, r2, #4
 80031ce:	61da      	str	r2, [r3, #28]
 80031d0:	69db      	ldr	r3, [r3, #28]
 80031d2:	f003 0304 	and.w	r3, r3, #4
 80031d6:	9303      	str	r3, [sp, #12]
 80031d8:	9b03      	ldr	r3, [sp, #12]
  /* USER CODE BEGIN TIM4_MspInit 1 */

  /* USER CODE END TIM4_MspInit 1 */
  }

}
 80031da:	e009      	b.n	80031f0 <HAL_TIM_Base_MspInit+0x48>
    __HAL_RCC_TIM1_CLK_ENABLE();
 80031dc:	4b18      	ldr	r3, [pc, #96]	@ (8003240 <HAL_TIM_Base_MspInit+0x98>)
 80031de:	699a      	ldr	r2, [r3, #24]
 80031e0:	f442 6200 	orr.w	r2, r2, #2048	@ 0x800
 80031e4:	619a      	str	r2, [r3, #24]
 80031e6:	699b      	ldr	r3, [r3, #24]
 80031e8:	f403 6300 	and.w	r3, r3, #2048	@ 0x800
 80031ec:	9300      	str	r3, [sp, #0]
 80031ee:	9b00      	ldr	r3, [sp, #0]
}
 80031f0:	b005      	add	sp, #20
 80031f2:	f85d fb04 	ldr.w	pc, [sp], #4
    __HAL_RCC_TIM2_CLK_ENABLE();
 80031f6:	f503 3304 	add.w	r3, r3, #135168	@ 0x21000
 80031fa:	69da      	ldr	r2, [r3, #28]
 80031fc:	f042 0201 	orr.w	r2, r2, #1
 8003200:	61da      	str	r2, [r3, #28]
 8003202:	69db      	ldr	r3, [r3, #28]
 8003204:	f003 0301 	and.w	r3, r3, #1
 8003208:	9301      	str	r3, [sp, #4]
 800320a:	9b01      	ldr	r3, [sp, #4]
    HAL_NVIC_SetPriority(TIM2_IRQn, 2, 0);
 800320c:	2200      	movs	r2, #0
 800320e:	2102      	movs	r1, #2
 8003210:	201c      	movs	r0, #28
 8003212:	f000 fdff 	bl	8003e14 <HAL_NVIC_SetPriority>
    HAL_NVIC_EnableIRQ(TIM2_IRQn);
 8003216:	201c      	movs	r0, #28
 8003218:	f000 fe32 	bl	8003e80 <HAL_NVIC_EnableIRQ>
 800321c:	e7e8      	b.n	80031f0 <HAL_TIM_Base_MspInit+0x48>
    __HAL_RCC_TIM3_CLK_ENABLE();
 800321e:	4b08      	ldr	r3, [pc, #32]	@ (8003240 <HAL_TIM_Base_MspInit+0x98>)
 8003220:	69da      	ldr	r2, [r3, #28]
 8003222:	f042 0202 	orr.w	r2, r2, #2
 8003226:	61da      	str	r2, [r3, #28]
 8003228:	69db      	ldr	r3, [r3, #28]
 800322a:	f003 0302 	and.w	r3, r3, #2
 800322e:	9302      	str	r3, [sp, #8]
 8003230:	9b02      	ldr	r3, [sp, #8]
 8003232:	e7dd      	b.n	80031f0 <HAL_TIM_Base_MspInit+0x48>
 8003234:	40012c00 	.word	0x40012c00
 8003238:	40000400 	.word	0x40000400
 800323c:	40000800 	.word	0x40000800
 8003240:	40021000 	.word	0x40021000

08003244 <HAL_TIM_MspPostInit>:

void HAL_TIM_MspPostInit(TIM_HandleTypeDef* htim)
{
 8003244:	b500      	push	{lr}
 8003246:	b087      	sub	sp, #28
  GPIO_InitTypeDef GPIO_InitStruct = {0};
 8003248:	2300      	movs	r3, #0
 800324a:	9302      	str	r3, [sp, #8]
 800324c:	9303      	str	r3, [sp, #12]
 800324e:	9304      	str	r3, [sp, #16]
 8003250:	9305      	str	r3, [sp, #20]
  if(htim->Instance==TIM1)
 8003252:	6803      	ldr	r3, [r0, #0]
 8003254:	4a18      	ldr	r2, [pc, #96]	@ (80032b8 <HAL_TIM_MspPostInit+0x74>)
 8003256:	4293      	cmp	r3, r2
 8003258:	d005      	beq.n	8003266 <HAL_TIM_MspPostInit+0x22>

  /* USER CODE BEGIN TIM1_MspPostInit 1 */

  /* USER CODE END TIM1_MspPostInit 1 */
  }
  else if(htim->Instance==TIM3)
 800325a:	4a18      	ldr	r2, [pc, #96]	@ (80032bc <HAL_TIM_MspPostInit+0x78>)
 800325c:	4293      	cmp	r3, r2
 800325e:	d017      	beq.n	8003290 <HAL_TIM_MspPostInit+0x4c>
  /* USER CODE BEGIN TIM3_MspPostInit 1 */

  /* USER CODE END TIM3_MspPostInit 1 */
  }

}
 8003260:	b007      	add	sp, #28
 8003262:	f85d fb04 	ldr.w	pc, [sp], #4
    __HAL_RCC_GPIOA_CLK_ENABLE();
 8003266:	4b16      	ldr	r3, [pc, #88]	@ (80032c0 <HAL_TIM_MspPostInit+0x7c>)
 8003268:	699a      	ldr	r2, [r3, #24]
 800326a:	f042 0204 	orr.w	r2, r2, #4
 800326e:	619a      	str	r2, [r3, #24]
 8003270:	699b      	ldr	r3, [r3, #24]
 8003272:	f003 0304 	and.w	r3, r3, #4
 8003276:	9300      	str	r3, [sp, #0]
 8003278:	9b00      	ldr	r3, [sp, #0]
    GPIO_InitStruct.Pin = LED_0_Pin|LED_1_Pin|BEEP_Pin;
 800327a:	f44f 63e0 	mov.w	r3, #1792	@ 0x700
 800327e:	9302      	str	r3, [sp, #8]
    GPIO_InitStruct.Mode = GPIO_MODE_AF_PP;
 8003280:	2302      	movs	r3, #2
 8003282:	9303      	str	r3, [sp, #12]
    GPIO_InitStruct.Speed = GPIO_SPEED_FREQ_LOW;
 8003284:	9305      	str	r3, [sp, #20]
    HAL_GPIO_Init(GPIOA, &GPIO_InitStruct);
 8003286:	a902      	add	r1, sp, #8
 8003288:	480e      	ldr	r0, [pc, #56]	@ (80032c4 <HAL_TIM_MspPostInit+0x80>)
 800328a:	f000 ffad 	bl	80041e8 <HAL_GPIO_Init>
 800328e:	e7e7      	b.n	8003260 <HAL_TIM_MspPostInit+0x1c>
    __HAL_RCC_GPIOA_CLK_ENABLE();
 8003290:	4b0b      	ldr	r3, [pc, #44]	@ (80032c0 <HAL_TIM_MspPostInit+0x7c>)
 8003292:	699a      	ldr	r2, [r3, #24]
 8003294:	f042 0204 	orr.w	r2, r2, #4
 8003298:	619a      	str	r2, [r3, #24]
 800329a:	699b      	ldr	r3, [r3, #24]
 800329c:	f003 0304 	and.w	r3, r3, #4
 80032a0:	9301      	str	r3, [sp, #4]
 80032a2:	9b01      	ldr	r3, [sp, #4]
    GPIO_InitStruct.Pin = PUMP_PWM_Pin;
 80032a4:	2340      	movs	r3, #64	@ 0x40
 80032a6:	9302      	str	r3, [sp, #8]
    GPIO_InitStruct.Mode = GPIO_MODE_AF_PP;
 80032a8:	2302      	movs	r3, #2
 80032aa:	9303      	str	r3, [sp, #12]
    GPIO_InitStruct.Speed = GPIO_SPEED_FREQ_LOW;
 80032ac:	9305      	str	r3, [sp, #20]
    HAL_GPIO_Init(PUMP_PWM_GPIO_Port, &GPIO_InitStruct);
 80032ae:	a902      	add	r1, sp, #8
 80032b0:	4804      	ldr	r0, [pc, #16]	@ (80032c4 <HAL_TIM_MspPostInit+0x80>)
 80032b2:	f000 ff99 	bl	80041e8 <HAL_GPIO_Init>
}
 80032b6:	e7d3      	b.n	8003260 <HAL_TIM_MspPostInit+0x1c>
 80032b8:	40012c00 	.word	0x40012c00
 80032bc:	40000400 	.word	0x40000400
 80032c0:	40021000 	.word	0x40021000
 80032c4:	40010800 	.word	0x40010800

080032c8 <HAL_UART_MspInit>:
* This function configures the hardware resources used in this example
* @param huart: UART handle pointer
* @retval None
*/
void HAL_UART_MspInit(UART_HandleTypeDef* huart)
{
 80032c8:	b570      	push	{r4, r5, r6, lr}
 80032ca:	b088      	sub	sp, #32
  GPIO_InitTypeDef GPIO_InitStruct = {0};
 80032cc:	2300      	movs	r3, #0
 80032ce:	9304      	str	r3, [sp, #16]
 80032d0:	9305      	str	r3, [sp, #20]
 80032d2:	9306      	str	r3, [sp, #24]
 80032d4:	9307      	str	r3, [sp, #28]
  if(huart->Instance==USART1)
 80032d6:	6803      	ldr	r3, [r0, #0]
 80032d8:	4a4a      	ldr	r2, [pc, #296]	@ (8003404 <HAL_UART_MspInit+0x13c>)
 80032da:	4293      	cmp	r3, r2
 80032dc:	d005      	beq.n	80032ea <HAL_UART_MspInit+0x22>
 80032de:	4604      	mov	r4, r0

  /* USER CODE BEGIN USART1_MspInit 1 */

  /* USER CODE END USART1_MspInit 1 */
  }
  else if(huart->Instance==USART3)
 80032e0:	4a49      	ldr	r2, [pc, #292]	@ (8003408 <HAL_UART_MspInit+0x140>)
 80032e2:	4293      	cmp	r3, r2
 80032e4:	d030      	beq.n	8003348 <HAL_UART_MspInit+0x80>
  /* USER CODE BEGIN USART3_MspInit 1 */

  /* USER CODE END USART3_MspInit 1 */
  }

}
 80032e6:	b008      	add	sp, #32
 80032e8:	bd70      	pop	{r4, r5, r6, pc}
    __HAL_RCC_USART1_CLK_ENABLE();
 80032ea:	4b48      	ldr	r3, [pc, #288]	@ (800340c <HAL_UART_MspInit+0x144>)
 80032ec:	699a      	ldr	r2, [r3, #24]
 80032ee:	f442 4280 	orr.w	r2, r2, #16384	@ 0x4000
 80032f2:	619a      	str	r2, [r3, #24]
 80032f4:	699a      	ldr	r2, [r3, #24]
 80032f6:	f402 4280 	and.w	r2, r2, #16384	@ 0x4000
 80032fa:	9200      	str	r2, [sp, #0]
 80032fc:	9a00      	ldr	r2, [sp, #0]
    __HAL_RCC_GPIOB_CLK_ENABLE();
 80032fe:	699a      	ldr	r2, [r3, #24]
 8003300:	f042 0208 	orr.w	r2, r2, #8
 8003304:	619a      	str	r2, [r3, #24]
 8003306:	699b      	ldr	r3, [r3, #24]
 8003308:	f003 0308 	and.w	r3, r3, #8
 800330c:	9301      	str	r3, [sp, #4]
 800330e:	9b01      	ldr	r3, [sp, #4]
    GPIO_InitStruct.Pin = GPIO_PIN_6;
 8003310:	2340      	movs	r3, #64	@ 0x40
 8003312:	9304      	str	r3, [sp, #16]
    GPIO_InitStruct.Mode = GPIO_MODE_AF_PP;
 8003314:	2302      	movs	r3, #2
 8003316:	9305      	str	r3, [sp, #20]
    GPIO_InitStruct.Speed = GPIO_SPEED_FREQ_HIGH;
 8003318:	2303      	movs	r3, #3
 800331a:	9307      	str	r3, [sp, #28]
    HAL_GPIO_Init(GPIOB, &GPIO_InitStruct);
 800331c:	4c3c      	ldr	r4, [pc, #240]	@ (8003410 <HAL_UART_MspInit+0x148>)
 800331e:	a904      	add	r1, sp, #16
 8003320:	4620      	mov	r0, r4
 8003322:	f000 ff61 	bl	80041e8 <HAL_GPIO_Init>
    GPIO_InitStruct.Pin = GPIO_PIN_7;
 8003326:	2380      	movs	r3, #128	@ 0x80
 8003328:	9304      	str	r3, [sp, #16]
    GPIO_InitStruct.Mode = GPIO_MODE_INPUT;
 800332a:	2300      	movs	r3, #0
 800332c:	9305      	str	r3, [sp, #20]
    GPIO_InitStruct.Pull = GPIO_NOPULL;
 800332e:	9306      	str	r3, [sp, #24]
    HAL_GPIO_Init(GPIOB, &GPIO_InitStruct);
 8003330:	a904      	add	r1, sp, #16
 8003332:	4620      	mov	r0, r4
 8003334:	f000 ff58 	bl	80041e8 <HAL_GPIO_Init>
    __HAL_AFIO_REMAP_USART1_ENABLE();
 8003338:	4a36      	ldr	r2, [pc, #216]	@ (8003414 <HAL_UART_MspInit+0x14c>)
 800333a:	6853      	ldr	r3, [r2, #4]
 800333c:	f043 63e0 	orr.w	r3, r3, #117440512	@ 0x7000000
 8003340:	f043 0304 	orr.w	r3, r3, #4
 8003344:	6053      	str	r3, [r2, #4]
 8003346:	e7ce      	b.n	80032e6 <HAL_UART_MspInit+0x1e>
    __HAL_RCC_USART3_CLK_ENABLE();
 8003348:	4b30      	ldr	r3, [pc, #192]	@ (800340c <HAL_UART_MspInit+0x144>)
 800334a:	69da      	ldr	r2, [r3, #28]
 800334c:	f442 2280 	orr.w	r2, r2, #262144	@ 0x40000
 8003350:	61da      	str	r2, [r3, #28]
 8003352:	69da      	ldr	r2, [r3, #28]
 8003354:	f402 2280 	and.w	r2, r2, #262144	@ 0x40000
 8003358:	9202      	str	r2, [sp, #8]
 800335a:	9a02      	ldr	r2, [sp, #8]
    __HAL_RCC_GPIOB_CLK_ENABLE();
 800335c:	699a      	ldr	r2, [r3, #24]
 800335e:	f042 0208 	orr.w	r2, r2, #8
 8003362:	619a      	str	r2, [r3, #24]
 8003364:	699b      	ldr	r3, [r3, #24]
 8003366:	f003 0308 	and.w	r3, r3, #8
 800336a:	9303      	str	r3, [sp, #12]
 800336c:	9b03      	ldr	r3, [sp, #12]
    GPIO_InitStruct.Pin = GPIO_PIN_10;
 800336e:	f44f 6380 	mov.w	r3, #1024	@ 0x400
 8003372:	9304      	str	r3, [sp, #16]
    GPIO_InitStruct.Mode = GPIO_MODE_AF_PP;
 8003374:	2302      	movs	r3, #2
 8003376:	9305      	str	r3, [sp, #20]
    GPIO_InitStruct.Speed = GPIO_SPEED_FREQ_HIGH;
 8003378:	2303      	movs	r3, #3
 800337a:	9307      	str	r3, [sp, #28]
    HAL_GPIO_Init(GPIOB, &GPIO_InitStruct);
 800337c:	4e24      	ldr	r6, [pc, #144]	@ (8003410 <HAL_UART_MspInit+0x148>)
 800337e:	a904      	add	r1, sp, #16
 8003380:	4630      	mov	r0, r6
 8003382:	f000 ff31 	bl	80041e8 <HAL_GPIO_Init>
    GPIO_InitStruct.Pin = GPIO_PIN_11;
 8003386:	f44f 6300 	mov.w	r3, #2048	@ 0x800
 800338a:	9304      	str	r3, [sp, #16]
    GPIO_InitStruct.Mode = GPIO_MODE_INPUT;
 800338c:	2500      	movs	r5, #0
 800338e:	9505      	str	r5, [sp, #20]
    GPIO_InitStruct.Pull = GPIO_NOPULL;
 8003390:	9506      	str	r5, [sp, #24]
    HAL_GPIO_Init(GPIOB, &GPIO_InitStruct);
 8003392:	a904      	add	r1, sp, #16
 8003394:	4630      	mov	r0, r6
 8003396:	f000 ff27 	bl	80041e8 <HAL_GPIO_Init>
    hdma_usart3_tx.Instance = DMA1_Channel2;
 800339a:	481f      	ldr	r0, [pc, #124]	@ (8003418 <HAL_UART_MspInit+0x150>)
 800339c:	4b1f      	ldr	r3, [pc, #124]	@ (800341c <HAL_UART_MspInit+0x154>)
 800339e:	6003      	str	r3, [r0, #0]
    hdma_usart3_tx.Init.Direction = DMA_MEMORY_TO_PERIPH;
 80033a0:	2310      	movs	r3, #16
 80033a2:	6043      	str	r3, [r0, #4]
    hdma_usart3_tx.Init.PeriphInc = DMA_PINC_DISABLE;
 80033a4:	6085      	str	r5, [r0, #8]
    hdma_usart3_tx.Init.MemInc = DMA_MINC_ENABLE;
 80033a6:	2380      	movs	r3, #128	@ 0x80
 80033a8:	60c3      	str	r3, [r0, #12]
    hdma_usart3_tx.Init.PeriphDataAlignment = DMA_PDATAALIGN_BYTE;
 80033aa:	6105      	str	r5, [r0, #16]
    hdma_usart3_tx.Init.MemDataAlignment = DMA_MDATAALIGN_BYTE;
 80033ac:	6145      	str	r5, [r0, #20]
    hdma_usart3_tx.Init.Mode = DMA_NORMAL;
 80033ae:	6185      	str	r5, [r0, #24]
    hdma_usart3_tx.Init.Priority = DMA_PRIORITY_LOW;
 80033b0:	61c5      	str	r5, [r0, #28]
    if (HAL_DMA_Init(&hdma_usart3_tx) != HAL_OK)
 80033b2:	f000 fd87 	bl	8003ec4 <HAL_DMA_Init>
 80033b6:	b9f0      	cbnz	r0, 80033f6 <HAL_UART_MspInit+0x12e>
    __HAL_LINKDMA(huart,hdmatx,hdma_usart3_tx);
 80033b8:	4b17      	ldr	r3, [pc, #92]	@ (8003418 <HAL_UART_MspInit+0x150>)
 80033ba:	63a3      	str	r3, [r4, #56]	@ 0x38
 80033bc:	625c      	str	r4, [r3, #36]	@ 0x24
    hdma_usart3_rx.Instance = DMA1_Channel3;
 80033be:	4818      	ldr	r0, [pc, #96]	@ (8003420 <HAL_UART_MspInit+0x158>)
 80033c0:	4b18      	ldr	r3, [pc, #96]	@ (8003424 <HAL_UART_MspInit+0x15c>)
 80033c2:	6003      	str	r3, [r0, #0]
    hdma_usart3_rx.Init.Direction = DMA_PERIPH_TO_MEMORY;
 80033c4:	2300      	movs	r3, #0
 80033c6:	6043      	str	r3, [r0, #4]
    hdma_usart3_rx.Init.PeriphInc = DMA_PINC_DISABLE;
 80033c8:	6083      	str	r3, [r0, #8]
    hdma_usart3_rx.Init.MemInc = DMA_MINC_ENABLE;
 80033ca:	2280      	movs	r2, #128	@ 0x80
 80033cc:	60c2      	str	r2, [r0, #12]
    hdma_usart3_rx.Init.PeriphDataAlignment = DMA_PDATAALIGN_BYTE;
 80033ce:	6103      	str	r3, [r0, #16]
    hdma_usart3_rx.Init.MemDataAlignment = DMA_MDATAALIGN_BYTE;
 80033d0:	6143      	str	r3, [r0, #20]
    hdma_usart3_rx.Init.Mode = DMA_CIRCULAR;
 80033d2:	2220      	movs	r2, #32
 80033d4:	6182      	str	r2, [r0, #24]
    hdma_usart3_rx.Init.Priority = DMA_PRIORITY_LOW;
 80033d6:	61c3      	str	r3, [r0, #28]
    if (HAL_DMA_Init(&hdma_usart3_rx) != HAL_OK)
 80033d8:	f000 fd74 	bl	8003ec4 <HAL_DMA_Init>
 80033dc:	b970      	cbnz	r0, 80033fc <HAL_UART_MspInit+0x134>
    __HAL_LINKDMA(huart,hdmarx,hdma_usart3_rx);
 80033de:	4b10      	ldr	r3, [pc, #64]	@ (8003420 <HAL_UART_MspInit+0x158>)
 80033e0:	63e3      	str	r3, [r4, #60]	@ 0x3c
 80033e2:	625c      	str	r4, [r3, #36]	@ 0x24
    HAL_NVIC_SetPriority(USART3_IRQn, 0, 0);
 80033e4:	2200      	movs	r2, #0
 80033e6:	4611      	mov	r1, r2
 80033e8:	2027      	movs	r0, #39	@ 0x27
 80033ea:	f000 fd13 	bl	8003e14 <HAL_NVIC_SetPriority>
    HAL_NVIC_EnableIRQ(USART3_IRQn);
 80033ee:	2027      	movs	r0, #39	@ 0x27
 80033f0:	f000 fd46 	bl	8003e80 <HAL_NVIC_EnableIRQ>
}
 80033f4:	e777      	b.n	80032e6 <HAL_UART_MspInit+0x1e>
      Error_Handler();
 80033f6:	f7ff fc8f 	bl	8002d18 <Error_Handler>
 80033fa:	e7dd      	b.n	80033b8 <HAL_UART_MspInit+0xf0>
      Error_Handler();
 80033fc:	f7ff fc8c 	bl	8002d18 <Error_Handler>
 8003400:	e7ed      	b.n	80033de <HAL_UART_MspInit+0x116>
 8003402:	bf00      	nop
 8003404:	40013800 	.word	0x40013800
 8003408:	40004800 	.word	0x40004800
 800340c:	40021000 	.word	0x40021000
 8003410:	40010c00 	.word	0x40010c00
 8003414:	40010000 	.word	0x40010000
 8003418:	200003e0 	.word	0x200003e0
 800341c:	4002001c 	.word	0x4002001c
 8003420:	2000039c 	.word	0x2000039c
 8003424:	40020030 	.word	0x40020030

08003428 <NMI_Handler>:
{
  /* USER CODE BEGIN NonMaskableInt_IRQn 0 */

  /* USER CODE END NonMaskableInt_IRQn 0 */
  /* USER CODE BEGIN NonMaskableInt_IRQn 1 */
   while (1)
 8003428:	e7fe      	b.n	8003428 <NMI_Handler>

0800342a <HardFault_Handler>:
void HardFault_Handler(void)
{
  /* USER CODE BEGIN HardFault_IRQn 0 */

  /* USER CODE END HardFault_IRQn 0 */
  while (1)
 800342a:	e7fe      	b.n	800342a <HardFault_Handler>

0800342c <MemManage_Handler>:
void MemManage_Handler(void)
{
  /* USER CODE BEGIN MemoryManagement_IRQn 0 */

  /* USER CODE END MemoryManagement_IRQn 0 */
  while (1)
 800342c:	e7fe      	b.n	800342c <MemManage_Handler>

0800342e <BusFault_Handler>:
void BusFault_Handler(void)
{
  /* USER CODE BEGIN BusFault_IRQn 0 */

  /* USER CODE END BusFault_IRQn 0 */
  while (1)
 800342e:	e7fe      	b.n	800342e <BusFault_Handler>

08003430 <UsageFault_Handler>:
void UsageFault_Handler(void)
{
  /* USER CODE BEGIN UsageFault_IRQn 0 */

  /* USER CODE END UsageFault_IRQn 0 */
  while (1)
 8003430:	e7fe      	b.n	8003430 <UsageFault_Handler>

08003432 <SVC_Handler>:

  /* USER CODE END SVCall_IRQn 0 */
  /* USER CODE BEGIN SVCall_IRQn 1 */

  /* USER CODE END SVCall_IRQn 1 */
}
 8003432:	4770      	bx	lr

08003434 <DebugMon_Handler>:

  /* USER CODE END DebugMonitor_IRQn 0 */
  /* USER CODE BEGIN DebugMonitor_IRQn 1 */

  /* USER CODE END DebugMonitor_IRQn 1 */
}
 8003434:	4770      	bx	lr

08003436 <PendSV_Handler>:

  /* USER CODE END PendSV_IRQn 0 */
  /* USER CODE BEGIN PendSV_IRQn 1 */

  /* USER CODE END PendSV_IRQn 1 */
}
 8003436:	4770      	bx	lr

08003438 <SysTick_Handler>:

/**
  * @brief This function handles System tick timer.
  */
void SysTick_Handler(void)
{
 8003438:	b508      	push	{r3, lr}
  /* USER CODE BEGIN SysTick_IRQn 0 */

  /* USER CODE END SysTick_IRQn 0 */
  HAL_IncTick();
 800343a:	f000 f945 	bl	80036c8 <HAL_IncTick>
  /* USER CODE BEGIN SysTick_IRQn 1 */

  /* USER CODE END SysTick_IRQn 1 */
}
 800343e:	bd08      	pop	{r3, pc}

08003440 <DMA1_Channel1_IRQHandler>:

/**
  * @brief This function handles DMA1 channel1 global interrupt.
  */
void DMA1_Channel1_IRQHandler(void)
{
 8003440:	b508      	push	{r3, lr}
  /* USER CODE BEGIN DMA1_Channel1_IRQn 0 */

  /* USER CODE END DMA1_Channel1_IRQn 0 */
  HAL_DMA_IRQHandler(&hdma_adc1);
 8003442:	4802      	ldr	r0, [pc, #8]	@ (800344c <DMA1_Channel1_IRQHandler+0xc>)
 8003444:	f000 fe30 	bl	80040a8 <HAL_DMA_IRQHandler>
  /* USER CODE BEGIN DMA1_Channel1_IRQn 1 */

  /* USER CODE END DMA1_Channel1_IRQn 1 */
}
 8003448:	bd08      	pop	{r3, pc}
 800344a:	bf00      	nop
 800344c:	20000628 	.word	0x20000628

08003450 <DMA1_Channel2_IRQHandler>:

/**
  * @brief This function handles DMA1 channel2 global interrupt.
  */
void DMA1_Channel2_IRQHandler(void)
{
 8003450:	b508      	push	{r3, lr}
  /* USER CODE BEGIN DMA1_Channel2_IRQn 0 */

  /* USER CODE END DMA1_Channel2_IRQn 0 */
  HAL_DMA_IRQHandler(&hdma_usart3_tx);
 8003452:	4802      	ldr	r0, [pc, #8]	@ (800345c <DMA1_Channel2_IRQHandler+0xc>)
 8003454:	f000 fe28 	bl	80040a8 <HAL_DMA_IRQHandler>
  /* USER CODE BEGIN DMA1_Channel2_IRQn 1 */

  /* USER CODE END DMA1_Channel2_IRQn 1 */
}
 8003458:	bd08      	pop	{r3, pc}
 800345a:	bf00      	nop
 800345c:	200003e0 	.word	0x200003e0

08003460 <DMA1_Channel3_IRQHandler>:

/**
  * @brief This function handles DMA1 channel3 global interrupt.
  */
void DMA1_Channel3_IRQHandler(void)
{
 8003460:	b508      	push	{r3, lr}
  /* USER CODE BEGIN DMA1_Channel3_IRQn 0 */

  /* USER CODE END DMA1_Channel3_IRQn 0 */
  HAL_DMA_IRQHandler(&hdma_usart3_rx);
 8003462:	4802      	ldr	r0, [pc, #8]	@ (800346c <DMA1_Channel3_IRQHandler+0xc>)
 8003464:	f000 fe20 	bl	80040a8 <HAL_DMA_IRQHandler>
  /* USER CODE BEGIN DMA1_Channel3_IRQn 1 */

  /* USER CODE END DMA1_Channel3_IRQn 1 */
}
 8003468:	bd08      	pop	{r3, pc}
 800346a:	bf00      	nop
 800346c:	2000039c 	.word	0x2000039c

08003470 <ADC1_2_IRQHandler>:

/**
  * @brief This function handles ADC1 and ADC2 global interrupts.
  */
void ADC1_2_IRQHandler(void)
{
 8003470:	b508      	push	{r3, lr}
  /* USER CODE BEGIN ADC1_2_IRQn 0 */

  /* USER CODE END ADC1_2_IRQn 0 */
  HAL_ADC_IRQHandler(&hadc1);
 8003472:	4803      	ldr	r0, [pc, #12]	@ (8003480 <ADC1_2_IRQHandler+0x10>)
 8003474:	f000 f97f 	bl	8003776 <HAL_ADC_IRQHandler>
  HAL_ADC_IRQHandler(&hadc2);
 8003478:	4802      	ldr	r0, [pc, #8]	@ (8003484 <ADC1_2_IRQHandler+0x14>)
 800347a:	f000 f97c 	bl	8003776 <HAL_ADC_IRQHandler>
  /* USER CODE BEGIN ADC1_2_IRQn 1 */

  /* USER CODE END ADC1_2_IRQn 1 */
}
 800347e:	bd08      	pop	{r3, pc}
 8003480:	2000069c 	.word	0x2000069c
 8003484:	2000066c 	.word	0x2000066c

08003488 <TIM2_IRQHandler>:

/**
  * @brief This function handles TIM2 global interrupt.
  */
void TIM2_IRQHandler(void)
{
 8003488:	b508      	push	{r3, lr}
  /* USER CODE BEGIN TIM2_IRQn 0 */


	CNT_TIMER2++;
 800348a:	4a04      	ldr	r2, [pc, #16]	@ (800349c <TIM2_IRQHandler+0x14>)
 800348c:	6813      	ldr	r3, [r2, #0]
 800348e:	3301      	adds	r3, #1
 8003490:	6013      	str	r3, [r2, #0]

  /* USER CODE END TIM2_IRQn 0 */
  HAL_TIM_IRQHandler(&htim2);
 8003492:	4803      	ldr	r0, [pc, #12]	@ (80034a0 <TIM2_IRQHandler+0x18>)
 8003494:	f001 ff8d 	bl	80053b2 <HAL_TIM_IRQHandler>
  /* USER CODE BEGIN TIM2_IRQn 1 */

  /* USER CODE END TIM2_IRQn 1 */
}
 8003498:	bd08      	pop	{r3, pc}
 800349a:	bf00      	nop
 800349c:	20000310 	.word	0x20000310
 80034a0:	20000544 	.word	0x20000544

080034a4 <USART3_IRQHandler>:

/**
  * @brief This function handles USART3 global interrupt.
  */
void USART3_IRQHandler(void)
{
 80034a4:	b508      	push	{r3, lr}
  /* USER CODE BEGIN USART3_IRQn 0 */

  /* USER CODE END USART3_IRQn 0 */
  HAL_UART_IRQHandler(&huart3);
 80034a6:	4802      	ldr	r0, [pc, #8]	@ (80034b0 <USART3_IRQHandler+0xc>)
 80034a8:	f002 fda4 	bl	8005ff4 <HAL_UART_IRQHandler>
  /* USER CODE BEGIN USART3_IRQn 1 */

  /* USER CODE END USART3_IRQn 1 */
}
 80034ac:	bd08      	pop	{r3, pc}
 80034ae:	bf00      	nop
 80034b0:	20000424 	.word	0x20000424

080034b4 <EXTI15_10_IRQHandler>:

/**
  * @brief This function handles EXTI line[15:10] interrupts.
  */
void EXTI15_10_IRQHandler(void)
{
 80034b4:	b508      	push	{r3, lr}
  /* USER CODE BEGIN EXTI15_10_IRQn 0 */
	    if (__HAL_GPIO_EXTI_GET_IT(GPIO_PIN_12) != RESET)
 80034b6:	4b22      	ldr	r3, [pc, #136]	@ (8003540 <EXTI15_10_IRQHandler+0x8c>)
 80034b8:	695b      	ldr	r3, [r3, #20]
 80034ba:	f413 5f80 	tst.w	r3, #4096	@ 0x1000
 80034be:	d007      	beq.n	80034d0 <EXTI15_10_IRQHandler+0x1c>
	    {
	        __HAL_GPIO_EXTI_CLEAR_IT(GPIO_PIN_12);
 80034c0:	4b1f      	ldr	r3, [pc, #124]	@ (8003540 <EXTI15_10_IRQHandler+0x8c>)
 80034c2:	f44f 5280 	mov.w	r2, #4096	@ 0x1000
 80034c6:	615a      	str	r2, [r3, #20]
	        FLAG_SentKEY0++;
 80034c8:	4a1e      	ldr	r2, [pc, #120]	@ (8003544 <EXTI15_10_IRQHandler+0x90>)
 80034ca:	7813      	ldrb	r3, [r2, #0]
 80034cc:	3301      	adds	r3, #1
 80034ce:	7013      	strb	r3, [r2, #0]
	    }
	    if (__HAL_GPIO_EXTI_GET_IT(GPIO_PIN_13) != RESET)
 80034d0:	4b1b      	ldr	r3, [pc, #108]	@ (8003540 <EXTI15_10_IRQHandler+0x8c>)
 80034d2:	695b      	ldr	r3, [r3, #20]
 80034d4:	f413 5f00 	tst.w	r3, #8192	@ 0x2000
 80034d8:	d007      	beq.n	80034ea <EXTI15_10_IRQHandler+0x36>
	    {
	        __HAL_GPIO_EXTI_CLEAR_IT(GPIO_PIN_13);
 80034da:	4b19      	ldr	r3, [pc, #100]	@ (8003540 <EXTI15_10_IRQHandler+0x8c>)
 80034dc:	f44f 5200 	mov.w	r2, #8192	@ 0x2000
 80034e0:	615a      	str	r2, [r3, #20]
	        FLAG_SentKEY1++;
 80034e2:	4a19      	ldr	r2, [pc, #100]	@ (8003548 <EXTI15_10_IRQHandler+0x94>)
 80034e4:	7813      	ldrb	r3, [r2, #0]
 80034e6:	3301      	adds	r3, #1
 80034e8:	7013      	strb	r3, [r2, #0]
	    }
	    if (__HAL_GPIO_EXTI_GET_IT(GPIO_PIN_14) != RESET)
 80034ea:	4b15      	ldr	r3, [pc, #84]	@ (8003540 <EXTI15_10_IRQHandler+0x8c>)
 80034ec:	695b      	ldr	r3, [r3, #20]
 80034ee:	f413 4f80 	tst.w	r3, #16384	@ 0x4000
 80034f2:	d007      	beq.n	8003504 <EXTI15_10_IRQHandler+0x50>
	    {
	        __HAL_GPIO_EXTI_CLEAR_IT(GPIO_PIN_14);
 80034f4:	4b12      	ldr	r3, [pc, #72]	@ (8003540 <EXTI15_10_IRQHandler+0x8c>)
 80034f6:	f44f 4280 	mov.w	r2, #16384	@ 0x4000
 80034fa:	615a      	str	r2, [r3, #20]
	        FLAG_SentKEY2++;
 80034fc:	4a13      	ldr	r2, [pc, #76]	@ (800354c <EXTI15_10_IRQHandler+0x98>)
 80034fe:	7813      	ldrb	r3, [r2, #0]
 8003500:	3301      	adds	r3, #1
 8003502:	7013      	strb	r3, [r2, #0]
	    }
	    if (__HAL_GPIO_EXTI_GET_IT(GPIO_PIN_15) != RESET)
 8003504:	4b0e      	ldr	r3, [pc, #56]	@ (8003540 <EXTI15_10_IRQHandler+0x8c>)
 8003506:	695b      	ldr	r3, [r3, #20]
 8003508:	f413 4f00 	tst.w	r3, #32768	@ 0x8000
 800350c:	d007      	beq.n	800351e <EXTI15_10_IRQHandler+0x6a>
	    {
	        __HAL_GPIO_EXTI_CLEAR_IT(GPIO_PIN_15);
 800350e:	4b0c      	ldr	r3, [pc, #48]	@ (8003540 <EXTI15_10_IRQHandler+0x8c>)
 8003510:	f44f 4200 	mov.w	r2, #32768	@ 0x8000
 8003514:	615a      	str	r2, [r3, #20]
	        FLAG_SentKEY3++;
 8003516:	4a0e      	ldr	r2, [pc, #56]	@ (8003550 <EXTI15_10_IRQHandler+0x9c>)
 8003518:	7813      	ldrb	r3, [r2, #0]
 800351a:	3301      	adds	r3, #1
 800351c:	7013      	strb	r3, [r2, #0]
	    }
  /* USER CODE END EXTI15_10_IRQn 0 */
  HAL_GPIO_EXTI_IRQHandler(GPIO_PIN_12);
 800351e:	f44f 5080 	mov.w	r0, #4096	@ 0x1000
 8003522:	f000 ffaf 	bl	8004484 <HAL_GPIO_EXTI_IRQHandler>
  HAL_GPIO_EXTI_IRQHandler(GPIO_PIN_13);
 8003526:	f44f 5000 	mov.w	r0, #8192	@ 0x2000
 800352a:	f000 ffab 	bl	8004484 <HAL_GPIO_EXTI_IRQHandler>
  HAL_GPIO_EXTI_IRQHandler(GPIO_PIN_14);
 800352e:	f44f 4080 	mov.w	r0, #16384	@ 0x4000
 8003532:	f000 ffa7 	bl	8004484 <HAL_GPIO_EXTI_IRQHandler>
  HAL_GPIO_EXTI_IRQHandler(GPIO_PIN_15);
 8003536:	f44f 4000 	mov.w	r0, #32768	@ 0x8000
 800353a:	f000 ffa3 	bl	8004484 <HAL_GPIO_EXTI_IRQHandler>
  /* USER CODE BEGIN EXTI15_10_IRQn 1 */

  /* USER CODE END EXTI15_10_IRQn 1 */
}
 800353e:	bd08      	pop	{r3, pc}
 8003540:	40010400 	.word	0x40010400
 8003544:	200002f5 	.word	0x200002f5
 8003548:	200002f4 	.word	0x200002f4
 800354c:	200002f3 	.word	0x200002f3
 8003550:	200002f2 	.word	0x200002f2

08003554 <_getpid>:
}

int _getpid(void)
{
  return 1;
}
 8003554:	2001      	movs	r0, #1
 8003556:	4770      	bx	lr

08003558 <_kill>:

int _kill(int pid, int sig)
{
 8003558:	b508      	push	{r3, lr}
  (void)pid;
  (void)sig;
  errno = EINVAL;
 800355a:	f003 ffc9 	bl	80074f0 <__errno>
 800355e:	2316      	movs	r3, #22
 8003560:	6003      	str	r3, [r0, #0]
  return -1;
}
 8003562:	f04f 30ff 	mov.w	r0, #4294967295
 8003566:	bd08      	pop	{r3, pc}

08003568 <_exit>:

void _exit (int status)
{
 8003568:	b508      	push	{r3, lr}
  errno = EINVAL;
 800356a:	f003 ffc1 	bl	80074f0 <__errno>
 800356e:	2316      	movs	r3, #22
 8003570:	6003      	str	r3, [r0, #0]
  _kill(status, -1);
  while (1) {}    /* Make sure we hang here */
 8003572:	e7fe      	b.n	8003572 <_exit+0xa>

08003574 <_read>:
}

__attribute__((weak)) int _read(int file, char *ptr, int len)
{
 8003574:	b570      	push	{r4, r5, r6, lr}
  (void)file;
  int DataIdx;

  for (DataIdx = 0; DataIdx < len; DataIdx++)
 8003576:	1e16      	subs	r6, r2, #0
 8003578:	dd07      	ble.n	800358a <_read+0x16>
 800357a:	460c      	mov	r4, r1
 800357c:	198d      	adds	r5, r1, r6
  {
    *ptr++ = __io_getchar();
 800357e:	f3af 8000 	nop.w
 8003582:	f804 0b01 	strb.w	r0, [r4], #1
  for (DataIdx = 0; DataIdx < len; DataIdx++)
 8003586:	42a5      	cmp	r5, r4
 8003588:	d1f9      	bne.n	800357e <_read+0xa>
  }

  return len;
}
 800358a:	4630      	mov	r0, r6
 800358c:	bd70      	pop	{r4, r5, r6, pc}

0800358e <_write>:

__attribute__((weak)) int _write(int file, char *ptr, int len)
{
 800358e:	b570      	push	{r4, r5, r6, lr}
  (void)file;
  int DataIdx;

  for (DataIdx = 0; DataIdx < len; DataIdx++)
 8003590:	1e16      	subs	r6, r2, #0
 8003592:	dd07      	ble.n	80035a4 <_write+0x16>
 8003594:	460c      	mov	r4, r1
 8003596:	198d      	adds	r5, r1, r6
  {
    __io_putchar(*ptr++);
 8003598:	f814 0b01 	ldrb.w	r0, [r4], #1
 800359c:	f3af 8000 	nop.w
  for (DataIdx = 0; DataIdx < len; DataIdx++)
 80035a0:	42a5      	cmp	r5, r4
 80035a2:	d1f9      	bne.n	8003598 <_write+0xa>
  }
  return len;
}
 80035a4:	4630      	mov	r0, r6
 80035a6:	bd70      	pop	{r4, r5, r6, pc}

080035a8 <_close>:

int _close(int file)
{
  (void)file;
  return -1;
}
 80035a8:	f04f 30ff 	mov.w	r0, #4294967295
 80035ac:	4770      	bx	lr

080035ae <_fstat>:


int _fstat(int file, struct stat *st)
{
  (void)file;
  st->st_mode = S_IFCHR;
 80035ae:	f44f 5300 	mov.w	r3, #8192	@ 0x2000
 80035b2:	604b      	str	r3, [r1, #4]
  return 0;
}
 80035b4:	2000      	movs	r0, #0
 80035b6:	4770      	bx	lr

080035b8 <_isatty>:

int _isatty(int file)
{
  (void)file;
  return 1;
}
 80035b8:	2001      	movs	r0, #1
 80035ba:	4770      	bx	lr

080035bc <_lseek>:
{
  (void)file;
  (void)ptr;
  (void)dir;
  return 0;
}
 80035bc:	2000      	movs	r0, #0
 80035be:	4770      	bx	lr

080035c0 <_sbrk>:
 *
 * @param incr Memory size
 * @return Pointer to allocated memory
 */
void *_sbrk(ptrdiff_t incr)
{
 80035c0:	b508      	push	{r3, lr}
 80035c2:	4603      	mov	r3, r0
  const uint32_t stack_limit = (uint32_t)&_estack - (uint32_t)&_Min_Stack_Size;
  const uint8_t *max_heap = (uint8_t *)stack_limit;
  uint8_t *prev_heap_end;

  /* Initialize heap end at first call */
  if (NULL == __sbrk_heap_end)
 80035c4:	4a0c      	ldr	r2, [pc, #48]	@ (80035f8 <_sbrk+0x38>)
 80035c6:	6812      	ldr	r2, [r2, #0]
 80035c8:	b152      	cbz	r2, 80035e0 <_sbrk+0x20>
  {
    __sbrk_heap_end = &_end;
  }

  /* Protect heap from growing into the reserved MSP stack */
  if (__sbrk_heap_end + incr > max_heap)
 80035ca:	4a0b      	ldr	r2, [pc, #44]	@ (80035f8 <_sbrk+0x38>)
 80035cc:	6810      	ldr	r0, [r2, #0]
 80035ce:	4403      	add	r3, r0
 80035d0:	4a0a      	ldr	r2, [pc, #40]	@ (80035fc <_sbrk+0x3c>)
 80035d2:	490b      	ldr	r1, [pc, #44]	@ (8003600 <_sbrk+0x40>)
 80035d4:	1a52      	subs	r2, r2, r1
 80035d6:	4293      	cmp	r3, r2
 80035d8:	d806      	bhi.n	80035e8 <_sbrk+0x28>
    errno = ENOMEM;
    return (void *)-1;
  }

  prev_heap_end = __sbrk_heap_end;
  __sbrk_heap_end += incr;
 80035da:	4a07      	ldr	r2, [pc, #28]	@ (80035f8 <_sbrk+0x38>)
 80035dc:	6013      	str	r3, [r2, #0]

  return (void *)prev_heap_end;
}
 80035de:	bd08      	pop	{r3, pc}
    __sbrk_heap_end = &_end;
 80035e0:	4a05      	ldr	r2, [pc, #20]	@ (80035f8 <_sbrk+0x38>)
 80035e2:	4908      	ldr	r1, [pc, #32]	@ (8003604 <_sbrk+0x44>)
 80035e4:	6011      	str	r1, [r2, #0]
 80035e6:	e7f0      	b.n	80035ca <_sbrk+0xa>
    errno = ENOMEM;
 80035e8:	f003 ff82 	bl	80074f0 <__errno>
 80035ec:	230c      	movs	r3, #12
 80035ee:	6003      	str	r3, [r0, #0]
    return (void *)-1;
 80035f0:	f04f 30ff 	mov.w	r0, #4294967295
 80035f4:	e7f3      	b.n	80035de <_sbrk+0x1e>
 80035f6:	bf00      	nop
 80035f8:	20000ad4 	.word	0x20000ad4
 80035fc:	20005000 	.word	0x20005000
 8003600:	00000400 	.word	0x00000400
 8003604:	20000c28 	.word	0x20000c28

08003608 <SystemInit>:

  /* Configure the Vector Table location -------------------------------------*/
#if defined(USER_VECT_TAB_ADDRESS)
  SCB->VTOR = VECT_TAB_BASE_ADDRESS | VECT_TAB_OFFSET; /* Vector Table Relocation in Internal SRAM. */
#endif /* USER_VECT_TAB_ADDRESS */
}
 8003608:	4770      	bx	lr
	...

0800360c <Reset_Handler>:
  .weak Reset_Handler
  .type Reset_Handler, %function
Reset_Handler:

/* Call the clock system initialization function.*/
    bl  SystemInit
 800360c:	f7ff fffc 	bl	8003608 <SystemInit>

/* Copy the data segment initializers from flash to SRAM */  ldr r0, =_sdata
 8003610:	480b      	ldr	r0, [pc, #44]	@ (8003640 <LoopFillZerobss+0xe>)
  ldr r1, =_edata
 8003612:	490c      	ldr	r1, [pc, #48]	@ (8003644 <LoopFillZerobss+0x12>)
  ldr r2, =_sidata
 8003614:	4a0c      	ldr	r2, [pc, #48]	@ (8003648 <LoopFillZerobss+0x16>)
  movs r3, #0
 8003616:	2300      	movs	r3, #0
  b LoopCopyDataInit
 8003618:	e002      	b.n	8003620 <LoopCopyDataInit>

0800361a <CopyDataInit>:

CopyDataInit:
  ldr r4, [r2, r3]
 800361a:	58d4      	ldr	r4, [r2, r3]
  str r4, [r0, r3]
 800361c:	50c4      	str	r4, [r0, r3]
  adds r3, r3, #4
 800361e:	3304      	adds	r3, #4

08003620 <LoopCopyDataInit>:

LoopCopyDataInit:
  adds r4, r0, r3
 8003620:	18c4      	adds	r4, r0, r3
  cmp r4, r1
 8003622:	428c      	cmp	r4, r1
  bcc CopyDataInit
 8003624:	d3f9      	bcc.n	800361a <CopyDataInit>
  
/* Zero fill the bss segment. */
  ldr r2, =_sbss
 8003626:	4a09      	ldr	r2, [pc, #36]	@ (800364c <LoopFillZerobss+0x1a>)
  ldr r4, =_ebss
 8003628:	4c09      	ldr	r4, [pc, #36]	@ (8003650 <LoopFillZerobss+0x1e>)
  movs r3, #0
 800362a:	2300      	movs	r3, #0
  b LoopFillZerobss
 800362c:	e001      	b.n	8003632 <LoopFillZerobss>

0800362e <FillZerobss>:

FillZerobss:
  str  r3, [r2]
 800362e:	6013      	str	r3, [r2, #0]
  adds r2, r2, #4
 8003630:	3204      	adds	r2, #4

08003632 <LoopFillZerobss>:

LoopFillZerobss:
  cmp r2, r4
 8003632:	42a2      	cmp	r2, r4
  bcc FillZerobss
 8003634:	d3fb      	bcc.n	800362e <FillZerobss>

/* Call static constructors */
    bl __libc_init_array
 8003636:	f003 ff61 	bl	80074fc <__libc_init_array>
/* Call the application's entry point.*/
  bl main
 800363a:	f7fe ff67 	bl	800250c <main>
  bx lr
 800363e:	4770      	bx	lr
/* Copy the data segment initializers from flash to SRAM */  ldr r0, =_sdata
 8003640:	20000000 	.word	0x20000000
  ldr r1, =_edata
 8003644:	200002d0 	.word	0x200002d0
  ldr r2, =_sidata
 8003648:	0800cd44 	.word	0x0800cd44
  ldr r2, =_sbss
 800364c:	200002d0 	.word	0x200002d0
  ldr r4, =_ebss
 8003650:	20000c28 	.word	0x20000c28

08003654 <CAN1_RX1_IRQHandler>:
 * @retval : None
*/
    .section .text.Default_Handler,"ax",%progbits
Default_Handler:
Infinite_Loop:
  b Infinite_Loop
 8003654:	e7fe      	b.n	8003654 <CAN1_RX1_IRQHandler>
	...

08003658 <HAL_InitTick>:
  *       implementation  in user file.
  * @param TickPriority Tick interrupt priority.
  * @retval HAL status
  */
__weak HAL_StatusTypeDef HAL_InitTick(uint32_t TickPriority)
{
 8003658:	b510      	push	{r4, lr}
 800365a:	4604      	mov	r4, r0
  /* Configure the SysTick to have interrupt in 1ms time basis*/
  if (HAL_SYSTICK_Config(SystemCoreClock / (1000U / uwTickFreq)) > 0U)
 800365c:	4b0e      	ldr	r3, [pc, #56]	@ (8003698 <HAL_InitTick+0x40>)
 800365e:	781a      	ldrb	r2, [r3, #0]
 8003660:	f44f 737a 	mov.w	r3, #1000	@ 0x3e8
 8003664:	fbb3 f3f2 	udiv	r3, r3, r2
 8003668:	4a0c      	ldr	r2, [pc, #48]	@ (800369c <HAL_InitTick+0x44>)
 800366a:	6810      	ldr	r0, [r2, #0]
 800366c:	fbb0 f0f3 	udiv	r0, r0, r3
 8003670:	f000 fc14 	bl	8003e9c <HAL_SYSTICK_Config>
 8003674:	b968      	cbnz	r0, 8003692 <HAL_InitTick+0x3a>
  {
    return HAL_ERROR;
  }

  /* Configure the SysTick IRQ priority */
  if (TickPriority < (1UL << __NVIC_PRIO_BITS))
 8003676:	2c0f      	cmp	r4, #15
 8003678:	d901      	bls.n	800367e <HAL_InitTick+0x26>
    HAL_NVIC_SetPriority(SysTick_IRQn, TickPriority, 0U);
    uwTickPrio = TickPriority;
  }
  else
  {
    return HAL_ERROR;
 800367a:	2001      	movs	r0, #1
 800367c:	e00a      	b.n	8003694 <HAL_InitTick+0x3c>
    HAL_NVIC_SetPriority(SysTick_IRQn, TickPriority, 0U);
 800367e:	2200      	movs	r2, #0
 8003680:	4621      	mov	r1, r4
 8003682:	f04f 30ff 	mov.w	r0, #4294967295
 8003686:	f000 fbc5 	bl	8003e14 <HAL_NVIC_SetPriority>
    uwTickPrio = TickPriority;
 800368a:	4b05      	ldr	r3, [pc, #20]	@ (80036a0 <HAL_InitTick+0x48>)
 800368c:	601c      	str	r4, [r3, #0]
  }

  /* Return function status */
  return HAL_OK;
 800368e:	2000      	movs	r0, #0
 8003690:	e000      	b.n	8003694 <HAL_InitTick+0x3c>
    return HAL_ERROR;
 8003692:	2001      	movs	r0, #1
}
 8003694:	bd10      	pop	{r4, pc}
 8003696:	bf00      	nop
 8003698:	20000100 	.word	0x20000100
 800369c:	200000fc 	.word	0x200000fc
 80036a0:	20000104 	.word	0x20000104

080036a4 <HAL_Init>:
{
 80036a4:	b508      	push	{r3, lr}
  __HAL_FLASH_PREFETCH_BUFFER_ENABLE();
 80036a6:	4a07      	ldr	r2, [pc, #28]	@ (80036c4 <HAL_Init+0x20>)
 80036a8:	6813      	ldr	r3, [r2, #0]
 80036aa:	f043 0310 	orr.w	r3, r3, #16
 80036ae:	6013      	str	r3, [r2, #0]
  HAL_NVIC_SetPriorityGrouping(NVIC_PRIORITYGROUP_4);
 80036b0:	2003      	movs	r0, #3
 80036b2:	f000 fb9d 	bl	8003df0 <HAL_NVIC_SetPriorityGrouping>
  HAL_InitTick(TICK_INT_PRIORITY);
 80036b6:	200f      	movs	r0, #15
 80036b8:	f7ff ffce 	bl	8003658 <HAL_InitTick>
  HAL_MspInit();
 80036bc:	f7ff fc96 	bl	8002fec <HAL_MspInit>
}
 80036c0:	2000      	movs	r0, #0
 80036c2:	bd08      	pop	{r3, pc}
 80036c4:	40022000 	.word	0x40022000

080036c8 <HAL_IncTick>:
  *      implementations in user file.
  * @retval None
  */
__weak void HAL_IncTick(void)
{
  uwTick += uwTickFreq;
 80036c8:	4a03      	ldr	r2, [pc, #12]	@ (80036d8 <HAL_IncTick+0x10>)
 80036ca:	6811      	ldr	r1, [r2, #0]
 80036cc:	4b03      	ldr	r3, [pc, #12]	@ (80036dc <HAL_IncTick+0x14>)
 80036ce:	781b      	ldrb	r3, [r3, #0]
 80036d0:	440b      	add	r3, r1
 80036d2:	6013      	str	r3, [r2, #0]
}
 80036d4:	4770      	bx	lr
 80036d6:	bf00      	nop
 80036d8:	20000ad8 	.word	0x20000ad8
 80036dc:	20000100 	.word	0x20000100

080036e0 <HAL_GetTick>:
  *       implementations in user file.
  * @retval tick value
  */
__weak uint32_t HAL_GetTick(void)
{
  return uwTick;
 80036e0:	4b01      	ldr	r3, [pc, #4]	@ (80036e8 <HAL_GetTick+0x8>)
 80036e2:	6818      	ldr	r0, [r3, #0]
}
 80036e4:	4770      	bx	lr
 80036e6:	bf00      	nop
 80036e8:	20000ad8 	.word	0x20000ad8

080036ec <HAL_Delay>:
  *       implementations in user file.
  * @param Delay specifies the delay time length, in milliseconds.
  * @retval None
  */
__weak void HAL_Delay(uint32_t Delay)
{
 80036ec:	b538      	push	{r3, r4, r5, lr}
 80036ee:	4604      	mov	r4, r0
  uint32_t tickstart = HAL_GetTick();
 80036f0:	f7ff fff6 	bl	80036e0 <HAL_GetTick>
 80036f4:	4605      	mov	r5, r0
  uint32_t wait = Delay;

  /* Add a freq to guarantee minimum wait */
  if (wait < HAL_MAX_DELAY)
 80036f6:	f1b4 3fff 	cmp.w	r4, #4294967295
 80036fa:	d002      	beq.n	8003702 <HAL_Delay+0x16>
  {
    wait += (uint32_t)(uwTickFreq);
 80036fc:	4b04      	ldr	r3, [pc, #16]	@ (8003710 <HAL_Delay+0x24>)
 80036fe:	781b      	ldrb	r3, [r3, #0]
 8003700:	441c      	add	r4, r3
  }

  while ((HAL_GetTick() - tickstart) < wait)
 8003702:	f7ff ffed 	bl	80036e0 <HAL_GetTick>
 8003706:	1b40      	subs	r0, r0, r5
 8003708:	42a0      	cmp	r0, r4
 800370a:	d3fa      	bcc.n	8003702 <HAL_Delay+0x16>
  {
  }
}
 800370c:	bd38      	pop	{r3, r4, r5, pc}
 800370e:	bf00      	nop
 8003710:	20000100 	.word	0x20000100

08003714 <HAL_ADC_ConvCpltCallback>:
  /* Prevent unused argument(s) compilation warning */
  UNUSED(hadc);
  /* NOTE : This function should not be modified. When the callback is needed,
            function HAL_ADC_ConvCpltCallback must be implemented in the user file.
   */
}
 8003714:	4770      	bx	lr

08003716 <ADC_DMAConvCplt>:
  * @brief  DMA transfer complete callback. 
  * @param  hdma: pointer to DMA handle.
  * @retval None
  */
void ADC_DMAConvCplt(DMA_HandleTypeDef *hdma)
{
 8003716:	b508      	push	{r3, lr}
  /* Retrieve ADC handle corresponding to current DMA handle */
  ADC_HandleTypeDef* hadc = ( ADC_HandleTypeDef* )((DMA_HandleTypeDef* )hdma)->Parent;
 8003718:	6a43      	ldr	r3, [r0, #36]	@ 0x24
 
  /* Update state machine on conversion status if not in error state */
  if (HAL_IS_BIT_CLR(hadc->State, HAL_ADC_STATE_ERROR_INTERNAL | HAL_ADC_STATE_ERROR_DMA))
 800371a:	6a9a      	ldr	r2, [r3, #40]	@ 0x28
 800371c:	f012 0f50 	tst.w	r2, #80	@ 0x50
 8003720:	d11e      	bne.n	8003760 <ADC_DMAConvCplt+0x4a>
  {
    /* Update ADC state machine */
    SET_BIT(hadc->State, HAL_ADC_STATE_REG_EOC);
 8003722:	6a9a      	ldr	r2, [r3, #40]	@ 0x28
 8003724:	f442 7200 	orr.w	r2, r2, #512	@ 0x200
 8003728:	629a      	str	r2, [r3, #40]	@ 0x28
    /* Determine whether any further conversion upcoming on group regular     */
    /* by external trigger, continuous mode or scan sequence on going.        */
    /* Note: On STM32F1 devices, in case of sequencer enabled                 */
    /*       (several ranks selected), end of conversion flag is raised       */
    /*       at the end of the sequence.                                      */
    if(ADC_IS_SOFTWARE_START_REGULAR(hadc)        && 
 800372a:	681a      	ldr	r2, [r3, #0]
 800372c:	6892      	ldr	r2, [r2, #8]
 800372e:	f402 2260 	and.w	r2, r2, #917504	@ 0xe0000
 8003732:	f5b2 2f60 	cmp.w	r2, #917504	@ 0xe0000
 8003736:	d003      	beq.n	8003740 <ADC_DMAConvCplt+0x2a>
    
    /* Conversion complete callback */
#if (USE_HAL_ADC_REGISTER_CALLBACKS == 1)
    hadc->ConvCpltCallback(hadc);
#else
    HAL_ADC_ConvCpltCallback(hadc);
 8003738:	4618      	mov	r0, r3
 800373a:	f7ff ffeb 	bl	8003714 <HAL_ADC_ConvCpltCallback>
  else
  {
    /* Call DMA error callback */
    hadc->DMA_Handle->XferErrorCallback(hdma);
  }
}
 800373e:	bd08      	pop	{r3, pc}
    if(ADC_IS_SOFTWARE_START_REGULAR(hadc)        && 
 8003740:	7b1a      	ldrb	r2, [r3, #12]
 8003742:	2a00      	cmp	r2, #0
 8003744:	d1f8      	bne.n	8003738 <ADC_DMAConvCplt+0x22>
      CLEAR_BIT(hadc->State, HAL_ADC_STATE_REG_BUSY);   
 8003746:	6a9a      	ldr	r2, [r3, #40]	@ 0x28
 8003748:	f422 7280 	bic.w	r2, r2, #256	@ 0x100
 800374c:	629a      	str	r2, [r3, #40]	@ 0x28
      if (HAL_IS_BIT_CLR(hadc->State, HAL_ADC_STATE_INJ_BUSY))
 800374e:	6a9a      	ldr	r2, [r3, #40]	@ 0x28
 8003750:	f412 5f80 	tst.w	r2, #4096	@ 0x1000
 8003754:	d1f0      	bne.n	8003738 <ADC_DMAConvCplt+0x22>
        SET_BIT(hadc->State, HAL_ADC_STATE_READY);
 8003756:	6a9a      	ldr	r2, [r3, #40]	@ 0x28
 8003758:	f042 0201 	orr.w	r2, r2, #1
 800375c:	629a      	str	r2, [r3, #40]	@ 0x28
 800375e:	e7eb      	b.n	8003738 <ADC_DMAConvCplt+0x22>
    hadc->DMA_Handle->XferErrorCallback(hdma);
 8003760:	6a1b      	ldr	r3, [r3, #32]
 8003762:	6b1b      	ldr	r3, [r3, #48]	@ 0x30
 8003764:	4798      	blx	r3
}
 8003766:	e7ea      	b.n	800373e <ADC_DMAConvCplt+0x28>

08003768 <HAL_ADC_ConvHalfCpltCallback>:
}
 8003768:	4770      	bx	lr

0800376a <ADC_DMAHalfConvCplt>:
  * @brief  DMA half transfer complete callback. 
  * @param  hdma: pointer to DMA handle.
  * @retval None
  */
void ADC_DMAHalfConvCplt(DMA_HandleTypeDef *hdma)   
{
 800376a:	b508      	push	{r3, lr}
  
  /* Half conversion callback */
#if (USE_HAL_ADC_REGISTER_CALLBACKS == 1)
    hadc->ConvHalfCpltCallback(hadc);
#else
  HAL_ADC_ConvHalfCpltCallback(hadc);
 800376c:	6a40      	ldr	r0, [r0, #36]	@ 0x24
 800376e:	f7ff fffb 	bl	8003768 <HAL_ADC_ConvHalfCpltCallback>
#endif /* USE_HAL_ADC_REGISTER_CALLBACKS */
}
 8003772:	bd08      	pop	{r3, pc}

08003774 <HAL_ADC_LevelOutOfWindowCallback>:
}
 8003774:	4770      	bx	lr

08003776 <HAL_ADC_IRQHandler>:
{
 8003776:	b570      	push	{r4, r5, r6, lr}
 8003778:	4604      	mov	r4, r0
  uint32_t tmp_sr = hadc->Instance->SR;
 800377a:	6803      	ldr	r3, [r0, #0]
 800377c:	681e      	ldr	r6, [r3, #0]
  uint32_t tmp_cr1 = hadc->Instance->CR1;
 800377e:	685d      	ldr	r5, [r3, #4]
  if((tmp_cr1 & ADC_IT_EOC) == ADC_IT_EOC)
 8003780:	f015 0f20 	tst.w	r5, #32
 8003784:	d017      	beq.n	80037b6 <HAL_ADC_IRQHandler+0x40>
    if((tmp_sr & ADC_FLAG_EOC) == ADC_FLAG_EOC)
 8003786:	f016 0f02 	tst.w	r6, #2
 800378a:	d014      	beq.n	80037b6 <HAL_ADC_IRQHandler+0x40>
      if (HAL_IS_BIT_CLR(hadc->State, HAL_ADC_STATE_ERROR_INTERNAL))
 800378c:	6a82      	ldr	r2, [r0, #40]	@ 0x28
 800378e:	f012 0f10 	tst.w	r2, #16
 8003792:	d103      	bne.n	800379c <HAL_ADC_IRQHandler+0x26>
        SET_BIT(hadc->State, HAL_ADC_STATE_REG_EOC); 
 8003794:	6a82      	ldr	r2, [r0, #40]	@ 0x28
 8003796:	f442 7200 	orr.w	r2, r2, #512	@ 0x200
 800379a:	6282      	str	r2, [r0, #40]	@ 0x28
      if(ADC_IS_SOFTWARE_START_REGULAR(hadc)        && 
 800379c:	689a      	ldr	r2, [r3, #8]
 800379e:	f402 2260 	and.w	r2, r2, #917504	@ 0xe0000
 80037a2:	f5b2 2f60 	cmp.w	r2, #917504	@ 0xe0000
 80037a6:	d033      	beq.n	8003810 <HAL_ADC_IRQHandler+0x9a>
      HAL_ADC_ConvCpltCallback(hadc);
 80037a8:	4620      	mov	r0, r4
 80037aa:	f7ff ffb3 	bl	8003714 <HAL_ADC_ConvCpltCallback>
      __HAL_ADC_CLEAR_FLAG(hadc, ADC_FLAG_STRT | ADC_FLAG_EOC);
 80037ae:	6823      	ldr	r3, [r4, #0]
 80037b0:	f06f 0212 	mvn.w	r2, #18
 80037b4:	601a      	str	r2, [r3, #0]
  if((tmp_cr1 & ADC_IT_JEOC) == ADC_IT_JEOC)
 80037b6:	f015 0f80 	tst.w	r5, #128	@ 0x80
 80037ba:	d022      	beq.n	8003802 <HAL_ADC_IRQHandler+0x8c>
    if((tmp_sr & ADC_FLAG_JEOC) == ADC_FLAG_JEOC)
 80037bc:	f016 0f04 	tst.w	r6, #4
 80037c0:	d01f      	beq.n	8003802 <HAL_ADC_IRQHandler+0x8c>
      if (HAL_IS_BIT_CLR(hadc->State, HAL_ADC_STATE_ERROR_INTERNAL))
 80037c2:	6aa3      	ldr	r3, [r4, #40]	@ 0x28
 80037c4:	f013 0f10 	tst.w	r3, #16
 80037c8:	d103      	bne.n	80037d2 <HAL_ADC_IRQHandler+0x5c>
        SET_BIT(hadc->State, HAL_ADC_STATE_INJ_EOC);
 80037ca:	6aa3      	ldr	r3, [r4, #40]	@ 0x28
 80037cc:	f443 5300 	orr.w	r3, r3, #8192	@ 0x2000
 80037d0:	62a3      	str	r3, [r4, #40]	@ 0x28
      if(ADC_IS_SOFTWARE_START_INJECTED(hadc)                     || 
 80037d2:	6822      	ldr	r2, [r4, #0]
 80037d4:	6893      	ldr	r3, [r2, #8]
 80037d6:	f403 43e0 	and.w	r3, r3, #28672	@ 0x7000
 80037da:	f5b3 4fe0 	cmp.w	r3, #28672	@ 0x7000
 80037de:	d02e      	beq.n	800383e <HAL_ADC_IRQHandler+0xc8>
         (HAL_IS_BIT_CLR(hadc->Instance->CR1, ADC_CR1_JAUTO) &&     
 80037e0:	6853      	ldr	r3, [r2, #4]
      if(ADC_IS_SOFTWARE_START_INJECTED(hadc)                     || 
 80037e2:	f413 6f80 	tst.w	r3, #1024	@ 0x400
 80037e6:	d105      	bne.n	80037f4 <HAL_ADC_IRQHandler+0x7e>
         (ADC_IS_SOFTWARE_START_REGULAR(hadc)        &&
 80037e8:	6893      	ldr	r3, [r2, #8]
 80037ea:	f403 2360 	and.w	r3, r3, #917504	@ 0xe0000
         (HAL_IS_BIT_CLR(hadc->Instance->CR1, ADC_CR1_JAUTO) &&     
 80037ee:	f5b3 2f60 	cmp.w	r3, #917504	@ 0xe0000
 80037f2:	d021      	beq.n	8003838 <HAL_ADC_IRQHandler+0xc2>
      HAL_ADCEx_InjectedConvCpltCallback(hadc);
 80037f4:	4620      	mov	r0, r4
 80037f6:	f000 faf9 	bl	8003dec <HAL_ADCEx_InjectedConvCpltCallback>
      __HAL_ADC_CLEAR_FLAG(hadc, (ADC_FLAG_JSTRT | ADC_FLAG_JEOC));
 80037fa:	6823      	ldr	r3, [r4, #0]
 80037fc:	f06f 020c 	mvn.w	r2, #12
 8003800:	601a      	str	r2, [r3, #0]
  if((tmp_cr1 & ADC_IT_AWD) == ADC_IT_AWD)
 8003802:	f015 0f40 	tst.w	r5, #64	@ 0x40
 8003806:	d002      	beq.n	800380e <HAL_ADC_IRQHandler+0x98>
    if((tmp_sr & ADC_FLAG_AWD) == ADC_FLAG_AWD)
 8003808:	f016 0f01 	tst.w	r6, #1
 800380c:	d128      	bne.n	8003860 <HAL_ADC_IRQHandler+0xea>
}
 800380e:	bd70      	pop	{r4, r5, r6, pc}
      if(ADC_IS_SOFTWARE_START_REGULAR(hadc)        && 
 8003810:	7b22      	ldrb	r2, [r4, #12]
 8003812:	2a00      	cmp	r2, #0
 8003814:	d1c8      	bne.n	80037a8 <HAL_ADC_IRQHandler+0x32>
        __HAL_ADC_DISABLE_IT(hadc, ADC_IT_EOC);
 8003816:	685a      	ldr	r2, [r3, #4]
 8003818:	f022 0220 	bic.w	r2, r2, #32
 800381c:	605a      	str	r2, [r3, #4]
        CLEAR_BIT(hadc->State, HAL_ADC_STATE_REG_BUSY);   
 800381e:	6aa3      	ldr	r3, [r4, #40]	@ 0x28
 8003820:	f423 7380 	bic.w	r3, r3, #256	@ 0x100
 8003824:	62a3      	str	r3, [r4, #40]	@ 0x28
        if (HAL_IS_BIT_CLR(hadc->State, HAL_ADC_STATE_INJ_BUSY))
 8003826:	6aa3      	ldr	r3, [r4, #40]	@ 0x28
 8003828:	f413 5f80 	tst.w	r3, #4096	@ 0x1000
 800382c:	d1bc      	bne.n	80037a8 <HAL_ADC_IRQHandler+0x32>
          SET_BIT(hadc->State, HAL_ADC_STATE_READY);
 800382e:	6aa3      	ldr	r3, [r4, #40]	@ 0x28
 8003830:	f043 0301 	orr.w	r3, r3, #1
 8003834:	62a3      	str	r3, [r4, #40]	@ 0x28
 8003836:	e7b7      	b.n	80037a8 <HAL_ADC_IRQHandler+0x32>
         (ADC_IS_SOFTWARE_START_REGULAR(hadc)        &&
 8003838:	7b23      	ldrb	r3, [r4, #12]
 800383a:	2b00      	cmp	r3, #0
 800383c:	d1da      	bne.n	80037f4 <HAL_ADC_IRQHandler+0x7e>
        __HAL_ADC_DISABLE_IT(hadc, ADC_IT_JEOC);
 800383e:	6853      	ldr	r3, [r2, #4]
 8003840:	f023 0380 	bic.w	r3, r3, #128	@ 0x80
 8003844:	6053      	str	r3, [r2, #4]
        CLEAR_BIT(hadc->State, HAL_ADC_STATE_INJ_BUSY);   
 8003846:	6aa3      	ldr	r3, [r4, #40]	@ 0x28
 8003848:	f423 5380 	bic.w	r3, r3, #4096	@ 0x1000
 800384c:	62a3      	str	r3, [r4, #40]	@ 0x28
        if (HAL_IS_BIT_CLR(hadc->State, HAL_ADC_STATE_REG_BUSY))
 800384e:	6aa3      	ldr	r3, [r4, #40]	@ 0x28
 8003850:	f413 7f80 	tst.w	r3, #256	@ 0x100
 8003854:	d1ce      	bne.n	80037f4 <HAL_ADC_IRQHandler+0x7e>
          SET_BIT(hadc->State, HAL_ADC_STATE_READY);
 8003856:	6aa3      	ldr	r3, [r4, #40]	@ 0x28
 8003858:	f043 0301 	orr.w	r3, r3, #1
 800385c:	62a3      	str	r3, [r4, #40]	@ 0x28
 800385e:	e7c9      	b.n	80037f4 <HAL_ADC_IRQHandler+0x7e>
      SET_BIT(hadc->State, HAL_ADC_STATE_AWD1);
 8003860:	6aa3      	ldr	r3, [r4, #40]	@ 0x28
 8003862:	f443 3380 	orr.w	r3, r3, #65536	@ 0x10000
 8003866:	62a3      	str	r3, [r4, #40]	@ 0x28
      HAL_ADC_LevelOutOfWindowCallback(hadc);
 8003868:	4620      	mov	r0, r4
 800386a:	f7ff ff83 	bl	8003774 <HAL_ADC_LevelOutOfWindowCallback>
      __HAL_ADC_CLEAR_FLAG(hadc, ADC_FLAG_AWD);
 800386e:	6823      	ldr	r3, [r4, #0]
 8003870:	f06f 0201 	mvn.w	r2, #1
 8003874:	601a      	str	r2, [r3, #0]
}
 8003876:	e7ca      	b.n	800380e <HAL_ADC_IRQHandler+0x98>

08003878 <HAL_ADC_ErrorCallback>:
}
 8003878:	4770      	bx	lr

0800387a <ADC_DMAError>:
  * @brief  DMA error callback 
  * @param  hdma: pointer to DMA handle.
  * @retval None
  */
void ADC_DMAError(DMA_HandleTypeDef *hdma)   
{
 800387a:	b508      	push	{r3, lr}
  /* Retrieve ADC handle corresponding to current DMA handle */
  ADC_HandleTypeDef* hadc = ( ADC_HandleTypeDef* )((DMA_HandleTypeDef* )hdma)->Parent;
 800387c:	6a40      	ldr	r0, [r0, #36]	@ 0x24
  
  /* Set ADC state */
  SET_BIT(hadc->State, HAL_ADC_STATE_ERROR_DMA);
 800387e:	6a83      	ldr	r3, [r0, #40]	@ 0x28
 8003880:	f043 0340 	orr.w	r3, r3, #64	@ 0x40
 8003884:	6283      	str	r3, [r0, #40]	@ 0x28
  
  /* Set ADC error code to DMA error */
  SET_BIT(hadc->ErrorCode, HAL_ADC_ERROR_DMA);
 8003886:	6ac3      	ldr	r3, [r0, #44]	@ 0x2c
 8003888:	f043 0304 	orr.w	r3, r3, #4
 800388c:	62c3      	str	r3, [r0, #44]	@ 0x2c
  
  /* Error callback */
#if (USE_HAL_ADC_REGISTER_CALLBACKS == 1)
  hadc->ErrorCallback(hadc);
#else
  HAL_ADC_ErrorCallback(hadc);
 800388e:	f7ff fff3 	bl	8003878 <HAL_ADC_ErrorCallback>
#endif /* USE_HAL_ADC_REGISTER_CALLBACKS */
}
 8003892:	bd08      	pop	{r3, pc}

08003894 <HAL_ADC_ConfigChannel>:
{ 
 8003894:	b430      	push	{r4, r5}
 8003896:	b082      	sub	sp, #8
  __IO uint32_t wait_loop_index = 0U;
 8003898:	2200      	movs	r2, #0
 800389a:	9201      	str	r2, [sp, #4]
  __HAL_LOCK(hadc);
 800389c:	f890 2024 	ldrb.w	r2, [r0, #36]	@ 0x24
 80038a0:	2a01      	cmp	r2, #1
 80038a2:	f000 8093 	beq.w	80039cc <HAL_ADC_ConfigChannel+0x138>
 80038a6:	4603      	mov	r3, r0
 80038a8:	2201      	movs	r2, #1
 80038aa:	f880 2024 	strb.w	r2, [r0, #36]	@ 0x24
  if (sConfig->Rank < 7U)
 80038ae:	684a      	ldr	r2, [r1, #4]
 80038b0:	2a06      	cmp	r2, #6
 80038b2:	d82d      	bhi.n	8003910 <HAL_ADC_ConfigChannel+0x7c>
    MODIFY_REG(hadc->Instance->SQR3                        ,
 80038b4:	6804      	ldr	r4, [r0, #0]
 80038b6:	6b60      	ldr	r0, [r4, #52]	@ 0x34
 80038b8:	eb02 0282 	add.w	r2, r2, r2, lsl #2
 80038bc:	3a05      	subs	r2, #5
 80038be:	f04f 0c1f 	mov.w	ip, #31
 80038c2:	fa0c fc02 	lsl.w	ip, ip, r2
 80038c6:	ea20 000c 	bic.w	r0, r0, ip
 80038ca:	680d      	ldr	r5, [r1, #0]
 80038cc:	fa05 f202 	lsl.w	r2, r5, r2
 80038d0:	4302      	orrs	r2, r0
 80038d2:	6362      	str	r2, [r4, #52]	@ 0x34
  if (sConfig->Channel >= ADC_CHANNEL_10)
 80038d4:	680a      	ldr	r2, [r1, #0]
 80038d6:	2a09      	cmp	r2, #9
 80038d8:	d938      	bls.n	800394c <HAL_ADC_ConfigChannel+0xb8>
    MODIFY_REG(hadc->Instance->SMPR1                             ,
 80038da:	681c      	ldr	r4, [r3, #0]
 80038dc:	68e0      	ldr	r0, [r4, #12]
 80038de:	eb02 0242 	add.w	r2, r2, r2, lsl #1
 80038e2:	3a1e      	subs	r2, #30
 80038e4:	f04f 0c07 	mov.w	ip, #7
 80038e8:	fa0c fc02 	lsl.w	ip, ip, r2
 80038ec:	ea20 000c 	bic.w	r0, r0, ip
 80038f0:	688d      	ldr	r5, [r1, #8]
 80038f2:	fa05 f202 	lsl.w	r2, r5, r2
 80038f6:	4302      	orrs	r2, r0
 80038f8:	60e2      	str	r2, [r4, #12]
  if ((sConfig->Channel == ADC_CHANNEL_TEMPSENSOR) ||
 80038fa:	680a      	ldr	r2, [r1, #0]
 80038fc:	3a10      	subs	r2, #16
 80038fe:	2a01      	cmp	r2, #1
 8003900:	d934      	bls.n	800396c <HAL_ADC_ConfigChannel+0xd8>
  HAL_StatusTypeDef tmp_hal_status = HAL_OK;
 8003902:	2000      	movs	r0, #0
  __HAL_UNLOCK(hadc);
 8003904:	2200      	movs	r2, #0
 8003906:	f883 2024 	strb.w	r2, [r3, #36]	@ 0x24
}
 800390a:	b002      	add	sp, #8
 800390c:	bc30      	pop	{r4, r5}
 800390e:	4770      	bx	lr
  else if (sConfig->Rank < 13U)
 8003910:	2a0c      	cmp	r2, #12
 8003912:	d80d      	bhi.n	8003930 <HAL_ADC_ConfigChannel+0x9c>
    MODIFY_REG(hadc->Instance->SQR2                        ,
 8003914:	6805      	ldr	r5, [r0, #0]
 8003916:	6b28      	ldr	r0, [r5, #48]	@ 0x30
 8003918:	eb02 0282 	add.w	r2, r2, r2, lsl #2
 800391c:	3a23      	subs	r2, #35	@ 0x23
 800391e:	241f      	movs	r4, #31
 8003920:	4094      	lsls	r4, r2
 8003922:	ea20 0004 	bic.w	r0, r0, r4
 8003926:	680c      	ldr	r4, [r1, #0]
 8003928:	4094      	lsls	r4, r2
 800392a:	4320      	orrs	r0, r4
 800392c:	6328      	str	r0, [r5, #48]	@ 0x30
 800392e:	e7d1      	b.n	80038d4 <HAL_ADC_ConfigChannel+0x40>
    MODIFY_REG(hadc->Instance->SQR1                        ,
 8003930:	6805      	ldr	r5, [r0, #0]
 8003932:	6ae8      	ldr	r0, [r5, #44]	@ 0x2c
 8003934:	eb02 0282 	add.w	r2, r2, r2, lsl #2
 8003938:	3a41      	subs	r2, #65	@ 0x41
 800393a:	241f      	movs	r4, #31
 800393c:	4094      	lsls	r4, r2
 800393e:	ea20 0004 	bic.w	r0, r0, r4
 8003942:	680c      	ldr	r4, [r1, #0]
 8003944:	4094      	lsls	r4, r2
 8003946:	4320      	orrs	r0, r4
 8003948:	62e8      	str	r0, [r5, #44]	@ 0x2c
 800394a:	e7c3      	b.n	80038d4 <HAL_ADC_ConfigChannel+0x40>
    MODIFY_REG(hadc->Instance->SMPR2                             ,
 800394c:	681c      	ldr	r4, [r3, #0]
 800394e:	6920      	ldr	r0, [r4, #16]
 8003950:	eb02 0242 	add.w	r2, r2, r2, lsl #1
 8003954:	f04f 0c07 	mov.w	ip, #7
 8003958:	fa0c fc02 	lsl.w	ip, ip, r2
 800395c:	ea20 000c 	bic.w	r0, r0, ip
 8003960:	688d      	ldr	r5, [r1, #8]
 8003962:	fa05 f202 	lsl.w	r2, r5, r2
 8003966:	4302      	orrs	r2, r0
 8003968:	6122      	str	r2, [r4, #16]
 800396a:	e7c6      	b.n	80038fa <HAL_ADC_ConfigChannel+0x66>
    if (hadc->Instance == ADC1)
 800396c:	6818      	ldr	r0, [r3, #0]
 800396e:	4a18      	ldr	r2, [pc, #96]	@ (80039d0 <HAL_ADC_ConfigChannel+0x13c>)
 8003970:	4290      	cmp	r0, r2
 8003972:	d005      	beq.n	8003980 <HAL_ADC_ConfigChannel+0xec>
      SET_BIT(hadc->State, HAL_ADC_STATE_ERROR_CONFIG);
 8003974:	6a9a      	ldr	r2, [r3, #40]	@ 0x28
 8003976:	f042 0220 	orr.w	r2, r2, #32
 800397a:	629a      	str	r2, [r3, #40]	@ 0x28
      tmp_hal_status = HAL_ERROR;
 800397c:	2001      	movs	r0, #1
 800397e:	e7c1      	b.n	8003904 <HAL_ADC_ConfigChannel+0x70>
      if (READ_BIT(hadc->Instance->CR2, ADC_CR2_TSVREFE) == RESET)
 8003980:	6892      	ldr	r2, [r2, #8]
 8003982:	f412 0f00 	tst.w	r2, #8388608	@ 0x800000
 8003986:	d11d      	bne.n	80039c4 <HAL_ADC_ConfigChannel+0x130>
        SET_BIT(hadc->Instance->CR2, ADC_CR2_TSVREFE);
 8003988:	4811      	ldr	r0, [pc, #68]	@ (80039d0 <HAL_ADC_ConfigChannel+0x13c>)
 800398a:	6882      	ldr	r2, [r0, #8]
 800398c:	f442 0200 	orr.w	r2, r2, #8388608	@ 0x800000
 8003990:	6082      	str	r2, [r0, #8]
        if (sConfig->Channel == ADC_CHANNEL_TEMPSENSOR)
 8003992:	680a      	ldr	r2, [r1, #0]
 8003994:	2a10      	cmp	r2, #16
 8003996:	d001      	beq.n	800399c <HAL_ADC_ConfigChannel+0x108>
  HAL_StatusTypeDef tmp_hal_status = HAL_OK;
 8003998:	2000      	movs	r0, #0
 800399a:	e7b3      	b.n	8003904 <HAL_ADC_ConfigChannel+0x70>
          wait_loop_index = (ADC_TEMPSENSOR_DELAY_US * (SystemCoreClock / 1000000U));
 800399c:	4a0d      	ldr	r2, [pc, #52]	@ (80039d4 <HAL_ADC_ConfigChannel+0x140>)
 800399e:	6812      	ldr	r2, [r2, #0]
 80039a0:	490d      	ldr	r1, [pc, #52]	@ (80039d8 <HAL_ADC_ConfigChannel+0x144>)
 80039a2:	fba1 1202 	umull	r1, r2, r1, r2
 80039a6:	0c92      	lsrs	r2, r2, #18
 80039a8:	eb02 0282 	add.w	r2, r2, r2, lsl #2
 80039ac:	0052      	lsls	r2, r2, #1
 80039ae:	9201      	str	r2, [sp, #4]
          while(wait_loop_index != 0U)
 80039b0:	9a01      	ldr	r2, [sp, #4]
 80039b2:	b14a      	cbz	r2, 80039c8 <HAL_ADC_ConfigChannel+0x134>
            wait_loop_index--;
 80039b4:	9a01      	ldr	r2, [sp, #4]
 80039b6:	3a01      	subs	r2, #1
 80039b8:	9201      	str	r2, [sp, #4]
          while(wait_loop_index != 0U)
 80039ba:	9a01      	ldr	r2, [sp, #4]
 80039bc:	2a00      	cmp	r2, #0
 80039be:	d1f9      	bne.n	80039b4 <HAL_ADC_ConfigChannel+0x120>
  HAL_StatusTypeDef tmp_hal_status = HAL_OK;
 80039c0:	2000      	movs	r0, #0
 80039c2:	e79f      	b.n	8003904 <HAL_ADC_ConfigChannel+0x70>
 80039c4:	2000      	movs	r0, #0
 80039c6:	e79d      	b.n	8003904 <HAL_ADC_ConfigChannel+0x70>
 80039c8:	2000      	movs	r0, #0
 80039ca:	e79b      	b.n	8003904 <HAL_ADC_ConfigChannel+0x70>
  __HAL_LOCK(hadc);
 80039cc:	2002      	movs	r0, #2
 80039ce:	e79c      	b.n	800390a <HAL_ADC_ConfigChannel+0x76>
 80039d0:	40012400 	.word	0x40012400
 80039d4:	200000fc 	.word	0x200000fc
 80039d8:	431bde83 	.word	0x431bde83

080039dc <ADC_Enable>:
{
 80039dc:	b530      	push	{r4, r5, lr}
 80039de:	b083      	sub	sp, #12
  __IO uint32_t wait_loop_index = 0U;
 80039e0:	2300      	movs	r3, #0
 80039e2:	9301      	str	r3, [sp, #4]
  if (ADC_IS_ENABLE(hadc) == RESET)
 80039e4:	6803      	ldr	r3, [r0, #0]
 80039e6:	689a      	ldr	r2, [r3, #8]
 80039e8:	f012 0f01 	tst.w	r2, #1
 80039ec:	d13b      	bne.n	8003a66 <ADC_Enable+0x8a>
 80039ee:	4604      	mov	r4, r0
    __HAL_ADC_ENABLE(hadc);
 80039f0:	689a      	ldr	r2, [r3, #8]
 80039f2:	f042 0201 	orr.w	r2, r2, #1
 80039f6:	609a      	str	r2, [r3, #8]
    wait_loop_index = (ADC_STAB_DELAY_US * (SystemCoreClock / 1000000U));
 80039f8:	4b1c      	ldr	r3, [pc, #112]	@ (8003a6c <ADC_Enable+0x90>)
 80039fa:	681b      	ldr	r3, [r3, #0]
 80039fc:	4a1c      	ldr	r2, [pc, #112]	@ (8003a70 <ADC_Enable+0x94>)
 80039fe:	fba2 2303 	umull	r2, r3, r2, r3
 8003a02:	0c9b      	lsrs	r3, r3, #18
 8003a04:	9301      	str	r3, [sp, #4]
    while(wait_loop_index != 0U)
 8003a06:	9b01      	ldr	r3, [sp, #4]
 8003a08:	b12b      	cbz	r3, 8003a16 <ADC_Enable+0x3a>
      wait_loop_index--;
 8003a0a:	9b01      	ldr	r3, [sp, #4]
 8003a0c:	3b01      	subs	r3, #1
 8003a0e:	9301      	str	r3, [sp, #4]
    while(wait_loop_index != 0U)
 8003a10:	9b01      	ldr	r3, [sp, #4]
 8003a12:	2b00      	cmp	r3, #0
 8003a14:	d1f9      	bne.n	8003a0a <ADC_Enable+0x2e>
    tickstart = HAL_GetTick();
 8003a16:	f7ff fe63 	bl	80036e0 <HAL_GetTick>
 8003a1a:	4605      	mov	r5, r0
    while(ADC_IS_ENABLE(hadc) == RESET)
 8003a1c:	6823      	ldr	r3, [r4, #0]
 8003a1e:	689b      	ldr	r3, [r3, #8]
 8003a20:	f013 0f01 	tst.w	r3, #1
 8003a24:	d006      	beq.n	8003a34 <ADC_Enable+0x58>
  return HAL_OK;
 8003a26:	2000      	movs	r0, #0
 8003a28:	e01e      	b.n	8003a68 <ADC_Enable+0x8c>
    while(ADC_IS_ENABLE(hadc) == RESET)
 8003a2a:	6823      	ldr	r3, [r4, #0]
 8003a2c:	689b      	ldr	r3, [r3, #8]
 8003a2e:	f013 0f01 	tst.w	r3, #1
 8003a32:	d116      	bne.n	8003a62 <ADC_Enable+0x86>
      if((HAL_GetTick() - tickstart) > ADC_ENABLE_TIMEOUT)
 8003a34:	f7ff fe54 	bl	80036e0 <HAL_GetTick>
 8003a38:	1b43      	subs	r3, r0, r5
 8003a3a:	2b02      	cmp	r3, #2
 8003a3c:	d9f5      	bls.n	8003a2a <ADC_Enable+0x4e>
        if(ADC_IS_ENABLE(hadc) == RESET)
 8003a3e:	6823      	ldr	r3, [r4, #0]
 8003a40:	689b      	ldr	r3, [r3, #8]
 8003a42:	f013 0f01 	tst.w	r3, #1
 8003a46:	d1f0      	bne.n	8003a2a <ADC_Enable+0x4e>
          SET_BIT(hadc->State, HAL_ADC_STATE_ERROR_INTERNAL);
 8003a48:	6aa3      	ldr	r3, [r4, #40]	@ 0x28
 8003a4a:	f043 0310 	orr.w	r3, r3, #16
 8003a4e:	62a3      	str	r3, [r4, #40]	@ 0x28
          SET_BIT(hadc->ErrorCode, HAL_ADC_ERROR_INTERNAL);
 8003a50:	6ae3      	ldr	r3, [r4, #44]	@ 0x2c
 8003a52:	f043 0301 	orr.w	r3, r3, #1
 8003a56:	62e3      	str	r3, [r4, #44]	@ 0x2c
          __HAL_UNLOCK(hadc);
 8003a58:	2300      	movs	r3, #0
 8003a5a:	f884 3024 	strb.w	r3, [r4, #36]	@ 0x24
          return HAL_ERROR;
 8003a5e:	2001      	movs	r0, #1
 8003a60:	e002      	b.n	8003a68 <ADC_Enable+0x8c>
  return HAL_OK;
 8003a62:	2000      	movs	r0, #0
 8003a64:	e000      	b.n	8003a68 <ADC_Enable+0x8c>
 8003a66:	2000      	movs	r0, #0
}
 8003a68:	b003      	add	sp, #12
 8003a6a:	bd30      	pop	{r4, r5, pc}
 8003a6c:	200000fc 	.word	0x200000fc
 8003a70:	431bde83 	.word	0x431bde83

08003a74 <HAL_ADC_Start>:
  __HAL_LOCK(hadc);
 8003a74:	f890 3024 	ldrb.w	r3, [r0, #36]	@ 0x24
 8003a78:	2b01      	cmp	r3, #1
 8003a7a:	d066      	beq.n	8003b4a <HAL_ADC_Start+0xd6>
{
 8003a7c:	b510      	push	{r4, lr}
 8003a7e:	4604      	mov	r4, r0
  __HAL_LOCK(hadc);
 8003a80:	2301      	movs	r3, #1
 8003a82:	f880 3024 	strb.w	r3, [r0, #36]	@ 0x24
  tmp_hal_status = ADC_Enable(hadc);
 8003a86:	f7ff ffa9 	bl	80039dc <ADC_Enable>
  if (tmp_hal_status == HAL_OK)
 8003a8a:	2800      	cmp	r0, #0
 8003a8c:	d159      	bne.n	8003b42 <HAL_ADC_Start+0xce>
    ADC_STATE_CLR_SET(hadc->State,
 8003a8e:	6aa3      	ldr	r3, [r4, #40]	@ 0x28
 8003a90:	f423 7340 	bic.w	r3, r3, #768	@ 0x300
 8003a94:	f023 0301 	bic.w	r3, r3, #1
 8003a98:	f443 7380 	orr.w	r3, r3, #256	@ 0x100
 8003a9c:	62a3      	str	r3, [r4, #40]	@ 0x28
    if (ADC_NONMULTIMODE_OR_MULTIMODEMASTER(hadc))
 8003a9e:	6823      	ldr	r3, [r4, #0]
 8003aa0:	4a2b      	ldr	r2, [pc, #172]	@ (8003b50 <HAL_ADC_Start+0xdc>)
 8003aa2:	4293      	cmp	r3, r2
 8003aa4:	d028      	beq.n	8003af8 <HAL_ADC_Start+0x84>
      CLEAR_BIT(hadc->State, HAL_ADC_STATE_MULTIMODE_SLAVE);
 8003aa6:	6aa2      	ldr	r2, [r4, #40]	@ 0x28
 8003aa8:	f422 1280 	bic.w	r2, r2, #1048576	@ 0x100000
 8003aac:	62a2      	str	r2, [r4, #40]	@ 0x28
      if (READ_BIT(hadc->Instance->CR1, ADC_CR1_JAUTO) != RESET)
 8003aae:	685a      	ldr	r2, [r3, #4]
 8003ab0:	f412 6f80 	tst.w	r2, #1024	@ 0x400
 8003ab4:	d005      	beq.n	8003ac2 <HAL_ADC_Start+0x4e>
        ADC_STATE_CLR_SET(hadc->State, HAL_ADC_STATE_INJ_EOC, HAL_ADC_STATE_INJ_BUSY);  
 8003ab6:	6aa2      	ldr	r2, [r4, #40]	@ 0x28
 8003ab8:	f422 5240 	bic.w	r2, r2, #12288	@ 0x3000
 8003abc:	f442 5280 	orr.w	r2, r2, #4096	@ 0x1000
 8003ac0:	62a2      	str	r2, [r4, #40]	@ 0x28
    if (HAL_IS_BIT_SET(hadc->State, HAL_ADC_STATE_INJ_BUSY))
 8003ac2:	6aa2      	ldr	r2, [r4, #40]	@ 0x28
 8003ac4:	f412 5f80 	tst.w	r2, #4096	@ 0x1000
      CLEAR_BIT(hadc->ErrorCode, (HAL_ADC_ERROR_OVR | HAL_ADC_ERROR_DMA));         
 8003ac8:	bf1a      	itte	ne
 8003aca:	6ae2      	ldrne	r2, [r4, #44]	@ 0x2c
 8003acc:	f022 0206 	bicne.w	r2, r2, #6
      ADC_CLEAR_ERRORCODE(hadc);
 8003ad0:	2200      	moveq	r2, #0
 8003ad2:	62e2      	str	r2, [r4, #44]	@ 0x2c
    __HAL_UNLOCK(hadc);
 8003ad4:	2200      	movs	r2, #0
 8003ad6:	f884 2024 	strb.w	r2, [r4, #36]	@ 0x24
    __HAL_ADC_CLEAR_FLAG(hadc, ADC_FLAG_EOC);
 8003ada:	f06f 0202 	mvn.w	r2, #2
 8003ade:	601a      	str	r2, [r3, #0]
    if (ADC_IS_SOFTWARE_START_REGULAR(hadc)      &&
 8003ae0:	6823      	ldr	r3, [r4, #0]
 8003ae2:	689a      	ldr	r2, [r3, #8]
 8003ae4:	f402 2260 	and.w	r2, r2, #917504	@ 0xe0000
 8003ae8:	f5b2 2f60 	cmp.w	r2, #917504	@ 0xe0000
 8003aec:	d01a      	beq.n	8003b24 <HAL_ADC_Start+0xb0>
      SET_BIT(hadc->Instance->CR2, ADC_CR2_EXTTRIG);
 8003aee:	689a      	ldr	r2, [r3, #8]
 8003af0:	f442 1280 	orr.w	r2, r2, #1048576	@ 0x100000
 8003af4:	609a      	str	r2, [r3, #8]
 8003af6:	e027      	b.n	8003b48 <HAL_ADC_Start+0xd4>
    if (ADC_NONMULTIMODE_OR_MULTIMODEMASTER(hadc))
 8003af8:	f5a2 6280 	sub.w	r2, r2, #1024	@ 0x400
 8003afc:	6852      	ldr	r2, [r2, #4]
 8003afe:	f412 2f70 	tst.w	r2, #983040	@ 0xf0000
 8003b02:	d0d0      	beq.n	8003aa6 <HAL_ADC_Start+0x32>
      SET_BIT(hadc->State, HAL_ADC_STATE_MULTIMODE_SLAVE);
 8003b04:	6aa2      	ldr	r2, [r4, #40]	@ 0x28
 8003b06:	f442 1280 	orr.w	r2, r2, #1048576	@ 0x100000
 8003b0a:	62a2      	str	r2, [r4, #40]	@ 0x28
      if (ADC_MULTIMODE_AUTO_INJECTED(hadc))
 8003b0c:	4a11      	ldr	r2, [pc, #68]	@ (8003b54 <HAL_ADC_Start+0xe0>)
 8003b0e:	6852      	ldr	r2, [r2, #4]
 8003b10:	f412 6f80 	tst.w	r2, #1024	@ 0x400
 8003b14:	d0d5      	beq.n	8003ac2 <HAL_ADC_Start+0x4e>
        ADC_STATE_CLR_SET(hadc->State, HAL_ADC_STATE_INJ_EOC, HAL_ADC_STATE_INJ_BUSY);
 8003b16:	6aa2      	ldr	r2, [r4, #40]	@ 0x28
 8003b18:	f422 5240 	bic.w	r2, r2, #12288	@ 0x3000
 8003b1c:	f442 5280 	orr.w	r2, r2, #4096	@ 0x1000
 8003b20:	62a2      	str	r2, [r4, #40]	@ 0x28
 8003b22:	e7ce      	b.n	8003ac2 <HAL_ADC_Start+0x4e>
    if (ADC_IS_SOFTWARE_START_REGULAR(hadc)      &&
 8003b24:	4a0a      	ldr	r2, [pc, #40]	@ (8003b50 <HAL_ADC_Start+0xdc>)
 8003b26:	4293      	cmp	r3, r2
 8003b28:	d004      	beq.n	8003b34 <HAL_ADC_Start+0xc0>
      SET_BIT(hadc->Instance->CR2, (ADC_CR2_SWSTART | ADC_CR2_EXTTRIG));
 8003b2a:	689a      	ldr	r2, [r3, #8]
 8003b2c:	f442 02a0 	orr.w	r2, r2, #5242880	@ 0x500000
 8003b30:	609a      	str	r2, [r3, #8]
 8003b32:	e009      	b.n	8003b48 <HAL_ADC_Start+0xd4>
        ADC_NONMULTIMODE_OR_MULTIMODEMASTER(hadc)  )
 8003b34:	f5a2 6280 	sub.w	r2, r2, #1024	@ 0x400
 8003b38:	6852      	ldr	r2, [r2, #4]
    if (ADC_IS_SOFTWARE_START_REGULAR(hadc)      &&
 8003b3a:	f412 2f70 	tst.w	r2, #983040	@ 0xf0000
 8003b3e:	d1d6      	bne.n	8003aee <HAL_ADC_Start+0x7a>
 8003b40:	e7f3      	b.n	8003b2a <HAL_ADC_Start+0xb6>
    __HAL_UNLOCK(hadc);
 8003b42:	2300      	movs	r3, #0
 8003b44:	f884 3024 	strb.w	r3, [r4, #36]	@ 0x24
}
 8003b48:	bd10      	pop	{r4, pc}
  __HAL_LOCK(hadc);
 8003b4a:	2002      	movs	r0, #2
}
 8003b4c:	4770      	bx	lr
 8003b4e:	bf00      	nop
 8003b50:	40012800 	.word	0x40012800
 8003b54:	40012400 	.word	0x40012400

08003b58 <HAL_ADC_Start_DMA>:
{
 8003b58:	b5f8      	push	{r3, r4, r5, r6, r7, lr}
 8003b5a:	4604      	mov	r4, r0
 8003b5c:	460d      	mov	r5, r1
 8003b5e:	4616      	mov	r6, r2
  if(ADC_MULTIMODE_IS_ENABLE(hadc) == RESET)
 8003b60:	6801      	ldr	r1, [r0, #0]
 8003b62:	4842      	ldr	r0, [pc, #264]	@ (8003c6c <HAL_ADC_Start_DMA+0x114>)
 8003b64:	4281      	cmp	r1, r0
 8003b66:	d05d      	beq.n	8003c24 <HAL_ADC_Start_DMA+0xcc>
 8003b68:	4b41      	ldr	r3, [pc, #260]	@ (8003c70 <HAL_ADC_Start_DMA+0x118>)
 8003b6a:	4299      	cmp	r1, r3
 8003b6c:	d05a      	beq.n	8003c24 <HAL_ADC_Start_DMA+0xcc>
    __HAL_LOCK(hadc);
 8003b6e:	f894 3024 	ldrb.w	r3, [r4, #36]	@ 0x24
 8003b72:	2b01      	cmp	r3, #1
 8003b74:	d077      	beq.n	8003c66 <HAL_ADC_Start_DMA+0x10e>
 8003b76:	2301      	movs	r3, #1
 8003b78:	f884 3024 	strb.w	r3, [r4, #36]	@ 0x24
    tmp_hal_status = ADC_Enable(hadc);
 8003b7c:	4620      	mov	r0, r4
 8003b7e:	f7ff ff2d 	bl	80039dc <ADC_Enable>
    if (tmp_hal_status == HAL_OK)
 8003b82:	4607      	mov	r7, r0
 8003b84:	2800      	cmp	r0, #0
 8003b86:	d16a      	bne.n	8003c5e <HAL_ADC_Start_DMA+0x106>
      ADC_STATE_CLR_SET(hadc->State,
 8003b88:	6aa1      	ldr	r1, [r4, #40]	@ 0x28
 8003b8a:	f421 6170 	bic.w	r1, r1, #3840	@ 0xf00
 8003b8e:	f021 0101 	bic.w	r1, r1, #1
 8003b92:	f441 7180 	orr.w	r1, r1, #256	@ 0x100
 8003b96:	62a1      	str	r1, [r4, #40]	@ 0x28
    if (ADC_NONMULTIMODE_OR_MULTIMODEMASTER(hadc))
 8003b98:	6822      	ldr	r2, [r4, #0]
 8003b9a:	4b35      	ldr	r3, [pc, #212]	@ (8003c70 <HAL_ADC_Start_DMA+0x118>)
 8003b9c:	429a      	cmp	r2, r3
 8003b9e:	d048      	beq.n	8003c32 <HAL_ADC_Start_DMA+0xda>
      CLEAR_BIT(hadc->State, HAL_ADC_STATE_MULTIMODE_SLAVE);
 8003ba0:	6aa3      	ldr	r3, [r4, #40]	@ 0x28
 8003ba2:	f423 1380 	bic.w	r3, r3, #1048576	@ 0x100000
 8003ba6:	62a3      	str	r3, [r4, #40]	@ 0x28
      if (READ_BIT(hadc->Instance->CR1, ADC_CR1_JAUTO) != RESET)
 8003ba8:	6853      	ldr	r3, [r2, #4]
 8003baa:	f413 6f80 	tst.w	r3, #1024	@ 0x400
 8003bae:	d005      	beq.n	8003bbc <HAL_ADC_Start_DMA+0x64>
        ADC_STATE_CLR_SET(hadc->State, HAL_ADC_STATE_INJ_EOC, HAL_ADC_STATE_INJ_BUSY);  
 8003bb0:	6aa3      	ldr	r3, [r4, #40]	@ 0x28
 8003bb2:	f423 5340 	bic.w	r3, r3, #12288	@ 0x3000
 8003bb6:	f443 5380 	orr.w	r3, r3, #4096	@ 0x1000
 8003bba:	62a3      	str	r3, [r4, #40]	@ 0x28
      if (HAL_IS_BIT_SET(hadc->State, HAL_ADC_STATE_INJ_BUSY))
 8003bbc:	6aa3      	ldr	r3, [r4, #40]	@ 0x28
 8003bbe:	f413 5f80 	tst.w	r3, #4096	@ 0x1000
        CLEAR_BIT(hadc->ErrorCode, (HAL_ADC_ERROR_OVR | HAL_ADC_ERROR_DMA));         
 8003bc2:	bf1a      	itte	ne
 8003bc4:	6ae3      	ldrne	r3, [r4, #44]	@ 0x2c
 8003bc6:	f023 0306 	bicne.w	r3, r3, #6
        ADC_CLEAR_ERRORCODE(hadc);
 8003bca:	2300      	moveq	r3, #0
 8003bcc:	62e3      	str	r3, [r4, #44]	@ 0x2c
      __HAL_UNLOCK(hadc);
 8003bce:	2300      	movs	r3, #0
 8003bd0:	f884 3024 	strb.w	r3, [r4, #36]	@ 0x24
      hadc->DMA_Handle->XferCpltCallback = ADC_DMAConvCplt;
 8003bd4:	6a23      	ldr	r3, [r4, #32]
 8003bd6:	4a27      	ldr	r2, [pc, #156]	@ (8003c74 <HAL_ADC_Start_DMA+0x11c>)
 8003bd8:	629a      	str	r2, [r3, #40]	@ 0x28
      hadc->DMA_Handle->XferHalfCpltCallback = ADC_DMAHalfConvCplt;
 8003bda:	6a23      	ldr	r3, [r4, #32]
 8003bdc:	4a26      	ldr	r2, [pc, #152]	@ (8003c78 <HAL_ADC_Start_DMA+0x120>)
 8003bde:	62da      	str	r2, [r3, #44]	@ 0x2c
      hadc->DMA_Handle->XferErrorCallback = ADC_DMAError;
 8003be0:	6a23      	ldr	r3, [r4, #32]
 8003be2:	4a26      	ldr	r2, [pc, #152]	@ (8003c7c <HAL_ADC_Start_DMA+0x124>)
 8003be4:	631a      	str	r2, [r3, #48]	@ 0x30
      __HAL_ADC_CLEAR_FLAG(hadc, ADC_FLAG_EOC);
 8003be6:	6823      	ldr	r3, [r4, #0]
 8003be8:	f06f 0202 	mvn.w	r2, #2
 8003bec:	601a      	str	r2, [r3, #0]
      SET_BIT(hadc->Instance->CR2, ADC_CR2_DMA);
 8003bee:	6822      	ldr	r2, [r4, #0]
 8003bf0:	6893      	ldr	r3, [r2, #8]
 8003bf2:	f443 7380 	orr.w	r3, r3, #256	@ 0x100
 8003bf6:	6093      	str	r3, [r2, #8]
      HAL_DMA_Start_IT(hadc->DMA_Handle, (uint32_t)&hadc->Instance->DR, (uint32_t)pData, Length);
 8003bf8:	6821      	ldr	r1, [r4, #0]
 8003bfa:	4633      	mov	r3, r6
 8003bfc:	462a      	mov	r2, r5
 8003bfe:	314c      	adds	r1, #76	@ 0x4c
 8003c00:	6a20      	ldr	r0, [r4, #32]
 8003c02:	f000 f995 	bl	8003f30 <HAL_DMA_Start_IT>
      if (ADC_IS_SOFTWARE_START_REGULAR(hadc))
 8003c06:	6823      	ldr	r3, [r4, #0]
 8003c08:	689a      	ldr	r2, [r3, #8]
 8003c0a:	f402 2260 	and.w	r2, r2, #917504	@ 0xe0000
 8003c0e:	f5b2 2f60 	cmp.w	r2, #917504	@ 0xe0000
        SET_BIT(hadc->Instance->CR2, (ADC_CR2_SWSTART | ADC_CR2_EXTTRIG));
 8003c12:	689a      	ldr	r2, [r3, #8]
 8003c14:	bf0c      	ite	eq
 8003c16:	f442 02a0 	orreq.w	r2, r2, #5242880	@ 0x500000
        SET_BIT(hadc->Instance->CR2, ADC_CR2_EXTTRIG);
 8003c1a:	f442 1280 	orrne.w	r2, r2, #1048576	@ 0x100000
 8003c1e:	609a      	str	r2, [r3, #8]
}
 8003c20:	4638      	mov	r0, r7
 8003c22:	bdf8      	pop	{r3, r4, r5, r6, r7, pc}
  if(ADC_MULTIMODE_IS_ENABLE(hadc) == RESET)
 8003c24:	4b11      	ldr	r3, [pc, #68]	@ (8003c6c <HAL_ADC_Start_DMA+0x114>)
 8003c26:	685b      	ldr	r3, [r3, #4]
 8003c28:	f413 2f70 	tst.w	r3, #983040	@ 0xf0000
 8003c2c:	d09f      	beq.n	8003b6e <HAL_ADC_Start_DMA+0x16>
    tmp_hal_status = HAL_ERROR;
 8003c2e:	2701      	movs	r7, #1
 8003c30:	e7f6      	b.n	8003c20 <HAL_ADC_Start_DMA+0xc8>
    if (ADC_NONMULTIMODE_OR_MULTIMODEMASTER(hadc))
 8003c32:	f5a3 6380 	sub.w	r3, r3, #1024	@ 0x400
 8003c36:	685b      	ldr	r3, [r3, #4]
 8003c38:	f413 2f70 	tst.w	r3, #983040	@ 0xf0000
 8003c3c:	d0b0      	beq.n	8003ba0 <HAL_ADC_Start_DMA+0x48>
      SET_BIT(hadc->State, HAL_ADC_STATE_MULTIMODE_SLAVE);
 8003c3e:	6aa3      	ldr	r3, [r4, #40]	@ 0x28
 8003c40:	f443 1380 	orr.w	r3, r3, #1048576	@ 0x100000
 8003c44:	62a3      	str	r3, [r4, #40]	@ 0x28
      if (ADC_MULTIMODE_AUTO_INJECTED(hadc))
 8003c46:	4b09      	ldr	r3, [pc, #36]	@ (8003c6c <HAL_ADC_Start_DMA+0x114>)
 8003c48:	685b      	ldr	r3, [r3, #4]
 8003c4a:	f413 6f80 	tst.w	r3, #1024	@ 0x400
 8003c4e:	d0b5      	beq.n	8003bbc <HAL_ADC_Start_DMA+0x64>
        ADC_STATE_CLR_SET(hadc->State, HAL_ADC_STATE_INJ_EOC, HAL_ADC_STATE_INJ_BUSY);
 8003c50:	6aa3      	ldr	r3, [r4, #40]	@ 0x28
 8003c52:	f423 5340 	bic.w	r3, r3, #12288	@ 0x3000
 8003c56:	f443 5380 	orr.w	r3, r3, #4096	@ 0x1000
 8003c5a:	62a3      	str	r3, [r4, #40]	@ 0x28
 8003c5c:	e7ae      	b.n	8003bbc <HAL_ADC_Start_DMA+0x64>
      __HAL_UNLOCK(hadc);
 8003c5e:	2300      	movs	r3, #0
 8003c60:	f884 3024 	strb.w	r3, [r4, #36]	@ 0x24
 8003c64:	e7dc      	b.n	8003c20 <HAL_ADC_Start_DMA+0xc8>
    __HAL_LOCK(hadc);
 8003c66:	2702      	movs	r7, #2
 8003c68:	e7da      	b.n	8003c20 <HAL_ADC_Start_DMA+0xc8>
 8003c6a:	bf00      	nop
 8003c6c:	40012400 	.word	0x40012400
 8003c70:	40012800 	.word	0x40012800
 8003c74:	08003717 	.word	0x08003717
 8003c78:	0800376b 	.word	0x0800376b
 8003c7c:	0800387b 	.word	0x0800387b

08003c80 <ADC_ConversionStop_Disable>:
{
 8003c80:	b538      	push	{r3, r4, r5, lr}
  if (ADC_IS_ENABLE(hadc) != RESET)
 8003c82:	6803      	ldr	r3, [r0, #0]
 8003c84:	689a      	ldr	r2, [r3, #8]
 8003c86:	f012 0f01 	tst.w	r2, #1
 8003c8a:	d101      	bne.n	8003c90 <ADC_ConversionStop_Disable+0x10>
  return HAL_OK;
 8003c8c:	2000      	movs	r0, #0
}
 8003c8e:	bd38      	pop	{r3, r4, r5, pc}
 8003c90:	4604      	mov	r4, r0
    __HAL_ADC_DISABLE(hadc);
 8003c92:	689a      	ldr	r2, [r3, #8]
 8003c94:	f022 0201 	bic.w	r2, r2, #1
 8003c98:	609a      	str	r2, [r3, #8]
    tickstart = HAL_GetTick();
 8003c9a:	f7ff fd21 	bl	80036e0 <HAL_GetTick>
 8003c9e:	4605      	mov	r5, r0
    while(ADC_IS_ENABLE(hadc) != RESET)
 8003ca0:	6823      	ldr	r3, [r4, #0]
 8003ca2:	689b      	ldr	r3, [r3, #8]
 8003ca4:	f013 0f01 	tst.w	r3, #1
 8003ca8:	d106      	bne.n	8003cb8 <ADC_ConversionStop_Disable+0x38>
  return HAL_OK;
 8003caa:	2000      	movs	r0, #0
 8003cac:	e7ef      	b.n	8003c8e <ADC_ConversionStop_Disable+0xe>
    while(ADC_IS_ENABLE(hadc) != RESET)
 8003cae:	6823      	ldr	r3, [r4, #0]
 8003cb0:	689b      	ldr	r3, [r3, #8]
 8003cb2:	f013 0f01 	tst.w	r3, #1
 8003cb6:	d013      	beq.n	8003ce0 <ADC_ConversionStop_Disable+0x60>
      if((HAL_GetTick() - tickstart) > ADC_DISABLE_TIMEOUT)
 8003cb8:	f7ff fd12 	bl	80036e0 <HAL_GetTick>
 8003cbc:	1b43      	subs	r3, r0, r5
 8003cbe:	2b02      	cmp	r3, #2
 8003cc0:	d9f5      	bls.n	8003cae <ADC_ConversionStop_Disable+0x2e>
        if(ADC_IS_ENABLE(hadc) != RESET)
 8003cc2:	6823      	ldr	r3, [r4, #0]
 8003cc4:	689b      	ldr	r3, [r3, #8]
 8003cc6:	f013 0f01 	tst.w	r3, #1
 8003cca:	d0f0      	beq.n	8003cae <ADC_ConversionStop_Disable+0x2e>
          SET_BIT(hadc->State, HAL_ADC_STATE_ERROR_INTERNAL);
 8003ccc:	6aa3      	ldr	r3, [r4, #40]	@ 0x28
 8003cce:	f043 0310 	orr.w	r3, r3, #16
 8003cd2:	62a3      	str	r3, [r4, #40]	@ 0x28
          SET_BIT(hadc->ErrorCode, HAL_ADC_ERROR_INTERNAL);
 8003cd4:	6ae3      	ldr	r3, [r4, #44]	@ 0x2c
 8003cd6:	f043 0301 	orr.w	r3, r3, #1
 8003cda:	62e3      	str	r3, [r4, #44]	@ 0x2c
          return HAL_ERROR;
 8003cdc:	2001      	movs	r0, #1
 8003cde:	e7d6      	b.n	8003c8e <ADC_ConversionStop_Disable+0xe>
  return HAL_OK;
 8003ce0:	2000      	movs	r0, #0
 8003ce2:	e7d4      	b.n	8003c8e <ADC_ConversionStop_Disable+0xe>

08003ce4 <HAL_ADC_Init>:
  if(hadc == NULL)
 8003ce4:	2800      	cmp	r0, #0
 8003ce6:	d07a      	beq.n	8003dde <HAL_ADC_Init+0xfa>
{
 8003ce8:	b570      	push	{r4, r5, r6, lr}
 8003cea:	4604      	mov	r4, r0
  if (hadc->State == HAL_ADC_STATE_RESET)
 8003cec:	6a83      	ldr	r3, [r0, #40]	@ 0x28
 8003cee:	2b00      	cmp	r3, #0
 8003cf0:	d04f      	beq.n	8003d92 <HAL_ADC_Init+0xae>
  tmp_hal_status = ADC_ConversionStop_Disable(hadc);
 8003cf2:	4620      	mov	r0, r4
 8003cf4:	f7ff ffc4 	bl	8003c80 <ADC_ConversionStop_Disable>
  if (HAL_IS_BIT_CLR(hadc->State, HAL_ADC_STATE_ERROR_INTERNAL) &&
 8003cf8:	6aa3      	ldr	r3, [r4, #40]	@ 0x28
 8003cfa:	f013 0310 	ands.w	r3, r3, #16
 8003cfe:	d168      	bne.n	8003dd2 <HAL_ADC_Init+0xee>
 8003d00:	2800      	cmp	r0, #0
 8003d02:	d166      	bne.n	8003dd2 <HAL_ADC_Init+0xee>
    ADC_STATE_CLR_SET(hadc->State,
 8003d04:	6aa2      	ldr	r2, [r4, #40]	@ 0x28
 8003d06:	f422 5288 	bic.w	r2, r2, #4352	@ 0x1100
 8003d0a:	f022 0202 	bic.w	r2, r2, #2
 8003d0e:	f042 0202 	orr.w	r2, r2, #2
 8003d12:	62a2      	str	r2, [r4, #40]	@ 0x28
                ADC_CR2_CONTINUOUS((uint32_t)hadc->Init.ContinuousConvMode)   );
 8003d14:	7b21      	ldrb	r1, [r4, #12]
    tmp_cr2 |= (hadc->Init.DataAlign                                          |
 8003d16:	6862      	ldr	r2, [r4, #4]
 8003d18:	69e5      	ldr	r5, [r4, #28]
 8003d1a:	432a      	orrs	r2, r5
                ADC_CFGR_EXTSEL(hadc, hadc->Init.ExternalTrigConv)            |
 8003d1c:	ea42 0241 	orr.w	r2, r2, r1, lsl #1
    tmp_cr1 |= (ADC_CR1_SCAN_SET(hadc->Init.ScanConvMode));
 8003d20:	68a5      	ldr	r5, [r4, #8]
 8003d22:	f5b5 7f80 	cmp.w	r5, #256	@ 0x100
 8003d26:	d004      	beq.n	8003d32 <HAL_ADC_Init+0x4e>
 8003d28:	2d01      	cmp	r5, #1
 8003d2a:	bf14      	ite	ne
 8003d2c:	2500      	movne	r5, #0
 8003d2e:	2501      	moveq	r5, #1
 8003d30:	022d      	lsls	r5, r5, #8
    if (hadc->Init.DiscontinuousConvMode == ENABLE)
 8003d32:	7d26      	ldrb	r6, [r4, #20]
 8003d34:	2e01      	cmp	r6, #1
 8003d36:	d032      	beq.n	8003d9e <HAL_ADC_Init+0xba>
      MODIFY_REG(hadc->Instance->CR1,
 8003d38:	6826      	ldr	r6, [r4, #0]
 8003d3a:	6871      	ldr	r1, [r6, #4]
 8003d3c:	f421 4169 	bic.w	r1, r1, #59648	@ 0xe900
 8003d40:	4329      	orrs	r1, r5
 8003d42:	6071      	str	r1, [r6, #4]
      MODIFY_REG(hadc->Instance->CR2,
 8003d44:	6825      	ldr	r5, [r4, #0]
 8003d46:	68ae      	ldr	r6, [r5, #8]
 8003d48:	4926      	ldr	r1, [pc, #152]	@ (8003de4 <HAL_ADC_Init+0x100>)
 8003d4a:	4031      	ands	r1, r6
 8003d4c:	4311      	orrs	r1, r2
 8003d4e:	60a9      	str	r1, [r5, #8]
    if (ADC_CR1_SCAN_SET(hadc->Init.ScanConvMode) == ADC_SCAN_ENABLE)
 8003d50:	68a1      	ldr	r1, [r4, #8]
 8003d52:	f5b1 7f80 	cmp.w	r1, #256	@ 0x100
 8003d56:	d001      	beq.n	8003d5c <HAL_ADC_Init+0x78>
 8003d58:	2901      	cmp	r1, #1
 8003d5a:	d102      	bne.n	8003d62 <HAL_ADC_Init+0x7e>
      tmp_sqr1 = ADC_SQR1_L_SHIFT(hadc->Init.NbrOfConversion);
 8003d5c:	6923      	ldr	r3, [r4, #16]
 8003d5e:	3b01      	subs	r3, #1
 8003d60:	051b      	lsls	r3, r3, #20
    MODIFY_REG(hadc->Instance->SQR1,
 8003d62:	6825      	ldr	r5, [r4, #0]
 8003d64:	6ae9      	ldr	r1, [r5, #44]	@ 0x2c
 8003d66:	f421 0170 	bic.w	r1, r1, #15728640	@ 0xf00000
 8003d6a:	430b      	orrs	r3, r1
 8003d6c:	62eb      	str	r3, [r5, #44]	@ 0x2c
    if (READ_BIT(hadc->Instance->CR2, ~(ADC_CR2_ADON | ADC_CR2_DMA |
 8003d6e:	6823      	ldr	r3, [r4, #0]
 8003d70:	6899      	ldr	r1, [r3, #8]
 8003d72:	4b1d      	ldr	r3, [pc, #116]	@ (8003de8 <HAL_ADC_Init+0x104>)
 8003d74:	400b      	ands	r3, r1
 8003d76:	429a      	cmp	r2, r3
 8003d78:	d022      	beq.n	8003dc0 <HAL_ADC_Init+0xdc>
      ADC_STATE_CLR_SET(hadc->State,
 8003d7a:	6aa3      	ldr	r3, [r4, #40]	@ 0x28
 8003d7c:	f023 0312 	bic.w	r3, r3, #18
 8003d80:	f043 0310 	orr.w	r3, r3, #16
 8003d84:	62a3      	str	r3, [r4, #40]	@ 0x28
      SET_BIT(hadc->ErrorCode, HAL_ADC_ERROR_INTERNAL);
 8003d86:	6ae3      	ldr	r3, [r4, #44]	@ 0x2c
 8003d88:	f043 0301 	orr.w	r3, r3, #1
 8003d8c:	62e3      	str	r3, [r4, #44]	@ 0x2c
      tmp_hal_status = HAL_ERROR;
 8003d8e:	2001      	movs	r0, #1
 8003d90:	e024      	b.n	8003ddc <HAL_ADC_Init+0xf8>
    ADC_CLEAR_ERRORCODE(hadc);
 8003d92:	62c3      	str	r3, [r0, #44]	@ 0x2c
    hadc->Lock = HAL_UNLOCKED;
 8003d94:	f880 3024 	strb.w	r3, [r0, #36]	@ 0x24
    HAL_ADC_MspInit(hadc);
 8003d98:	f7ff f94a 	bl	8003030 <HAL_ADC_MspInit>
 8003d9c:	e7a9      	b.n	8003cf2 <HAL_ADC_Init+0xe>
      if (hadc->Init.ContinuousConvMode == DISABLE)
 8003d9e:	b931      	cbnz	r1, 8003dae <HAL_ADC_Init+0xca>
        SET_BIT(tmp_cr1, ADC_CR1_DISCEN                                            |
 8003da0:	69a1      	ldr	r1, [r4, #24]
 8003da2:	3901      	subs	r1, #1
 8003da4:	ea45 3141 	orr.w	r1, r5, r1, lsl #13
 8003da8:	f441 6500 	orr.w	r5, r1, #2048	@ 0x800
 8003dac:	e7c4      	b.n	8003d38 <HAL_ADC_Init+0x54>
        SET_BIT(hadc->State, HAL_ADC_STATE_ERROR_CONFIG);
 8003dae:	6aa1      	ldr	r1, [r4, #40]	@ 0x28
 8003db0:	f041 0120 	orr.w	r1, r1, #32
 8003db4:	62a1      	str	r1, [r4, #40]	@ 0x28
        SET_BIT(hadc->ErrorCode, HAL_ADC_ERROR_INTERNAL);
 8003db6:	6ae1      	ldr	r1, [r4, #44]	@ 0x2c
 8003db8:	f041 0101 	orr.w	r1, r1, #1
 8003dbc:	62e1      	str	r1, [r4, #44]	@ 0x2c
 8003dbe:	e7bb      	b.n	8003d38 <HAL_ADC_Init+0x54>
      ADC_CLEAR_ERRORCODE(hadc);
 8003dc0:	2300      	movs	r3, #0
 8003dc2:	62e3      	str	r3, [r4, #44]	@ 0x2c
      ADC_STATE_CLR_SET(hadc->State,
 8003dc4:	6aa3      	ldr	r3, [r4, #40]	@ 0x28
 8003dc6:	f023 0303 	bic.w	r3, r3, #3
 8003dca:	f043 0301 	orr.w	r3, r3, #1
 8003dce:	62a3      	str	r3, [r4, #40]	@ 0x28
 8003dd0:	e004      	b.n	8003ddc <HAL_ADC_Init+0xf8>
    SET_BIT(hadc->State, HAL_ADC_STATE_ERROR_INTERNAL);
 8003dd2:	6aa3      	ldr	r3, [r4, #40]	@ 0x28
 8003dd4:	f043 0310 	orr.w	r3, r3, #16
 8003dd8:	62a3      	str	r3, [r4, #40]	@ 0x28
    tmp_hal_status = HAL_ERROR;
 8003dda:	2001      	movs	r0, #1
}
 8003ddc:	bd70      	pop	{r4, r5, r6, pc}
    return HAL_ERROR;
 8003dde:	2001      	movs	r0, #1
}
 8003de0:	4770      	bx	lr
 8003de2:	bf00      	nop
 8003de4:	ffe1f7fd 	.word	0xffe1f7fd
 8003de8:	ff1f0efe 	.word	0xff1f0efe

08003dec <HAL_ADCEx_InjectedConvCpltCallback>:
  /* Prevent unused argument(s) compilation warning */
  UNUSED(hadc);
  /* NOTE : This function Should not be modified, when the callback is needed,
            the HAL_ADCEx_InjectedConvCpltCallback could be implemented in the user file
  */
}
 8003dec:	4770      	bx	lr
	...

08003df0 <HAL_NVIC_SetPriorityGrouping>:
__STATIC_INLINE void __NVIC_SetPriorityGrouping(uint32_t PriorityGroup)
{
  uint32_t reg_value;
  uint32_t PriorityGroupTmp = (PriorityGroup & (uint32_t)0x07UL);             /* only values 0..7 are used          */

  reg_value  =  SCB->AIRCR;                                                   /* read old register configuration    */
 8003df0:	4907      	ldr	r1, [pc, #28]	@ (8003e10 <HAL_NVIC_SetPriorityGrouping+0x20>)
 8003df2:	68ca      	ldr	r2, [r1, #12]
  reg_value &= ~((uint32_t)(SCB_AIRCR_VECTKEY_Msk | SCB_AIRCR_PRIGROUP_Msk)); /* clear bits to change               */
  reg_value  =  (reg_value                                   |
                ((uint32_t)0x5FAUL << SCB_AIRCR_VECTKEY_Pos) |
                (PriorityGroupTmp << SCB_AIRCR_PRIGROUP_Pos) );               /* Insert write key and priority group */
 8003df4:	0203      	lsls	r3, r0, #8
 8003df6:	f403 63e0 	and.w	r3, r3, #1792	@ 0x700
  reg_value &= ~((uint32_t)(SCB_AIRCR_VECTKEY_Msk | SCB_AIRCR_PRIGROUP_Msk)); /* clear bits to change               */
 8003dfa:	f422 62e0 	bic.w	r2, r2, #1792	@ 0x700
 8003dfe:	0412      	lsls	r2, r2, #16
 8003e00:	0c12      	lsrs	r2, r2, #16
                ((uint32_t)0x5FAUL << SCB_AIRCR_VECTKEY_Pos) |
 8003e02:	4313      	orrs	r3, r2
  reg_value  =  (reg_value                                   |
 8003e04:	f043 63bf 	orr.w	r3, r3, #100139008	@ 0x5f80000
 8003e08:	f443 3300 	orr.w	r3, r3, #131072	@ 0x20000
  SCB->AIRCR =  reg_value;
 8003e0c:	60cb      	str	r3, [r1, #12]
  /* Check the parameters */
  assert_param(IS_NVIC_PRIORITY_GROUP(PriorityGroup));
  
  /* Set the PRIGROUP[10:8] bits according to the PriorityGroup parameter value */
  NVIC_SetPriorityGrouping(PriorityGroup);
}
 8003e0e:	4770      	bx	lr
 8003e10:	e000ed00 	.word	0xe000ed00

08003e14 <HAL_NVIC_SetPriority>:
  *         This parameter can be a value between 0 and 15
  *         A lower priority value indicates a higher priority.          
  * @retval None
  */
void HAL_NVIC_SetPriority(IRQn_Type IRQn, uint32_t PreemptPriority, uint32_t SubPriority)
{ 
 8003e14:	b500      	push	{lr}
  \details Reads the priority grouping field from the NVIC Interrupt Controller.
  \return                Priority grouping field (SCB->AIRCR [10:8] PRIGROUP field).
 */
__STATIC_INLINE uint32_t __NVIC_GetPriorityGrouping(void)
{
  return ((uint32_t)((SCB->AIRCR & SCB_AIRCR_PRIGROUP_Msk) >> SCB_AIRCR_PRIGROUP_Pos));
 8003e16:	4b18      	ldr	r3, [pc, #96]	@ (8003e78 <HAL_NVIC_SetPriority+0x64>)
 8003e18:	68db      	ldr	r3, [r3, #12]
 8003e1a:	f3c3 2302 	ubfx	r3, r3, #8, #3
{
  uint32_t PriorityGroupTmp = (PriorityGroup & (uint32_t)0x07UL);   /* only values 0..7 are used          */
  uint32_t PreemptPriorityBits;
  uint32_t SubPriorityBits;

  PreemptPriorityBits = ((7UL - PriorityGroupTmp) > (uint32_t)(__NVIC_PRIO_BITS)) ? (uint32_t)(__NVIC_PRIO_BITS) : (uint32_t)(7UL - PriorityGroupTmp);
 8003e1e:	f1c3 0c07 	rsb	ip, r3, #7
 8003e22:	f1bc 0f04 	cmp.w	ip, #4
 8003e26:	bf28      	it	cs
 8003e28:	f04f 0c04 	movcs.w	ip, #4
  SubPriorityBits     = ((PriorityGroupTmp + (uint32_t)(__NVIC_PRIO_BITS)) < (uint32_t)7UL) ? (uint32_t)0UL : (uint32_t)((PriorityGroupTmp - 7UL) + (uint32_t)(__NVIC_PRIO_BITS));
 8003e2c:	f103 0e04 	add.w	lr, r3, #4
 8003e30:	f1be 0f06 	cmp.w	lr, #6
 8003e34:	bf8c      	ite	hi
 8003e36:	3b03      	subhi	r3, #3
 8003e38:	2300      	movls	r3, #0

  return (
           ((PreemptPriority & (uint32_t)((1UL << (PreemptPriorityBits)) - 1UL)) << SubPriorityBits) |
 8003e3a:	f04f 3eff 	mov.w	lr, #4294967295
 8003e3e:	fa0e fc0c 	lsl.w	ip, lr, ip
 8003e42:	ea21 010c 	bic.w	r1, r1, ip
 8003e46:	4099      	lsls	r1, r3
           ((SubPriority     & (uint32_t)((1UL << (SubPriorityBits    )) - 1UL)))
 8003e48:	fa0e fe03 	lsl.w	lr, lr, r3
 8003e4c:	ea22 020e 	bic.w	r2, r2, lr
           ((PreemptPriority & (uint32_t)((1UL << (PreemptPriorityBits)) - 1UL)) << SubPriorityBits) |
 8003e50:	4311      	orrs	r1, r2
  if ((int32_t)(IRQn) >= 0)
 8003e52:	2800      	cmp	r0, #0
 8003e54:	db09      	blt.n	8003e6a <HAL_NVIC_SetPriority+0x56>
    NVIC->IP[((uint32_t)IRQn)]               = (uint8_t)((priority << (8U - __NVIC_PRIO_BITS)) & (uint32_t)0xFFUL);
 8003e56:	0109      	lsls	r1, r1, #4
 8003e58:	b2c9      	uxtb	r1, r1
 8003e5a:	f100 4060 	add.w	r0, r0, #3758096384	@ 0xe0000000
 8003e5e:	f500 4061 	add.w	r0, r0, #57600	@ 0xe100
 8003e62:	f880 1300 	strb.w	r1, [r0, #768]	@ 0x300
  assert_param(IS_NVIC_PREEMPTION_PRIORITY(PreemptPriority));
  
  prioritygroup = NVIC_GetPriorityGrouping();
  
  NVIC_SetPriority(IRQn, NVIC_EncodePriority(prioritygroup, PreemptPriority, SubPriority));
}
 8003e66:	f85d fb04 	ldr.w	pc, [sp], #4
    SCB->SHP[(((uint32_t)IRQn) & 0xFUL)-4UL] = (uint8_t)((priority << (8U - __NVIC_PRIO_BITS)) & (uint32_t)0xFFUL);
 8003e6a:	f000 000f 	and.w	r0, r0, #15
 8003e6e:	0109      	lsls	r1, r1, #4
 8003e70:	b2c9      	uxtb	r1, r1
 8003e72:	4b02      	ldr	r3, [pc, #8]	@ (8003e7c <HAL_NVIC_SetPriority+0x68>)
 8003e74:	5419      	strb	r1, [r3, r0]
 8003e76:	e7f6      	b.n	8003e66 <HAL_NVIC_SetPriority+0x52>
 8003e78:	e000ed00 	.word	0xe000ed00
 8003e7c:	e000ed14 	.word	0xe000ed14

08003e80 <HAL_NVIC_EnableIRQ>:
  if ((int32_t)(IRQn) >= 0)
 8003e80:	2800      	cmp	r0, #0
 8003e82:	db07      	blt.n	8003e94 <HAL_NVIC_EnableIRQ+0x14>
    NVIC->ISER[(((uint32_t)IRQn) >> 5UL)] = (uint32_t)(1UL << (((uint32_t)IRQn) & 0x1FUL));
 8003e84:	0941      	lsrs	r1, r0, #5
 8003e86:	f000 001f 	and.w	r0, r0, #31
 8003e8a:	2301      	movs	r3, #1
 8003e8c:	4083      	lsls	r3, r0
 8003e8e:	4a02      	ldr	r2, [pc, #8]	@ (8003e98 <HAL_NVIC_EnableIRQ+0x18>)
 8003e90:	f842 3021 	str.w	r3, [r2, r1, lsl #2]
  /* Check the parameters */
  assert_param(IS_NVIC_DEVICE_IRQ(IRQn));

  /* Enable interrupt */
  NVIC_EnableIRQ(IRQn);
}
 8003e94:	4770      	bx	lr
 8003e96:	bf00      	nop
 8003e98:	e000e100 	.word	0xe000e100

08003e9c <HAL_SYSTICK_Config>:
           function <b>SysTick_Config</b> is not included. In this case, the file <b><i>device</i>.h</b>
           must contain a vendor-specific implementation of this function.
 */
__STATIC_INLINE uint32_t SysTick_Config(uint32_t ticks)
{
  if ((ticks - 1UL) > SysTick_LOAD_RELOAD_Msk)
 8003e9c:	3801      	subs	r0, #1
 8003e9e:	f1b0 7f80 	cmp.w	r0, #16777216	@ 0x1000000
 8003ea2:	d20b      	bcs.n	8003ebc <HAL_SYSTICK_Config+0x20>
  {
    return (1UL);                                                   /* Reload value impossible */
  }

  SysTick->LOAD  = (uint32_t)(ticks - 1UL);                         /* set reload register */
 8003ea4:	f04f 23e0 	mov.w	r3, #3758153728	@ 0xe000e000
 8003ea8:	6158      	str	r0, [r3, #20]
    SCB->SHP[(((uint32_t)IRQn) & 0xFUL)-4UL] = (uint8_t)((priority << (8U - __NVIC_PRIO_BITS)) & (uint32_t)0xFFUL);
 8003eaa:	4a05      	ldr	r2, [pc, #20]	@ (8003ec0 <HAL_SYSTICK_Config+0x24>)
 8003eac:	21f0      	movs	r1, #240	@ 0xf0
 8003eae:	f882 1023 	strb.w	r1, [r2, #35]	@ 0x23
  NVIC_SetPriority (SysTick_IRQn, (1UL << __NVIC_PRIO_BITS) - 1UL); /* set Priority for Systick Interrupt */
  SysTick->VAL   = 0UL;                                             /* Load the SysTick Counter Value */
 8003eb2:	2000      	movs	r0, #0
 8003eb4:	6198      	str	r0, [r3, #24]
  SysTick->CTRL  = SysTick_CTRL_CLKSOURCE_Msk |
 8003eb6:	2207      	movs	r2, #7
 8003eb8:	611a      	str	r2, [r3, #16]
                   SysTick_CTRL_TICKINT_Msk   |
                   SysTick_CTRL_ENABLE_Msk;                         /* Enable SysTick IRQ and SysTick Timer */
  return (0UL);                                                     /* Function successful */
 8003eba:	4770      	bx	lr
    return (1UL);                                                   /* Reload value impossible */
 8003ebc:	2001      	movs	r0, #1
  *                  - 1  Function failed.
  */
uint32_t HAL_SYSTICK_Config(uint32_t TicksNumb)
{
   return SysTick_Config(TicksNumb);
}
 8003ebe:	4770      	bx	lr
 8003ec0:	e000ed00 	.word	0xe000ed00

08003ec4 <HAL_DMA_Init>:
HAL_StatusTypeDef HAL_DMA_Init(DMA_HandleTypeDef *hdma)
{
  uint32_t tmp = 0U;

  /* Check the DMA handle allocation */
  if(hdma == NULL)
 8003ec4:	b360      	cbz	r0, 8003f20 <HAL_DMA_Init+0x5c>
{
 8003ec6:	b410      	push	{r4}
 8003ec8:	4602      	mov	r2, r0
    hdma->ChannelIndex = (((uint32_t)hdma->Instance - (uint32_t)DMA2_Channel1) / ((uint32_t)DMA2_Channel2 - (uint32_t)DMA2_Channel1)) << 2;
    hdma->DmaBaseAddress = DMA2;
  }
#else
  /* DMA1 */
  hdma->ChannelIndex = (((uint32_t)hdma->Instance - (uint32_t)DMA1_Channel1) / ((uint32_t)DMA1_Channel2 - (uint32_t)DMA1_Channel1)) << 2;
 8003eca:	6801      	ldr	r1, [r0, #0]
 8003ecc:	4b15      	ldr	r3, [pc, #84]	@ (8003f24 <HAL_DMA_Init+0x60>)
 8003ece:	440b      	add	r3, r1
 8003ed0:	4815      	ldr	r0, [pc, #84]	@ (8003f28 <HAL_DMA_Init+0x64>)
 8003ed2:	fba0 0303 	umull	r0, r3, r0, r3
 8003ed6:	091b      	lsrs	r3, r3, #4
 8003ed8:	009b      	lsls	r3, r3, #2
 8003eda:	6413      	str	r3, [r2, #64]	@ 0x40
  hdma->DmaBaseAddress = DMA1;
 8003edc:	4b13      	ldr	r3, [pc, #76]	@ (8003f2c <HAL_DMA_Init+0x68>)
 8003ede:	63d3      	str	r3, [r2, #60]	@ 0x3c
#endif /* DMA2 */

  /* Change DMA peripheral state */
  hdma->State = HAL_DMA_STATE_BUSY;
 8003ee0:	2302      	movs	r3, #2
 8003ee2:	f882 3021 	strb.w	r3, [r2, #33]	@ 0x21

  /* Get the CR register value */
  tmp = hdma->Instance->CCR;
 8003ee6:	6808      	ldr	r0, [r1, #0]

  /* Clear PL, MSIZE, PSIZE, MINC, PINC, CIRC and DIR bits */
  tmp &= ((uint32_t)~(DMA_CCR_PL    | DMA_CCR_MSIZE  | DMA_CCR_PSIZE  | \
 8003ee8:	f420 507f 	bic.w	r0, r0, #16320	@ 0x3fc0
 8003eec:	f020 0030 	bic.w	r0, r0, #48	@ 0x30
                      DMA_CCR_MINC  | DMA_CCR_PINC   | DMA_CCR_CIRC   | \
                      DMA_CCR_DIR));

  /* Prepare the DMA Channel configuration */
  tmp |=  hdma->Init.Direction        |
 8003ef0:	6853      	ldr	r3, [r2, #4]
 8003ef2:	6894      	ldr	r4, [r2, #8]
 8003ef4:	4323      	orrs	r3, r4
          hdma->Init.PeriphInc           | hdma->Init.MemInc           |
 8003ef6:	68d4      	ldr	r4, [r2, #12]
 8003ef8:	4323      	orrs	r3, r4
 8003efa:	6914      	ldr	r4, [r2, #16]
 8003efc:	4323      	orrs	r3, r4
          hdma->Init.PeriphDataAlignment | hdma->Init.MemDataAlignment |
 8003efe:	6954      	ldr	r4, [r2, #20]
 8003f00:	4323      	orrs	r3, r4
 8003f02:	6994      	ldr	r4, [r2, #24]
 8003f04:	4323      	orrs	r3, r4
          hdma->Init.Mode                | hdma->Init.Priority;
 8003f06:	69d4      	ldr	r4, [r2, #28]
 8003f08:	4323      	orrs	r3, r4
  tmp |=  hdma->Init.Direction        |
 8003f0a:	4303      	orrs	r3, r0

  /* Write to DMA Channel CR register */
  hdma->Instance->CCR = tmp;
 8003f0c:	600b      	str	r3, [r1, #0]

  /* Initialise the error code */
  hdma->ErrorCode = HAL_DMA_ERROR_NONE;
 8003f0e:	2000      	movs	r0, #0
 8003f10:	6390      	str	r0, [r2, #56]	@ 0x38

  /* Initialize the DMA state*/
  hdma->State = HAL_DMA_STATE_READY;
 8003f12:	2301      	movs	r3, #1
 8003f14:	f882 3021 	strb.w	r3, [r2, #33]	@ 0x21
  /* Allocate lock resource and initialize it */
  hdma->Lock = HAL_UNLOCKED;
 8003f18:	f882 0020 	strb.w	r0, [r2, #32]

  return HAL_OK;
}
 8003f1c:	bc10      	pop	{r4}
 8003f1e:	4770      	bx	lr
    return HAL_ERROR;
 8003f20:	2001      	movs	r0, #1
}
 8003f22:	4770      	bx	lr
 8003f24:	bffdfff8 	.word	0xbffdfff8
 8003f28:	cccccccd 	.word	0xcccccccd
 8003f2c:	40020000 	.word	0x40020000

08003f30 <HAL_DMA_Start_IT>:

  /* Check the parameters */
  assert_param(IS_DMA_BUFFER_SIZE(DataLength));

  /* Process locked */
  __HAL_LOCK(hdma);
 8003f30:	f890 c020 	ldrb.w	ip, [r0, #32]
 8003f34:	f1bc 0f01 	cmp.w	ip, #1
 8003f38:	d047      	beq.n	8003fca <HAL_DMA_Start_IT+0x9a>
 8003f3a:	f04f 0c01 	mov.w	ip, #1
 8003f3e:	f880 c020 	strb.w	ip, [r0, #32]
  
  if(HAL_DMA_STATE_READY == hdma->State)
 8003f42:	f890 c021 	ldrb.w	ip, [r0, #33]	@ 0x21
 8003f46:	fa5f fc8c 	uxtb.w	ip, ip
 8003f4a:	f1bc 0f01 	cmp.w	ip, #1
 8003f4e:	d004      	beq.n	8003f5a <HAL_DMA_Start_IT+0x2a>
    __HAL_DMA_ENABLE(hdma);
  }
  else
  {      
    /* Process Unlocked */
    __HAL_UNLOCK(hdma); 
 8003f50:	2300      	movs	r3, #0
 8003f52:	f880 3020 	strb.w	r3, [r0, #32]

    /* Remain BUSY */
    status = HAL_BUSY;
 8003f56:	2002      	movs	r0, #2
 8003f58:	4770      	bx	lr
{
 8003f5a:	b470      	push	{r4, r5, r6}
    hdma->State = HAL_DMA_STATE_BUSY;
 8003f5c:	2402      	movs	r4, #2
 8003f5e:	f880 4021 	strb.w	r4, [r0, #33]	@ 0x21
    hdma->ErrorCode = HAL_DMA_ERROR_NONE;
 8003f62:	2400      	movs	r4, #0
 8003f64:	6384      	str	r4, [r0, #56]	@ 0x38
    __HAL_DMA_DISABLE(hdma);
 8003f66:	6805      	ldr	r5, [r0, #0]
 8003f68:	682c      	ldr	r4, [r5, #0]
 8003f6a:	f024 0401 	bic.w	r4, r4, #1
 8003f6e:	602c      	str	r4, [r5, #0]
  * @retval HAL status
  */
static void DMA_SetConfig(DMA_HandleTypeDef *hdma, uint32_t SrcAddress, uint32_t DstAddress, uint32_t DataLength)
{
  /* Clear all flags */
  hdma->DmaBaseAddress->IFCR = (DMA_ISR_GIF1 << hdma->ChannelIndex);
 8003f70:	6bc5      	ldr	r5, [r0, #60]	@ 0x3c
 8003f72:	2401      	movs	r4, #1
 8003f74:	6c06      	ldr	r6, [r0, #64]	@ 0x40
 8003f76:	40b4      	lsls	r4, r6
 8003f78:	606c      	str	r4, [r5, #4]

  /* Configure DMA Channel data length */
  hdma->Instance->CNDTR = DataLength;
 8003f7a:	6804      	ldr	r4, [r0, #0]
 8003f7c:	6063      	str	r3, [r4, #4]

  /* Memory to Peripheral */
  if((hdma->Init.Direction) == DMA_MEMORY_TO_PERIPH)
 8003f7e:	6843      	ldr	r3, [r0, #4]
 8003f80:	2b10      	cmp	r3, #16
 8003f82:	d012      	beq.n	8003faa <HAL_DMA_Start_IT+0x7a>
  }
  /* Peripheral to Memory */
  else
  {
    /* Configure DMA Channel source address */
    hdma->Instance->CPAR = SrcAddress;
 8003f84:	6803      	ldr	r3, [r0, #0]
 8003f86:	6099      	str	r1, [r3, #8]

    /* Configure DMA Channel destination address */
    hdma->Instance->CMAR = DstAddress;
 8003f88:	6803      	ldr	r3, [r0, #0]
 8003f8a:	60da      	str	r2, [r3, #12]
    if(NULL != hdma->XferHalfCpltCallback)
 8003f8c:	6ac3      	ldr	r3, [r0, #44]	@ 0x2c
 8003f8e:	b18b      	cbz	r3, 8003fb4 <HAL_DMA_Start_IT+0x84>
      __HAL_DMA_ENABLE_IT(hdma, (DMA_IT_TC | DMA_IT_HT | DMA_IT_TE));
 8003f90:	6802      	ldr	r2, [r0, #0]
 8003f92:	6813      	ldr	r3, [r2, #0]
 8003f94:	f043 030e 	orr.w	r3, r3, #14
 8003f98:	6013      	str	r3, [r2, #0]
    __HAL_DMA_ENABLE(hdma);
 8003f9a:	6802      	ldr	r2, [r0, #0]
 8003f9c:	6813      	ldr	r3, [r2, #0]
 8003f9e:	f043 0301 	orr.w	r3, r3, #1
 8003fa2:	6013      	str	r3, [r2, #0]
  HAL_StatusTypeDef status = HAL_OK;
 8003fa4:	2000      	movs	r0, #0
}
 8003fa6:	bc70      	pop	{r4, r5, r6}
 8003fa8:	4770      	bx	lr
    hdma->Instance->CPAR = DstAddress;
 8003faa:	6803      	ldr	r3, [r0, #0]
 8003fac:	609a      	str	r2, [r3, #8]
    hdma->Instance->CMAR = SrcAddress;
 8003fae:	6803      	ldr	r3, [r0, #0]
 8003fb0:	60d9      	str	r1, [r3, #12]
 8003fb2:	e7eb      	b.n	8003f8c <HAL_DMA_Start_IT+0x5c>
      __HAL_DMA_DISABLE_IT(hdma, DMA_IT_HT);
 8003fb4:	6802      	ldr	r2, [r0, #0]
 8003fb6:	6813      	ldr	r3, [r2, #0]
 8003fb8:	f023 0304 	bic.w	r3, r3, #4
 8003fbc:	6013      	str	r3, [r2, #0]
      __HAL_DMA_ENABLE_IT(hdma, (DMA_IT_TC | DMA_IT_TE));
 8003fbe:	6802      	ldr	r2, [r0, #0]
 8003fc0:	6813      	ldr	r3, [r2, #0]
 8003fc2:	f043 030a 	orr.w	r3, r3, #10
 8003fc6:	6013      	str	r3, [r2, #0]
 8003fc8:	e7e7      	b.n	8003f9a <HAL_DMA_Start_IT+0x6a>
  __HAL_LOCK(hdma);
 8003fca:	2002      	movs	r0, #2
}
 8003fcc:	4770      	bx	lr

08003fce <HAL_DMA_Abort>:
{
 8003fce:	4603      	mov	r3, r0
  if(hdma->State != HAL_DMA_STATE_BUSY)
 8003fd0:	f890 2021 	ldrb.w	r2, [r0, #33]	@ 0x21
 8003fd4:	b2d2      	uxtb	r2, r2
 8003fd6:	2a02      	cmp	r2, #2
 8003fd8:	d006      	beq.n	8003fe8 <HAL_DMA_Abort+0x1a>
    hdma->ErrorCode = HAL_DMA_ERROR_NO_XFER;
 8003fda:	2204      	movs	r2, #4
 8003fdc:	6382      	str	r2, [r0, #56]	@ 0x38
    return HAL_ERROR;
 8003fde:	2001      	movs	r0, #1
    __HAL_UNLOCK(hdma);
 8003fe0:	2200      	movs	r2, #0
 8003fe2:	f883 2020 	strb.w	r2, [r3, #32]
}
 8003fe6:	4770      	bx	lr
    __HAL_DMA_DISABLE_IT(hdma, (DMA_IT_TC | DMA_IT_HT | DMA_IT_TE));
 8003fe8:	6801      	ldr	r1, [r0, #0]
 8003fea:	680a      	ldr	r2, [r1, #0]
 8003fec:	f022 020e 	bic.w	r2, r2, #14
 8003ff0:	600a      	str	r2, [r1, #0]
    __HAL_DMA_DISABLE(hdma);
 8003ff2:	6801      	ldr	r1, [r0, #0]
 8003ff4:	680a      	ldr	r2, [r1, #0]
 8003ff6:	f022 0201 	bic.w	r2, r2, #1
 8003ffa:	600a      	str	r2, [r1, #0]
    hdma->DmaBaseAddress->IFCR = (DMA_ISR_GIF1 << hdma->ChannelIndex);
 8003ffc:	6bc0      	ldr	r0, [r0, #60]	@ 0x3c
 8003ffe:	2101      	movs	r1, #1
 8004000:	6c1a      	ldr	r2, [r3, #64]	@ 0x40
 8004002:	fa01 f202 	lsl.w	r2, r1, r2
 8004006:	6042      	str	r2, [r0, #4]
  hdma->State = HAL_DMA_STATE_READY;
 8004008:	f883 1021 	strb.w	r1, [r3, #33]	@ 0x21
  return status; 
 800400c:	2000      	movs	r0, #0
 800400e:	e7e7      	b.n	8003fe0 <HAL_DMA_Abort+0x12>

08004010 <HAL_DMA_Abort_IT>:
{  
 8004010:	b508      	push	{r3, lr}
  if(HAL_DMA_STATE_BUSY != hdma->State)
 8004012:	f890 3021 	ldrb.w	r3, [r0, #33]	@ 0x21
 8004016:	b2db      	uxtb	r3, r3
 8004018:	2b02      	cmp	r3, #2
 800401a:	d003      	beq.n	8004024 <HAL_DMA_Abort_IT+0x14>
    hdma->ErrorCode = HAL_DMA_ERROR_NO_XFER;
 800401c:	2304      	movs	r3, #4
 800401e:	6383      	str	r3, [r0, #56]	@ 0x38
    status = HAL_ERROR;
 8004020:	2001      	movs	r0, #1
}
 8004022:	bd08      	pop	{r3, pc}
    __HAL_DMA_DISABLE_IT(hdma, (DMA_IT_TC | DMA_IT_HT | DMA_IT_TE));
 8004024:	6802      	ldr	r2, [r0, #0]
 8004026:	6813      	ldr	r3, [r2, #0]
 8004028:	f023 030e 	bic.w	r3, r3, #14
 800402c:	6013      	str	r3, [r2, #0]
    __HAL_DMA_DISABLE(hdma);
 800402e:	6802      	ldr	r2, [r0, #0]
 8004030:	6813      	ldr	r3, [r2, #0]
 8004032:	f023 0301 	bic.w	r3, r3, #1
 8004036:	6013      	str	r3, [r2, #0]
    __HAL_DMA_CLEAR_FLAG(hdma, __HAL_DMA_GET_GI_FLAG_INDEX(hdma));
 8004038:	6803      	ldr	r3, [r0, #0]
 800403a:	4a19      	ldr	r2, [pc, #100]	@ (80040a0 <HAL_DMA_Abort_IT+0x90>)
 800403c:	4293      	cmp	r3, r2
 800403e:	d013      	beq.n	8004068 <HAL_DMA_Abort_IT+0x58>
 8004040:	3214      	adds	r2, #20
 8004042:	4293      	cmp	r3, r2
 8004044:	d01e      	beq.n	8004084 <HAL_DMA_Abort_IT+0x74>
 8004046:	3214      	adds	r2, #20
 8004048:	4293      	cmp	r3, r2
 800404a:	d01d      	beq.n	8004088 <HAL_DMA_Abort_IT+0x78>
 800404c:	3214      	adds	r2, #20
 800404e:	4293      	cmp	r3, r2
 8004050:	d01d      	beq.n	800408e <HAL_DMA_Abort_IT+0x7e>
 8004052:	3214      	adds	r2, #20
 8004054:	4293      	cmp	r3, r2
 8004056:	d01d      	beq.n	8004094 <HAL_DMA_Abort_IT+0x84>
 8004058:	3214      	adds	r2, #20
 800405a:	4293      	cmp	r3, r2
 800405c:	bf14      	ite	ne
 800405e:	f04f 7380 	movne.w	r3, #16777216	@ 0x1000000
 8004062:	f44f 1380 	moveq.w	r3, #1048576	@ 0x100000
 8004066:	e000      	b.n	800406a <HAL_DMA_Abort_IT+0x5a>
 8004068:	2301      	movs	r3, #1
 800406a:	4a0e      	ldr	r2, [pc, #56]	@ (80040a4 <HAL_DMA_Abort_IT+0x94>)
 800406c:	6053      	str	r3, [r2, #4]
    hdma->State = HAL_DMA_STATE_READY;
 800406e:	2301      	movs	r3, #1
 8004070:	f880 3021 	strb.w	r3, [r0, #33]	@ 0x21
    __HAL_UNLOCK(hdma);
 8004074:	2300      	movs	r3, #0
 8004076:	f880 3020 	strb.w	r3, [r0, #32]
    if(hdma->XferAbortCallback != NULL)
 800407a:	6b43      	ldr	r3, [r0, #52]	@ 0x34
 800407c:	b16b      	cbz	r3, 800409a <HAL_DMA_Abort_IT+0x8a>
      hdma->XferAbortCallback(hdma);
 800407e:	4798      	blx	r3
  HAL_StatusTypeDef status = HAL_OK;
 8004080:	2000      	movs	r0, #0
 8004082:	e7ce      	b.n	8004022 <HAL_DMA_Abort_IT+0x12>
    __HAL_DMA_CLEAR_FLAG(hdma, __HAL_DMA_GET_GI_FLAG_INDEX(hdma));
 8004084:	2310      	movs	r3, #16
 8004086:	e7f0      	b.n	800406a <HAL_DMA_Abort_IT+0x5a>
 8004088:	f44f 7380 	mov.w	r3, #256	@ 0x100
 800408c:	e7ed      	b.n	800406a <HAL_DMA_Abort_IT+0x5a>
 800408e:	f44f 5380 	mov.w	r3, #4096	@ 0x1000
 8004092:	e7ea      	b.n	800406a <HAL_DMA_Abort_IT+0x5a>
 8004094:	f44f 3380 	mov.w	r3, #65536	@ 0x10000
 8004098:	e7e7      	b.n	800406a <HAL_DMA_Abort_IT+0x5a>
  HAL_StatusTypeDef status = HAL_OK;
 800409a:	2000      	movs	r0, #0
 800409c:	e7c1      	b.n	8004022 <HAL_DMA_Abort_IT+0x12>
 800409e:	bf00      	nop
 80040a0:	40020008 	.word	0x40020008
 80040a4:	40020000 	.word	0x40020000

080040a8 <HAL_DMA_IRQHandler>:
{
 80040a8:	b538      	push	{r3, r4, r5, lr}
  uint32_t flag_it = hdma->DmaBaseAddress->ISR;
 80040aa:	6bc3      	ldr	r3, [r0, #60]	@ 0x3c
 80040ac:	681a      	ldr	r2, [r3, #0]
  uint32_t source_it = hdma->Instance->CCR;
 80040ae:	6804      	ldr	r4, [r0, #0]
 80040b0:	6825      	ldr	r5, [r4, #0]
  if (((flag_it & (DMA_FLAG_HT1 << hdma->ChannelIndex)) != RESET) && ((source_it & DMA_IT_HT) != RESET))
 80040b2:	6c01      	ldr	r1, [r0, #64]	@ 0x40
 80040b4:	2304      	movs	r3, #4
 80040b6:	408b      	lsls	r3, r1
 80040b8:	4213      	tst	r3, r2
 80040ba:	d034      	beq.n	8004126 <HAL_DMA_IRQHandler+0x7e>
 80040bc:	f015 0f04 	tst.w	r5, #4
 80040c0:	d031      	beq.n	8004126 <HAL_DMA_IRQHandler+0x7e>
    if((hdma->Instance->CCR & DMA_CCR_CIRC) == 0U)
 80040c2:	6823      	ldr	r3, [r4, #0]
 80040c4:	f013 0f20 	tst.w	r3, #32
 80040c8:	d103      	bne.n	80040d2 <HAL_DMA_IRQHandler+0x2a>
      __HAL_DMA_DISABLE_IT(hdma, DMA_IT_HT);
 80040ca:	6823      	ldr	r3, [r4, #0]
 80040cc:	f023 0304 	bic.w	r3, r3, #4
 80040d0:	6023      	str	r3, [r4, #0]
    __HAL_DMA_CLEAR_FLAG(hdma, __HAL_DMA_GET_HT_FLAG_INDEX(hdma));
 80040d2:	6803      	ldr	r3, [r0, #0]
 80040d4:	4a42      	ldr	r2, [pc, #264]	@ (80041e0 <HAL_DMA_IRQHandler+0x138>)
 80040d6:	4293      	cmp	r3, r2
 80040d8:	d013      	beq.n	8004102 <HAL_DMA_IRQHandler+0x5a>
 80040da:	3214      	adds	r2, #20
 80040dc:	4293      	cmp	r3, r2
 80040de:	d017      	beq.n	8004110 <HAL_DMA_IRQHandler+0x68>
 80040e0:	3214      	adds	r2, #20
 80040e2:	4293      	cmp	r3, r2
 80040e4:	d016      	beq.n	8004114 <HAL_DMA_IRQHandler+0x6c>
 80040e6:	3214      	adds	r2, #20
 80040e8:	4293      	cmp	r3, r2
 80040ea:	d016      	beq.n	800411a <HAL_DMA_IRQHandler+0x72>
 80040ec:	3214      	adds	r2, #20
 80040ee:	4293      	cmp	r3, r2
 80040f0:	d016      	beq.n	8004120 <HAL_DMA_IRQHandler+0x78>
 80040f2:	3214      	adds	r2, #20
 80040f4:	4293      	cmp	r3, r2
 80040f6:	bf14      	ite	ne
 80040f8:	f04f 6380 	movne.w	r3, #67108864	@ 0x4000000
 80040fc:	f44f 0380 	moveq.w	r3, #4194304	@ 0x400000
 8004100:	e000      	b.n	8004104 <HAL_DMA_IRQHandler+0x5c>
 8004102:	2304      	movs	r3, #4
 8004104:	4a37      	ldr	r2, [pc, #220]	@ (80041e4 <HAL_DMA_IRQHandler+0x13c>)
 8004106:	6053      	str	r3, [r2, #4]
    if(hdma->XferHalfCpltCallback != NULL)
 8004108:	6ac3      	ldr	r3, [r0, #44]	@ 0x2c
 800410a:	b103      	cbz	r3, 800410e <HAL_DMA_IRQHandler+0x66>
      hdma->XferHalfCpltCallback(hdma);
 800410c:	4798      	blx	r3
}
 800410e:	bd38      	pop	{r3, r4, r5, pc}
    __HAL_DMA_CLEAR_FLAG(hdma, __HAL_DMA_GET_HT_FLAG_INDEX(hdma));
 8004110:	2340      	movs	r3, #64	@ 0x40
 8004112:	e7f7      	b.n	8004104 <HAL_DMA_IRQHandler+0x5c>
 8004114:	f44f 6380 	mov.w	r3, #1024	@ 0x400
 8004118:	e7f4      	b.n	8004104 <HAL_DMA_IRQHandler+0x5c>
 800411a:	f44f 4380 	mov.w	r3, #16384	@ 0x4000
 800411e:	e7f1      	b.n	8004104 <HAL_DMA_IRQHandler+0x5c>
 8004120:	f44f 2380 	mov.w	r3, #262144	@ 0x40000
 8004124:	e7ee      	b.n	8004104 <HAL_DMA_IRQHandler+0x5c>
  else if (((flag_it & (DMA_FLAG_TC1 << hdma->ChannelIndex)) != RESET) && ((source_it & DMA_IT_TC) != RESET))
 8004126:	2302      	movs	r3, #2
 8004128:	408b      	lsls	r3, r1
 800412a:	4213      	tst	r3, r2
 800412c:	d03b      	beq.n	80041a6 <HAL_DMA_IRQHandler+0xfe>
 800412e:	f015 0f02 	tst.w	r5, #2
 8004132:	d038      	beq.n	80041a6 <HAL_DMA_IRQHandler+0xfe>
    if((hdma->Instance->CCR & DMA_CCR_CIRC) == 0U)
 8004134:	6823      	ldr	r3, [r4, #0]
 8004136:	f013 0f20 	tst.w	r3, #32
 800413a:	d106      	bne.n	800414a <HAL_DMA_IRQHandler+0xa2>
      __HAL_DMA_DISABLE_IT(hdma, DMA_IT_TE | DMA_IT_TC);  
 800413c:	6823      	ldr	r3, [r4, #0]
 800413e:	f023 030a 	bic.w	r3, r3, #10
 8004142:	6023      	str	r3, [r4, #0]
      hdma->State = HAL_DMA_STATE_READY;
 8004144:	2301      	movs	r3, #1
 8004146:	f880 3021 	strb.w	r3, [r0, #33]	@ 0x21
      __HAL_DMA_CLEAR_FLAG(hdma, __HAL_DMA_GET_TC_FLAG_INDEX(hdma));
 800414a:	6803      	ldr	r3, [r0, #0]
 800414c:	4a24      	ldr	r2, [pc, #144]	@ (80041e0 <HAL_DMA_IRQHandler+0x138>)
 800414e:	4293      	cmp	r3, r2
 8004150:	d013      	beq.n	800417a <HAL_DMA_IRQHandler+0xd2>
 8004152:	3214      	adds	r2, #20
 8004154:	4293      	cmp	r3, r2
 8004156:	d01b      	beq.n	8004190 <HAL_DMA_IRQHandler+0xe8>
 8004158:	3214      	adds	r2, #20
 800415a:	4293      	cmp	r3, r2
 800415c:	d01a      	beq.n	8004194 <HAL_DMA_IRQHandler+0xec>
 800415e:	3214      	adds	r2, #20
 8004160:	4293      	cmp	r3, r2
 8004162:	d01a      	beq.n	800419a <HAL_DMA_IRQHandler+0xf2>
 8004164:	3214      	adds	r2, #20
 8004166:	4293      	cmp	r3, r2
 8004168:	d01a      	beq.n	80041a0 <HAL_DMA_IRQHandler+0xf8>
 800416a:	3214      	adds	r2, #20
 800416c:	4293      	cmp	r3, r2
 800416e:	bf14      	ite	ne
 8004170:	f04f 7300 	movne.w	r3, #33554432	@ 0x2000000
 8004174:	f44f 1300 	moveq.w	r3, #2097152	@ 0x200000
 8004178:	e000      	b.n	800417c <HAL_DMA_IRQHandler+0xd4>
 800417a:	2302      	movs	r3, #2
 800417c:	4a19      	ldr	r2, [pc, #100]	@ (80041e4 <HAL_DMA_IRQHandler+0x13c>)
 800417e:	6053      	str	r3, [r2, #4]
    __HAL_UNLOCK(hdma);
 8004180:	2300      	movs	r3, #0
 8004182:	f880 3020 	strb.w	r3, [r0, #32]
    if(hdma->XferCpltCallback != NULL)
 8004186:	6a83      	ldr	r3, [r0, #40]	@ 0x28
 8004188:	2b00      	cmp	r3, #0
 800418a:	d0c0      	beq.n	800410e <HAL_DMA_IRQHandler+0x66>
      hdma->XferCpltCallback(hdma);
 800418c:	4798      	blx	r3
 800418e:	e7be      	b.n	800410e <HAL_DMA_IRQHandler+0x66>
      __HAL_DMA_CLEAR_FLAG(hdma, __HAL_DMA_GET_TC_FLAG_INDEX(hdma));
 8004190:	2320      	movs	r3, #32
 8004192:	e7f3      	b.n	800417c <HAL_DMA_IRQHandler+0xd4>
 8004194:	f44f 7300 	mov.w	r3, #512	@ 0x200
 8004198:	e7f0      	b.n	800417c <HAL_DMA_IRQHandler+0xd4>
 800419a:	f44f 5300 	mov.w	r3, #8192	@ 0x2000
 800419e:	e7ed      	b.n	800417c <HAL_DMA_IRQHandler+0xd4>
 80041a0:	f44f 3300 	mov.w	r3, #131072	@ 0x20000
 80041a4:	e7ea      	b.n	800417c <HAL_DMA_IRQHandler+0xd4>
  else if (( RESET != (flag_it & (DMA_FLAG_TE1 << hdma->ChannelIndex))) && (RESET != (source_it & DMA_IT_TE)))
 80041a6:	2308      	movs	r3, #8
 80041a8:	408b      	lsls	r3, r1
 80041aa:	4213      	tst	r3, r2
 80041ac:	d0af      	beq.n	800410e <HAL_DMA_IRQHandler+0x66>
 80041ae:	f015 0f08 	tst.w	r5, #8
 80041b2:	d0ac      	beq.n	800410e <HAL_DMA_IRQHandler+0x66>
    __HAL_DMA_DISABLE_IT(hdma, (DMA_IT_TC | DMA_IT_HT | DMA_IT_TE));
 80041b4:	6823      	ldr	r3, [r4, #0]
 80041b6:	f023 030e 	bic.w	r3, r3, #14
 80041ba:	6023      	str	r3, [r4, #0]
    hdma->DmaBaseAddress->IFCR = (DMA_ISR_GIF1 << hdma->ChannelIndex);
 80041bc:	6bc1      	ldr	r1, [r0, #60]	@ 0x3c
 80041be:	2301      	movs	r3, #1
 80041c0:	6c02      	ldr	r2, [r0, #64]	@ 0x40
 80041c2:	fa03 f202 	lsl.w	r2, r3, r2
 80041c6:	604a      	str	r2, [r1, #4]
    hdma->ErrorCode = HAL_DMA_ERROR_TE;
 80041c8:	6383      	str	r3, [r0, #56]	@ 0x38
    hdma->State = HAL_DMA_STATE_READY;
 80041ca:	f880 3021 	strb.w	r3, [r0, #33]	@ 0x21
    __HAL_UNLOCK(hdma);
 80041ce:	2300      	movs	r3, #0
 80041d0:	f880 3020 	strb.w	r3, [r0, #32]
    if (hdma->XferErrorCallback != NULL)
 80041d4:	6b03      	ldr	r3, [r0, #48]	@ 0x30
 80041d6:	2b00      	cmp	r3, #0
 80041d8:	d099      	beq.n	800410e <HAL_DMA_IRQHandler+0x66>
      hdma->XferErrorCallback(hdma);
 80041da:	4798      	blx	r3
  return;
 80041dc:	e797      	b.n	800410e <HAL_DMA_IRQHandler+0x66>
 80041de:	bf00      	nop
 80041e0:	40020008 	.word	0x40020008
 80041e4:	40020000 	.word	0x40020000

080041e8 <HAL_GPIO_Init>:
  * @param  GPIO_Init: pointer to a GPIO_InitTypeDef structure that contains
  *         the configuration information for the specified GPIO peripheral.
  * @retval None
  */
void HAL_GPIO_Init(GPIO_TypeDef  *GPIOx, GPIO_InitTypeDef *GPIO_Init)
{
 80041e8:	e92d 4ff0 	stmdb	sp!, {r4, r5, r6, r7, r8, r9, sl, fp, lr}
 80041ec:	b083      	sub	sp, #12
  assert_param(IS_GPIO_ALL_INSTANCE(GPIOx));
  assert_param(IS_GPIO_PIN(GPIO_Init->Pin));
  assert_param(IS_GPIO_MODE(GPIO_Init->Mode));

  /* Configure the port pins */
  while (((GPIO_Init->Pin) >> position) != 0x00u)
 80041ee:	f8d1 9000 	ldr.w	r9, [r1]
 80041f2:	f1b9 0f00 	cmp.w	r9, #0
 80041f6:	f000 8126 	beq.w	8004446 <HAL_GPIO_Init+0x25e>
 80041fa:	2200      	movs	r2, #0
  uint32_t position = 0x00u;
 80041fc:	4613      	mov	r3, r2
      /*--------------------- EXTI Mode Configuration ------------------------*/
      /* Configure the External Interrupt or event for the current IO */
      if ((GPIO_Init->Mode & EXTI_MODE) == EXTI_MODE)
      {
        /* Enable AFIO Clock */
        __HAL_RCC_AFIO_CLK_ENABLE();
 80041fe:	4d93      	ldr	r5, [pc, #588]	@ (800444c <HAL_GPIO_Init+0x264>)
      switch (GPIO_Init->Mode)
 8004200:	4c93      	ldr	r4, [pc, #588]	@ (8004450 <HAL_GPIO_Init+0x268>)
 8004202:	4e94      	ldr	r6, [pc, #592]	@ (8004454 <HAL_GPIO_Init+0x26c>)
 8004204:	f8df e250 	ldr.w	lr, [pc, #592]	@ 8004458 <HAL_GPIO_Init+0x270>
 8004208:	4694      	mov	ip, r2
 800420a:	e0be      	b.n	800438a <HAL_GPIO_Init+0x1a2>
 800420c:	45a1      	cmp	r9, r4
 800420e:	d00d      	beq.n	800422c <HAL_GPIO_Init+0x44>
 8004210:	d904      	bls.n	800421c <HAL_GPIO_Init+0x34>
 8004212:	45b1      	cmp	r9, r6
 8004214:	d00a      	beq.n	800422c <HAL_GPIO_Init+0x44>
 8004216:	45f1      	cmp	r9, lr
 8004218:	d008      	beq.n	800422c <HAL_GPIO_Init+0x44>
 800421a:	e01b      	b.n	8004254 <HAL_GPIO_Init+0x6c>
 800421c:	f8df a23c 	ldr.w	sl, [pc, #572]	@ 800445c <HAL_GPIO_Init+0x274>
 8004220:	45d1      	cmp	r9, sl
 8004222:	d003      	beq.n	800422c <HAL_GPIO_Init+0x44>
 8004224:	f50a 2a70 	add.w	sl, sl, #983040	@ 0xf0000
 8004228:	45d1      	cmp	r9, sl
 800422a:	d10f      	bne.n	800424c <HAL_GPIO_Init+0x64>
          if (GPIO_Init->Pull == GPIO_NOPULL)
 800422c:	f8d1 c008 	ldr.w	ip, [r1, #8]
 8004230:	f1bc 0f00 	cmp.w	ip, #0
 8004234:	f000 80fb 	beq.w	800442e <HAL_GPIO_Init+0x246>
          else if (GPIO_Init->Pull == GPIO_PULLUP)
 8004238:	f1bc 0f01 	cmp.w	ip, #1
            GPIOx->BSRR = ioposition;
 800423c:	bf0c      	ite	eq
 800423e:	f8c0 8010 	streq.w	r8, [r0, #16]
            GPIOx->BRR = ioposition;
 8004242:	f8c0 8014 	strne.w	r8, [r0, #20]
            config = GPIO_CR_MODE_INPUT + GPIO_CR_CNF_INPUT_PU_PD;
 8004246:	f04f 0c08 	mov.w	ip, #8
 800424a:	e003      	b.n	8004254 <HAL_GPIO_Init+0x6c>
      switch (GPIO_Init->Mode)
 800424c:	f5aa 1a80 	sub.w	sl, sl, #1048576	@ 0x100000
 8004250:	45d1      	cmp	r9, sl
 8004252:	d0eb      	beq.n	800422c <HAL_GPIO_Init+0x44>
      configregister = (iocurrent < GPIO_PIN_8) ? &GPIOx->CRL     : &GPIOx->CRH;
 8004254:	2fff      	cmp	r7, #255	@ 0xff
 8004256:	bf99      	ittee	ls
 8004258:	4681      	movls	r9, r0
      registeroffset = (iocurrent < GPIO_PIN_8) ? (position << 2u) : ((position - 8u) << 2u);
 800425a:	4692      	movls	sl, r2
      configregister = (iocurrent < GPIO_PIN_8) ? &GPIOx->CRL     : &GPIOx->CRH;
 800425c:	f100 0904 	addhi.w	r9, r0, #4
      registeroffset = (iocurrent < GPIO_PIN_8) ? (position << 2u) : ((position - 8u) << 2u);
 8004260:	f1a2 0a20 	subhi.w	sl, r2, #32
      MODIFY_REG((*configregister), ((GPIO_CRL_MODE0 | GPIO_CRL_CNF0) << registeroffset), (config << registeroffset));
 8004264:	f8d9 8000 	ldr.w	r8, [r9]
 8004268:	f04f 0b0f 	mov.w	fp, #15
 800426c:	fa0b fb0a 	lsl.w	fp, fp, sl
 8004270:	ea28 080b 	bic.w	r8, r8, fp
 8004274:	fa0c fa0a 	lsl.w	sl, ip, sl
 8004278:	ea48 080a 	orr.w	r8, r8, sl
 800427c:	f8c9 8000 	str.w	r8, [r9]
      if ((GPIO_Init->Mode & EXTI_MODE) == EXTI_MODE)
 8004280:	f8d1 8004 	ldr.w	r8, [r1, #4]
 8004284:	f018 5f80 	tst.w	r8, #268435456	@ 0x10000000
 8004288:	d078      	beq.n	800437c <HAL_GPIO_Init+0x194>
        __HAL_RCC_AFIO_CLK_ENABLE();
 800428a:	f8d5 8018 	ldr.w	r8, [r5, #24]
 800428e:	f048 0801 	orr.w	r8, r8, #1
 8004292:	f8c5 8018 	str.w	r8, [r5, #24]
 8004296:	f8d5 8018 	ldr.w	r8, [r5, #24]
 800429a:	f008 0801 	and.w	r8, r8, #1
 800429e:	f8cd 8004 	str.w	r8, [sp, #4]
 80042a2:	f8dd 8004 	ldr.w	r8, [sp, #4]
        temp = AFIO->EXTICR[position >> 2u];
 80042a6:	f023 0803 	bic.w	r8, r3, #3
 80042aa:	f108 4880 	add.w	r8, r8, #1073741824	@ 0x40000000
 80042ae:	f508 3880 	add.w	r8, r8, #65536	@ 0x10000
 80042b2:	f8d8 a008 	ldr.w	sl, [r8, #8]
        CLEAR_BIT(temp, (0x0Fu) << (4u * (position & 0x03u)));
 80042b6:	f003 0b03 	and.w	fp, r3, #3
 80042ba:	ea4f 0b8b 	mov.w	fp, fp, lsl #2
 80042be:	f04f 090f 	mov.w	r9, #15
 80042c2:	fa09 f90b 	lsl.w	r9, r9, fp
 80042c6:	ea2a 0a09 	bic.w	sl, sl, r9
        SET_BIT(temp, (GPIO_GET_INDEX(GPIOx)) << (4u * (position & 0x03u)));
 80042ca:	f8df 9194 	ldr.w	r9, [pc, #404]	@ 8004460 <HAL_GPIO_Init+0x278>
 80042ce:	4548      	cmp	r0, r9
 80042d0:	f000 80b0 	beq.w	8004434 <HAL_GPIO_Init+0x24c>
 80042d4:	f509 6980 	add.w	r9, r9, #1024	@ 0x400
 80042d8:	4548      	cmp	r0, r9
 80042da:	f000 80ae 	beq.w	800443a <HAL_GPIO_Init+0x252>
 80042de:	f509 6980 	add.w	r9, r9, #1024	@ 0x400
 80042e2:	4548      	cmp	r0, r9
 80042e4:	f000 80ac 	beq.w	8004440 <HAL_GPIO_Init+0x258>
 80042e8:	f509 6980 	add.w	r9, r9, #1024	@ 0x400
 80042ec:	4548      	cmp	r0, r9
 80042ee:	bf14      	ite	ne
 80042f0:	f04f 0904 	movne.w	r9, #4
 80042f4:	f04f 0903 	moveq.w	r9, #3
 80042f8:	fa09 f90b 	lsl.w	r9, r9, fp
 80042fc:	ea49 090a 	orr.w	r9, r9, sl
        AFIO->EXTICR[position >> 2u] = temp;
 8004300:	f8c8 9008 	str.w	r9, [r8, #8]


        /* Enable or disable the rising trigger */
        if ((GPIO_Init->Mode & RISING_EDGE) == RISING_EDGE)
 8004304:	f8d1 8004 	ldr.w	r8, [r1, #4]
 8004308:	f418 1f80 	tst.w	r8, #1048576	@ 0x100000
        {
          SET_BIT(EXTI->RTSR, iocurrent);
 800430c:	f8df 9154 	ldr.w	r9, [pc, #340]	@ 8004464 <HAL_GPIO_Init+0x27c>
 8004310:	f8d9 8008 	ldr.w	r8, [r9, #8]
 8004314:	bf14      	ite	ne
 8004316:	ea48 0807 	orrne.w	r8, r8, r7
        }
        else
        {
          CLEAR_BIT(EXTI->RTSR, iocurrent);
 800431a:	ea28 0807 	biceq.w	r8, r8, r7
 800431e:	f8c9 8008 	str.w	r8, [r9, #8]
        }

        /* Enable or disable the falling trigger */
        if ((GPIO_Init->Mode & FALLING_EDGE) == FALLING_EDGE)
 8004322:	f8d1 8004 	ldr.w	r8, [r1, #4]
 8004326:	f418 1f00 	tst.w	r8, #2097152	@ 0x200000
        {
          SET_BIT(EXTI->FTSR, iocurrent);
 800432a:	f8df 9138 	ldr.w	r9, [pc, #312]	@ 8004464 <HAL_GPIO_Init+0x27c>
 800432e:	f8d9 800c 	ldr.w	r8, [r9, #12]
 8004332:	bf14      	ite	ne
 8004334:	ea48 0807 	orrne.w	r8, r8, r7
        }
        else
        {
          CLEAR_BIT(EXTI->FTSR, iocurrent);
 8004338:	ea28 0807 	biceq.w	r8, r8, r7
 800433c:	f8c9 800c 	str.w	r8, [r9, #12]
        }

        /* Configure the event mask */
        if ((GPIO_Init->Mode & GPIO_MODE_EVT) == GPIO_MODE_EVT)
 8004340:	f8d1 8004 	ldr.w	r8, [r1, #4]
 8004344:	f418 3f00 	tst.w	r8, #131072	@ 0x20000
        {
          SET_BIT(EXTI->EMR, iocurrent);
 8004348:	f8df 9118 	ldr.w	r9, [pc, #280]	@ 8004464 <HAL_GPIO_Init+0x27c>
 800434c:	f8d9 8004 	ldr.w	r8, [r9, #4]
 8004350:	bf14      	ite	ne
 8004352:	ea48 0807 	orrne.w	r8, r8, r7
        }
        else
        {
          CLEAR_BIT(EXTI->EMR, iocurrent);
 8004356:	ea28 0807 	biceq.w	r8, r8, r7
 800435a:	f8c9 8004 	str.w	r8, [r9, #4]
        }

        /* Configure the interrupt mask */
        if ((GPIO_Init->Mode & GPIO_MODE_IT) == GPIO_MODE_IT)
 800435e:	f8d1 8004 	ldr.w	r8, [r1, #4]
 8004362:	f418 3f80 	tst.w	r8, #65536	@ 0x10000
        {
          SET_BIT(EXTI->IMR, iocurrent);
 8004366:	f8df 90fc 	ldr.w	r9, [pc, #252]	@ 8004464 <HAL_GPIO_Init+0x27c>
 800436a:	f8d9 8000 	ldr.w	r8, [r9]
 800436e:	bf14      	ite	ne
 8004370:	ea48 0707 	orrne.w	r7, r8, r7
        }
        else
        {
          CLEAR_BIT(EXTI->IMR, iocurrent);
 8004374:	ea28 0707 	biceq.w	r7, r8, r7
 8004378:	f8c9 7000 	str.w	r7, [r9]
        }
      }
    }

	position++;
 800437c:	3301      	adds	r3, #1
  while (((GPIO_Init->Pin) >> position) != 0x00u)
 800437e:	f8d1 9000 	ldr.w	r9, [r1]
 8004382:	3204      	adds	r2, #4
 8004384:	fa39 f703 	lsrs.w	r7, r9, r3
 8004388:	d05d      	beq.n	8004446 <HAL_GPIO_Init+0x25e>
    ioposition = (0x01uL << position);
 800438a:	f04f 0801 	mov.w	r8, #1
 800438e:	fa08 f803 	lsl.w	r8, r8, r3
    iocurrent = (uint32_t)(GPIO_Init->Pin) & ioposition;
 8004392:	ea08 0709 	and.w	r7, r8, r9
    if (iocurrent == ioposition)
 8004396:	ea38 0909 	bics.w	r9, r8, r9
 800439a:	d1ef      	bne.n	800437c <HAL_GPIO_Init+0x194>
      switch (GPIO_Init->Mode)
 800439c:	f8d1 9004 	ldr.w	r9, [r1, #4]
 80043a0:	f1b9 0f12 	cmp.w	r9, #18
 80043a4:	f63f af32 	bhi.w	800420c <HAL_GPIO_Init+0x24>
 80043a8:	f1b9 0f12 	cmp.w	r9, #18
 80043ac:	f63f af52 	bhi.w	8004254 <HAL_GPIO_Init+0x6c>
 80043b0:	f20f 0a04 	addw	sl, pc, #4
 80043b4:	f85a f029 	ldr.w	pc, [sl, r9, lsl #2]
 80043b8:	0800422d 	.word	0x0800422d
 80043bc:	08004405 	.word	0x08004405
 80043c0:	08004415 	.word	0x08004415
 80043c4:	08004429 	.word	0x08004429
 80043c8:	08004255 	.word	0x08004255
 80043cc:	08004255 	.word	0x08004255
 80043d0:	08004255 	.word	0x08004255
 80043d4:	08004255 	.word	0x08004255
 80043d8:	08004255 	.word	0x08004255
 80043dc:	08004255 	.word	0x08004255
 80043e0:	08004255 	.word	0x08004255
 80043e4:	08004255 	.word	0x08004255
 80043e8:	08004255 	.word	0x08004255
 80043ec:	08004255 	.word	0x08004255
 80043f0:	08004255 	.word	0x08004255
 80043f4:	08004255 	.word	0x08004255
 80043f8:	08004255 	.word	0x08004255
 80043fc:	0800440b 	.word	0x0800440b
 8004400:	0800441f 	.word	0x0800441f
          config = GPIO_Init->Speed + GPIO_CR_CNF_GP_OUTPUT_PP;
 8004404:	f8d1 c00c 	ldr.w	ip, [r1, #12]
          break;
 8004408:	e724      	b.n	8004254 <HAL_GPIO_Init+0x6c>
          config = GPIO_Init->Speed + GPIO_CR_CNF_GP_OUTPUT_OD;
 800440a:	f8d1 c00c 	ldr.w	ip, [r1, #12]
 800440e:	f10c 0c04 	add.w	ip, ip, #4
          break;
 8004412:	e71f      	b.n	8004254 <HAL_GPIO_Init+0x6c>
          config = GPIO_Init->Speed + GPIO_CR_CNF_AF_OUTPUT_PP;
 8004414:	f8d1 c00c 	ldr.w	ip, [r1, #12]
 8004418:	f10c 0c08 	add.w	ip, ip, #8
          break;
 800441c:	e71a      	b.n	8004254 <HAL_GPIO_Init+0x6c>
          config = GPIO_Init->Speed + GPIO_CR_CNF_AF_OUTPUT_OD;
 800441e:	f8d1 c00c 	ldr.w	ip, [r1, #12]
 8004422:	f10c 0c0c 	add.w	ip, ip, #12
          break;
 8004426:	e715      	b.n	8004254 <HAL_GPIO_Init+0x6c>
      switch (GPIO_Init->Mode)
 8004428:	f04f 0c00 	mov.w	ip, #0
 800442c:	e712      	b.n	8004254 <HAL_GPIO_Init+0x6c>
            config = GPIO_CR_MODE_INPUT + GPIO_CR_CNF_INPUT_FLOATING;
 800442e:	f04f 0c04 	mov.w	ip, #4
 8004432:	e70f      	b.n	8004254 <HAL_GPIO_Init+0x6c>
        SET_BIT(temp, (GPIO_GET_INDEX(GPIOx)) << (4u * (position & 0x03u)));
 8004434:	f04f 0900 	mov.w	r9, #0
 8004438:	e75e      	b.n	80042f8 <HAL_GPIO_Init+0x110>
 800443a:	f04f 0901 	mov.w	r9, #1
 800443e:	e75b      	b.n	80042f8 <HAL_GPIO_Init+0x110>
 8004440:	f04f 0902 	mov.w	r9, #2
 8004444:	e758      	b.n	80042f8 <HAL_GPIO_Init+0x110>
  }
}
 8004446:	b003      	add	sp, #12
 8004448:	e8bd 8ff0 	ldmia.w	sp!, {r4, r5, r6, r7, r8, r9, sl, fp, pc}
 800444c:	40021000 	.word	0x40021000
 8004450:	10220000 	.word	0x10220000
 8004454:	10310000 	.word	0x10310000
 8004458:	10320000 	.word	0x10320000
 800445c:	10120000 	.word	0x10120000
 8004460:	40010800 	.word	0x40010800
 8004464:	40010400 	.word	0x40010400

08004468 <HAL_GPIO_ReadPin>:
  GPIO_PinState bitstatus;

  /* Check the parameters */
  assert_param(IS_GPIO_PIN(GPIO_Pin));

  if ((GPIOx->IDR & GPIO_Pin) != (uint32_t)GPIO_PIN_RESET)
 8004468:	6883      	ldr	r3, [r0, #8]
 800446a:	4219      	tst	r1, r3
  else
  {
    bitstatus = GPIO_PIN_RESET;
  }
  return bitstatus;
}
 800446c:	bf14      	ite	ne
 800446e:	2001      	movne	r0, #1
 8004470:	2000      	moveq	r0, #0
 8004472:	4770      	bx	lr

08004474 <HAL_GPIO_WritePin>:
{
  /* Check the parameters */
  assert_param(IS_GPIO_PIN(GPIO_Pin));
  assert_param(IS_GPIO_PIN_ACTION(PinState));

  if (PinState != GPIO_PIN_RESET)
 8004474:	b10a      	cbz	r2, 800447a <HAL_GPIO_WritePin+0x6>
  {
    GPIOx->BSRR = GPIO_Pin;
 8004476:	6101      	str	r1, [r0, #16]
 8004478:	4770      	bx	lr
  }
  else
  {
    GPIOx->BSRR = (uint32_t)GPIO_Pin << 16u;
 800447a:	0409      	lsls	r1, r1, #16
 800447c:	6101      	str	r1, [r0, #16]
  }
}
 800447e:	4770      	bx	lr

08004480 <HAL_GPIO_EXTI_Callback>:
  /* Prevent unused argument(s) compilation warning */
  UNUSED(GPIO_Pin);
  /* NOTE: This function Should not be modified, when the callback is needed,
           the HAL_GPIO_EXTI_Callback could be implemented in the user file
   */
}
 8004480:	4770      	bx	lr
	...

08004484 <HAL_GPIO_EXTI_IRQHandler>:
{
 8004484:	b508      	push	{r3, lr}
  if (__HAL_GPIO_EXTI_GET_IT(GPIO_Pin) != 0x00u)
 8004486:	4b05      	ldr	r3, [pc, #20]	@ (800449c <HAL_GPIO_EXTI_IRQHandler+0x18>)
 8004488:	695b      	ldr	r3, [r3, #20]
 800448a:	4203      	tst	r3, r0
 800448c:	d100      	bne.n	8004490 <HAL_GPIO_EXTI_IRQHandler+0xc>
}
 800448e:	bd08      	pop	{r3, pc}
    __HAL_GPIO_EXTI_CLEAR_IT(GPIO_Pin);
 8004490:	4b02      	ldr	r3, [pc, #8]	@ (800449c <HAL_GPIO_EXTI_IRQHandler+0x18>)
 8004492:	6158      	str	r0, [r3, #20]
    HAL_GPIO_EXTI_Callback(GPIO_Pin);
 8004494:	f7ff fff4 	bl	8004480 <HAL_GPIO_EXTI_Callback>
}
 8004498:	e7f9      	b.n	800448e <HAL_GPIO_EXTI_IRQHandler+0xa>
 800449a:	bf00      	nop
 800449c:	40010400 	.word	0x40010400

080044a0 <I2C_IsAcknowledgeFailed>:
  *                the configuration information for the specified I2C.
  * @retval HAL status
  */
static HAL_StatusTypeDef I2C_IsAcknowledgeFailed(I2C_HandleTypeDef *hi2c)
{
  if (__HAL_I2C_GET_FLAG(hi2c, I2C_FLAG_AF) == SET)
 80044a0:	6803      	ldr	r3, [r0, #0]
 80044a2:	695a      	ldr	r2, [r3, #20]
 80044a4:	f412 6f80 	tst.w	r2, #1024	@ 0x400
 80044a8:	d101      	bne.n	80044ae <I2C_IsAcknowledgeFailed+0xe>
    /* Process Unlocked */
    __HAL_UNLOCK(hi2c);

    return HAL_ERROR;
  }
  return HAL_OK;
 80044aa:	2000      	movs	r0, #0
}
 80044ac:	4770      	bx	lr
    __HAL_I2C_CLEAR_FLAG(hi2c, I2C_FLAG_AF);
 80044ae:	f46f 6280 	mvn.w	r2, #1024	@ 0x400
 80044b2:	615a      	str	r2, [r3, #20]
    hi2c->PreviousState       = I2C_STATE_NONE;
 80044b4:	2300      	movs	r3, #0
 80044b6:	6303      	str	r3, [r0, #48]	@ 0x30
    hi2c->State               = HAL_I2C_STATE_READY;
 80044b8:	2220      	movs	r2, #32
 80044ba:	f880 203d 	strb.w	r2, [r0, #61]	@ 0x3d
    hi2c->Mode                = HAL_I2C_MODE_NONE;
 80044be:	f880 303e 	strb.w	r3, [r0, #62]	@ 0x3e
    hi2c->ErrorCode           |= HAL_I2C_ERROR_AF;
 80044c2:	6c02      	ldr	r2, [r0, #64]	@ 0x40
 80044c4:	f042 0204 	orr.w	r2, r2, #4
 80044c8:	6402      	str	r2, [r0, #64]	@ 0x40
    __HAL_UNLOCK(hi2c);
 80044ca:	f880 303c 	strb.w	r3, [r0, #60]	@ 0x3c
    return HAL_ERROR;
 80044ce:	2001      	movs	r0, #1
 80044d0:	4770      	bx	lr

080044d2 <I2C_WaitOnFlagUntilTimeout>:
{
 80044d2:	e92d 41f0 	stmdb	sp!, {r4, r5, r6, r7, r8, lr}
 80044d6:	4605      	mov	r5, r0
 80044d8:	460c      	mov	r4, r1
 80044da:	4616      	mov	r6, r2
 80044dc:	461f      	mov	r7, r3
  while (__HAL_I2C_GET_FLAG(hi2c, Flag) == Status)
 80044de:	f3c1 4807 	ubfx	r8, r1, #16, #8
 80044e2:	f1b8 0f01 	cmp.w	r8, #1
 80044e6:	682b      	ldr	r3, [r5, #0]
 80044e8:	bf0c      	ite	eq
 80044ea:	695b      	ldreq	r3, [r3, #20]
 80044ec:	699b      	ldrne	r3, [r3, #24]
 80044ee:	ea24 0c03 	bic.w	ip, r4, r3
 80044f2:	fa1f fc8c 	uxth.w	ip, ip
 80044f6:	fabc fc8c 	clz	ip, ip
 80044fa:	ea4f 1c5c 	mov.w	ip, ip, lsr #5
 80044fe:	4566      	cmp	r6, ip
 8004500:	d127      	bne.n	8004552 <I2C_WaitOnFlagUntilTimeout+0x80>
    if (Timeout != HAL_MAX_DELAY)
 8004502:	f1b7 3fff 	cmp.w	r7, #4294967295
 8004506:	d0ec      	beq.n	80044e2 <I2C_WaitOnFlagUntilTimeout+0x10>
      if (((HAL_GetTick() - Tickstart) > Timeout) || (Timeout == 0U))
 8004508:	f7ff f8ea 	bl	80036e0 <HAL_GetTick>
 800450c:	9b06      	ldr	r3, [sp, #24]
 800450e:	1ac0      	subs	r0, r0, r3
 8004510:	42b8      	cmp	r0, r7
 8004512:	d801      	bhi.n	8004518 <I2C_WaitOnFlagUntilTimeout+0x46>
 8004514:	2f00      	cmp	r7, #0
 8004516:	d1e4      	bne.n	80044e2 <I2C_WaitOnFlagUntilTimeout+0x10>
        if ((__HAL_I2C_GET_FLAG(hi2c, Flag) == Status))
 8004518:	f1b8 0f01 	cmp.w	r8, #1
 800451c:	682b      	ldr	r3, [r5, #0]
 800451e:	bf0c      	ite	eq
 8004520:	695b      	ldreq	r3, [r3, #20]
 8004522:	699b      	ldrne	r3, [r3, #24]
 8004524:	ea24 0303 	bic.w	r3, r4, r3
 8004528:	b29b      	uxth	r3, r3
 800452a:	fab3 f383 	clz	r3, r3
 800452e:	095b      	lsrs	r3, r3, #5
 8004530:	429e      	cmp	r6, r3
 8004532:	d1d6      	bne.n	80044e2 <I2C_WaitOnFlagUntilTimeout+0x10>
          hi2c->PreviousState     = I2C_STATE_NONE;
 8004534:	2300      	movs	r3, #0
 8004536:	632b      	str	r3, [r5, #48]	@ 0x30
          hi2c->State             = HAL_I2C_STATE_READY;
 8004538:	2220      	movs	r2, #32
 800453a:	f885 203d 	strb.w	r2, [r5, #61]	@ 0x3d
          hi2c->Mode              = HAL_I2C_MODE_NONE;
 800453e:	f885 303e 	strb.w	r3, [r5, #62]	@ 0x3e
          hi2c->ErrorCode         |= HAL_I2C_ERROR_TIMEOUT;
 8004542:	6c2a      	ldr	r2, [r5, #64]	@ 0x40
 8004544:	f042 0220 	orr.w	r2, r2, #32
 8004548:	642a      	str	r2, [r5, #64]	@ 0x40
          __HAL_UNLOCK(hi2c);
 800454a:	f885 303c 	strb.w	r3, [r5, #60]	@ 0x3c
          return HAL_ERROR;
 800454e:	2001      	movs	r0, #1
 8004550:	e000      	b.n	8004554 <I2C_WaitOnFlagUntilTimeout+0x82>
  return HAL_OK;
 8004552:	2000      	movs	r0, #0
}
 8004554:	e8bd 81f0 	ldmia.w	sp!, {r4, r5, r6, r7, r8, pc}

08004558 <I2C_WaitOnMasterAddressFlagUntilTimeout>:
{
 8004558:	e92d 43f8 	stmdb	sp!, {r3, r4, r5, r6, r7, r8, r9, lr}
 800455c:	4605      	mov	r5, r0
 800455e:	460e      	mov	r6, r1
 8004560:	4617      	mov	r7, r2
 8004562:	4699      	mov	r9, r3
  while (__HAL_I2C_GET_FLAG(hi2c, Flag) == RESET)
 8004564:	f3c1 4807 	ubfx	r8, r1, #16, #8
 8004568:	f1b8 0f01 	cmp.w	r8, #1
 800456c:	682b      	ldr	r3, [r5, #0]
 800456e:	bf0c      	ite	eq
 8004570:	695c      	ldreq	r4, [r3, #20]
 8004572:	699c      	ldrne	r4, [r3, #24]
 8004574:	ea26 0404 	bic.w	r4, r6, r4
 8004578:	b2a4      	uxth	r4, r4
 800457a:	3c00      	subs	r4, #0
 800457c:	bf18      	it	ne
 800457e:	2401      	movne	r4, #1
 8004580:	2c00      	cmp	r4, #0
 8004582:	d044      	beq.n	800460e <I2C_WaitOnMasterAddressFlagUntilTimeout+0xb6>
    if (__HAL_I2C_GET_FLAG(hi2c, I2C_FLAG_AF) == SET)
 8004584:	682b      	ldr	r3, [r5, #0]
 8004586:	695a      	ldr	r2, [r3, #20]
 8004588:	f412 6f80 	tst.w	r2, #1024	@ 0x400
 800458c:	d127      	bne.n	80045de <I2C_WaitOnMasterAddressFlagUntilTimeout+0x86>
    if (Timeout != HAL_MAX_DELAY)
 800458e:	f1b7 3fff 	cmp.w	r7, #4294967295
 8004592:	d0e9      	beq.n	8004568 <I2C_WaitOnMasterAddressFlagUntilTimeout+0x10>
      if (((HAL_GetTick() - Tickstart) > Timeout) || (Timeout == 0U))
 8004594:	f7ff f8a4 	bl	80036e0 <HAL_GetTick>
 8004598:	eba0 0009 	sub.w	r0, r0, r9
 800459c:	42b8      	cmp	r0, r7
 800459e:	d801      	bhi.n	80045a4 <I2C_WaitOnMasterAddressFlagUntilTimeout+0x4c>
 80045a0:	2f00      	cmp	r7, #0
 80045a2:	d1e1      	bne.n	8004568 <I2C_WaitOnMasterAddressFlagUntilTimeout+0x10>
        if ((__HAL_I2C_GET_FLAG(hi2c, Flag) == RESET))
 80045a4:	f1b8 0f01 	cmp.w	r8, #1
 80045a8:	682b      	ldr	r3, [r5, #0]
 80045aa:	bf0c      	ite	eq
 80045ac:	695b      	ldreq	r3, [r3, #20]
 80045ae:	699b      	ldrne	r3, [r3, #24]
 80045b0:	ea26 0303 	bic.w	r3, r6, r3
 80045b4:	b29b      	uxth	r3, r3
 80045b6:	3b00      	subs	r3, #0
 80045b8:	bf18      	it	ne
 80045ba:	2301      	movne	r3, #1
 80045bc:	2b00      	cmp	r3, #0
 80045be:	d0d3      	beq.n	8004568 <I2C_WaitOnMasterAddressFlagUntilTimeout+0x10>
          hi2c->PreviousState       = I2C_STATE_NONE;
 80045c0:	2300      	movs	r3, #0
 80045c2:	632b      	str	r3, [r5, #48]	@ 0x30
          hi2c->State               = HAL_I2C_STATE_READY;
 80045c4:	2220      	movs	r2, #32
 80045c6:	f885 203d 	strb.w	r2, [r5, #61]	@ 0x3d
          hi2c->Mode                = HAL_I2C_MODE_NONE;
 80045ca:	f885 303e 	strb.w	r3, [r5, #62]	@ 0x3e
          hi2c->ErrorCode           |= HAL_I2C_ERROR_TIMEOUT;
 80045ce:	6c2a      	ldr	r2, [r5, #64]	@ 0x40
 80045d0:	f042 0220 	orr.w	r2, r2, #32
 80045d4:	642a      	str	r2, [r5, #64]	@ 0x40
          __HAL_UNLOCK(hi2c);
 80045d6:	f885 303c 	strb.w	r3, [r5, #60]	@ 0x3c
          return HAL_ERROR;
 80045da:	2001      	movs	r0, #1
 80045dc:	e015      	b.n	800460a <I2C_WaitOnMasterAddressFlagUntilTimeout+0xb2>
      SET_BIT(hi2c->Instance->CR1, I2C_CR1_STOP);
 80045de:	681a      	ldr	r2, [r3, #0]
 80045e0:	f442 7200 	orr.w	r2, r2, #512	@ 0x200
 80045e4:	601a      	str	r2, [r3, #0]
      __HAL_I2C_CLEAR_FLAG(hi2c, I2C_FLAG_AF);
 80045e6:	682b      	ldr	r3, [r5, #0]
 80045e8:	f46f 6280 	mvn.w	r2, #1024	@ 0x400
 80045ec:	615a      	str	r2, [r3, #20]
      hi2c->PreviousState       = I2C_STATE_NONE;
 80045ee:	2300      	movs	r3, #0
 80045f0:	632b      	str	r3, [r5, #48]	@ 0x30
      hi2c->State               = HAL_I2C_STATE_READY;
 80045f2:	2220      	movs	r2, #32
 80045f4:	f885 203d 	strb.w	r2, [r5, #61]	@ 0x3d
      hi2c->Mode                = HAL_I2C_MODE_NONE;
 80045f8:	f885 303e 	strb.w	r3, [r5, #62]	@ 0x3e
      hi2c->ErrorCode           |= HAL_I2C_ERROR_AF;
 80045fc:	6c2a      	ldr	r2, [r5, #64]	@ 0x40
 80045fe:	f042 0204 	orr.w	r2, r2, #4
 8004602:	642a      	str	r2, [r5, #64]	@ 0x40
      __HAL_UNLOCK(hi2c);
 8004604:	f885 303c 	strb.w	r3, [r5, #60]	@ 0x3c
      return HAL_ERROR;
 8004608:	2001      	movs	r0, #1
}
 800460a:	e8bd 83f8 	ldmia.w	sp!, {r3, r4, r5, r6, r7, r8, r9, pc}
  return HAL_OK;
 800460e:	2000      	movs	r0, #0
 8004610:	e7fb      	b.n	800460a <I2C_WaitOnMasterAddressFlagUntilTimeout+0xb2>

08004612 <I2C_WaitOnTXEFlagUntilTimeout>:
{
 8004612:	b570      	push	{r4, r5, r6, lr}
 8004614:	4604      	mov	r4, r0
 8004616:	460d      	mov	r5, r1
 8004618:	4616      	mov	r6, r2
  while (__HAL_I2C_GET_FLAG(hi2c, I2C_FLAG_TXE) == RESET)
 800461a:	6823      	ldr	r3, [r4, #0]
 800461c:	695b      	ldr	r3, [r3, #20]
 800461e:	f013 0f80 	tst.w	r3, #128	@ 0x80
 8004622:	d121      	bne.n	8004668 <I2C_WaitOnTXEFlagUntilTimeout+0x56>
    if (I2C_IsAcknowledgeFailed(hi2c) != HAL_OK)
 8004624:	4620      	mov	r0, r4
 8004626:	f7ff ff3b 	bl	80044a0 <I2C_IsAcknowledgeFailed>
 800462a:	b9f8      	cbnz	r0, 800466c <I2C_WaitOnTXEFlagUntilTimeout+0x5a>
    if (Timeout != HAL_MAX_DELAY)
 800462c:	f1b5 3fff 	cmp.w	r5, #4294967295
 8004630:	d0f3      	beq.n	800461a <I2C_WaitOnTXEFlagUntilTimeout+0x8>
      if (((HAL_GetTick() - Tickstart) > Timeout) || (Timeout == 0U))
 8004632:	f7ff f855 	bl	80036e0 <HAL_GetTick>
 8004636:	1b80      	subs	r0, r0, r6
 8004638:	42a8      	cmp	r0, r5
 800463a:	d801      	bhi.n	8004640 <I2C_WaitOnTXEFlagUntilTimeout+0x2e>
 800463c:	2d00      	cmp	r5, #0
 800463e:	d1ec      	bne.n	800461a <I2C_WaitOnTXEFlagUntilTimeout+0x8>
        if ((__HAL_I2C_GET_FLAG(hi2c, I2C_FLAG_TXE) == RESET))
 8004640:	6823      	ldr	r3, [r4, #0]
 8004642:	695b      	ldr	r3, [r3, #20]
 8004644:	f013 0f80 	tst.w	r3, #128	@ 0x80
 8004648:	d1e7      	bne.n	800461a <I2C_WaitOnTXEFlagUntilTimeout+0x8>
          hi2c->PreviousState       = I2C_STATE_NONE;
 800464a:	2300      	movs	r3, #0
 800464c:	6323      	str	r3, [r4, #48]	@ 0x30
          hi2c->State               = HAL_I2C_STATE_READY;
 800464e:	2220      	movs	r2, #32
 8004650:	f884 203d 	strb.w	r2, [r4, #61]	@ 0x3d
          hi2c->Mode                = HAL_I2C_MODE_NONE;
 8004654:	f884 303e 	strb.w	r3, [r4, #62]	@ 0x3e
          hi2c->ErrorCode           |= HAL_I2C_ERROR_TIMEOUT;
 8004658:	6c22      	ldr	r2, [r4, #64]	@ 0x40
 800465a:	f042 0220 	orr.w	r2, r2, #32
 800465e:	6422      	str	r2, [r4, #64]	@ 0x40
          __HAL_UNLOCK(hi2c);
 8004660:	f884 303c 	strb.w	r3, [r4, #60]	@ 0x3c
          return HAL_ERROR;
 8004664:	2001      	movs	r0, #1
 8004666:	e000      	b.n	800466a <I2C_WaitOnTXEFlagUntilTimeout+0x58>
  return HAL_OK;
 8004668:	2000      	movs	r0, #0
}
 800466a:	bd70      	pop	{r4, r5, r6, pc}
      return HAL_ERROR;
 800466c:	2001      	movs	r0, #1
 800466e:	e7fc      	b.n	800466a <I2C_WaitOnTXEFlagUntilTimeout+0x58>

08004670 <I2C_RequestMemoryWrite>:
{
 8004670:	e92d 43f0 	stmdb	sp!, {r4, r5, r6, r7, r8, r9, lr}
 8004674:	b085      	sub	sp, #20
 8004676:	4604      	mov	r4, r0
 8004678:	460d      	mov	r5, r1
 800467a:	4691      	mov	r9, r2
 800467c:	461f      	mov	r7, r3
 800467e:	f8dd 8030 	ldr.w	r8, [sp, #48]	@ 0x30
 8004682:	9e0d      	ldr	r6, [sp, #52]	@ 0x34
  SET_BIT(hi2c->Instance->CR1, I2C_CR1_START);
 8004684:	6803      	ldr	r3, [r0, #0]
 8004686:	6819      	ldr	r1, [r3, #0]
 8004688:	f441 7180 	orr.w	r1, r1, #256	@ 0x100
 800468c:	6019      	str	r1, [r3, #0]
  if (I2C_WaitOnFlagUntilTimeout(hi2c, I2C_FLAG_SB, RESET, Timeout, Tickstart) != HAL_OK)
 800468e:	9600      	str	r6, [sp, #0]
 8004690:	4643      	mov	r3, r8
 8004692:	2200      	movs	r2, #0
 8004694:	f04f 1101 	mov.w	r1, #65537	@ 0x10001
 8004698:	f7ff ff1b 	bl	80044d2 <I2C_WaitOnFlagUntilTimeout>
 800469c:	b970      	cbnz	r0, 80046bc <I2C_RequestMemoryWrite+0x4c>
  hi2c->Instance->DR = I2C_7BIT_ADD_WRITE(DevAddress);
 800469e:	6823      	ldr	r3, [r4, #0]
 80046a0:	f005 05fe 	and.w	r5, r5, #254	@ 0xfe
 80046a4:	611d      	str	r5, [r3, #16]
  if (I2C_WaitOnMasterAddressFlagUntilTimeout(hi2c, I2C_FLAG_ADDR, Timeout, Tickstart) != HAL_OK)
 80046a6:	4633      	mov	r3, r6
 80046a8:	4642      	mov	r2, r8
 80046aa:	4928      	ldr	r1, [pc, #160]	@ (800474c <I2C_RequestMemoryWrite+0xdc>)
 80046ac:	4620      	mov	r0, r4
 80046ae:	f7ff ff53 	bl	8004558 <I2C_WaitOnMasterAddressFlagUntilTimeout>
 80046b2:	b168      	cbz	r0, 80046d0 <I2C_RequestMemoryWrite+0x60>
    return HAL_ERROR;
 80046b4:	2001      	movs	r0, #1
}
 80046b6:	b005      	add	sp, #20
 80046b8:	e8bd 83f0 	ldmia.w	sp!, {r4, r5, r6, r7, r8, r9, pc}
    if (READ_BIT(hi2c->Instance->CR1, I2C_CR1_START) == I2C_CR1_START)
 80046bc:	6823      	ldr	r3, [r4, #0]
 80046be:	681b      	ldr	r3, [r3, #0]
 80046c0:	f413 7f80 	tst.w	r3, #256	@ 0x100
 80046c4:	d040      	beq.n	8004748 <I2C_RequestMemoryWrite+0xd8>
      hi2c->ErrorCode = HAL_I2C_WRONG_START;
 80046c6:	f44f 7300 	mov.w	r3, #512	@ 0x200
 80046ca:	6423      	str	r3, [r4, #64]	@ 0x40
    return HAL_TIMEOUT;
 80046cc:	2003      	movs	r0, #3
 80046ce:	e7f2      	b.n	80046b6 <I2C_RequestMemoryWrite+0x46>
  __HAL_I2C_CLEAR_ADDRFLAG(hi2c);
 80046d0:	2300      	movs	r3, #0
 80046d2:	9303      	str	r3, [sp, #12]
 80046d4:	6823      	ldr	r3, [r4, #0]
 80046d6:	695a      	ldr	r2, [r3, #20]
 80046d8:	9203      	str	r2, [sp, #12]
 80046da:	699b      	ldr	r3, [r3, #24]
 80046dc:	9303      	str	r3, [sp, #12]
 80046de:	9b03      	ldr	r3, [sp, #12]
  if (I2C_WaitOnTXEFlagUntilTimeout(hi2c, Timeout, Tickstart) != HAL_OK)
 80046e0:	4632      	mov	r2, r6
 80046e2:	4641      	mov	r1, r8
 80046e4:	4620      	mov	r0, r4
 80046e6:	f7ff ff94 	bl	8004612 <I2C_WaitOnTXEFlagUntilTimeout>
 80046ea:	b930      	cbnz	r0, 80046fa <I2C_RequestMemoryWrite+0x8a>
  if (MemAddSize == I2C_MEMADD_SIZE_8BIT)
 80046ec:	2f01      	cmp	r7, #1
 80046ee:	d110      	bne.n	8004712 <I2C_RequestMemoryWrite+0xa2>
    hi2c->Instance->DR = I2C_MEM_ADD_LSB(MemAddress);
 80046f0:	6823      	ldr	r3, [r4, #0]
 80046f2:	fa5f f689 	uxtb.w	r6, r9
 80046f6:	611e      	str	r6, [r3, #16]
 80046f8:	e7dd      	b.n	80046b6 <I2C_RequestMemoryWrite+0x46>
    if (hi2c->ErrorCode == HAL_I2C_ERROR_AF)
 80046fa:	6c23      	ldr	r3, [r4, #64]	@ 0x40
 80046fc:	2b04      	cmp	r3, #4
 80046fe:	d001      	beq.n	8004704 <I2C_RequestMemoryWrite+0x94>
    return HAL_ERROR;
 8004700:	2001      	movs	r0, #1
 8004702:	e7d8      	b.n	80046b6 <I2C_RequestMemoryWrite+0x46>
      SET_BIT(hi2c->Instance->CR1, I2C_CR1_STOP);
 8004704:	6822      	ldr	r2, [r4, #0]
 8004706:	6813      	ldr	r3, [r2, #0]
 8004708:	f443 7300 	orr.w	r3, r3, #512	@ 0x200
 800470c:	6013      	str	r3, [r2, #0]
    return HAL_ERROR;
 800470e:	2001      	movs	r0, #1
 8004710:	e7d1      	b.n	80046b6 <I2C_RequestMemoryWrite+0x46>
    hi2c->Instance->DR = I2C_MEM_ADD_MSB(MemAddress);
 8004712:	6823      	ldr	r3, [r4, #0]
 8004714:	ea4f 2219 	mov.w	r2, r9, lsr #8
 8004718:	611a      	str	r2, [r3, #16]
    if (I2C_WaitOnTXEFlagUntilTimeout(hi2c, Timeout, Tickstart) != HAL_OK)
 800471a:	4632      	mov	r2, r6
 800471c:	4641      	mov	r1, r8
 800471e:	4620      	mov	r0, r4
 8004720:	f7ff ff77 	bl	8004612 <I2C_WaitOnTXEFlagUntilTimeout>
 8004724:	b920      	cbnz	r0, 8004730 <I2C_RequestMemoryWrite+0xc0>
    hi2c->Instance->DR = I2C_MEM_ADD_LSB(MemAddress);
 8004726:	6823      	ldr	r3, [r4, #0]
 8004728:	fa5f f689 	uxtb.w	r6, r9
 800472c:	611e      	str	r6, [r3, #16]
 800472e:	e7c2      	b.n	80046b6 <I2C_RequestMemoryWrite+0x46>
      if (hi2c->ErrorCode == HAL_I2C_ERROR_AF)
 8004730:	6c23      	ldr	r3, [r4, #64]	@ 0x40
 8004732:	2b04      	cmp	r3, #4
 8004734:	d001      	beq.n	800473a <I2C_RequestMemoryWrite+0xca>
      return HAL_ERROR;
 8004736:	2001      	movs	r0, #1
 8004738:	e7bd      	b.n	80046b6 <I2C_RequestMemoryWrite+0x46>
        SET_BIT(hi2c->Instance->CR1, I2C_CR1_STOP);
 800473a:	6822      	ldr	r2, [r4, #0]
 800473c:	6813      	ldr	r3, [r2, #0]
 800473e:	f443 7300 	orr.w	r3, r3, #512	@ 0x200
 8004742:	6013      	str	r3, [r2, #0]
      return HAL_ERROR;
 8004744:	2001      	movs	r0, #1
 8004746:	e7b6      	b.n	80046b6 <I2C_RequestMemoryWrite+0x46>
    return HAL_TIMEOUT;
 8004748:	2003      	movs	r0, #3
 800474a:	e7b4      	b.n	80046b6 <I2C_RequestMemoryWrite+0x46>
 800474c:	00010002 	.word	0x00010002

08004750 <I2C_WaitOnBTFFlagUntilTimeout>:
{
 8004750:	b570      	push	{r4, r5, r6, lr}
 8004752:	4604      	mov	r4, r0
 8004754:	460d      	mov	r5, r1
 8004756:	4616      	mov	r6, r2
  while (__HAL_I2C_GET_FLAG(hi2c, I2C_FLAG_BTF) == RESET)
 8004758:	6823      	ldr	r3, [r4, #0]
 800475a:	695b      	ldr	r3, [r3, #20]
 800475c:	f013 0f04 	tst.w	r3, #4
 8004760:	d121      	bne.n	80047a6 <I2C_WaitOnBTFFlagUntilTimeout+0x56>
    if (I2C_IsAcknowledgeFailed(hi2c) != HAL_OK)
 8004762:	4620      	mov	r0, r4
 8004764:	f7ff fe9c 	bl	80044a0 <I2C_IsAcknowledgeFailed>
 8004768:	b9f8      	cbnz	r0, 80047aa <I2C_WaitOnBTFFlagUntilTimeout+0x5a>
    if (Timeout != HAL_MAX_DELAY)
 800476a:	f1b5 3fff 	cmp.w	r5, #4294967295
 800476e:	d0f3      	beq.n	8004758 <I2C_WaitOnBTFFlagUntilTimeout+0x8>
      if (((HAL_GetTick() - Tickstart) > Timeout) || (Timeout == 0U))
 8004770:	f7fe ffb6 	bl	80036e0 <HAL_GetTick>
 8004774:	1b80      	subs	r0, r0, r6
 8004776:	42a8      	cmp	r0, r5
 8004778:	d801      	bhi.n	800477e <I2C_WaitOnBTFFlagUntilTimeout+0x2e>
 800477a:	2d00      	cmp	r5, #0
 800477c:	d1ec      	bne.n	8004758 <I2C_WaitOnBTFFlagUntilTimeout+0x8>
        if ((__HAL_I2C_GET_FLAG(hi2c, I2C_FLAG_BTF) == RESET))
 800477e:	6823      	ldr	r3, [r4, #0]
 8004780:	695b      	ldr	r3, [r3, #20]
 8004782:	f013 0f04 	tst.w	r3, #4
 8004786:	d1e7      	bne.n	8004758 <I2C_WaitOnBTFFlagUntilTimeout+0x8>
          hi2c->PreviousState       = I2C_STATE_NONE;
 8004788:	2300      	movs	r3, #0
 800478a:	6323      	str	r3, [r4, #48]	@ 0x30
          hi2c->State               = HAL_I2C_STATE_READY;
 800478c:	2220      	movs	r2, #32
 800478e:	f884 203d 	strb.w	r2, [r4, #61]	@ 0x3d
          hi2c->Mode                = HAL_I2C_MODE_NONE;
 8004792:	f884 303e 	strb.w	r3, [r4, #62]	@ 0x3e
          hi2c->ErrorCode           |= HAL_I2C_ERROR_TIMEOUT;
 8004796:	6c22      	ldr	r2, [r4, #64]	@ 0x40
 8004798:	f042 0220 	orr.w	r2, r2, #32
 800479c:	6422      	str	r2, [r4, #64]	@ 0x40
          __HAL_UNLOCK(hi2c);
 800479e:	f884 303c 	strb.w	r3, [r4, #60]	@ 0x3c
          return HAL_ERROR;
 80047a2:	2001      	movs	r0, #1
 80047a4:	e000      	b.n	80047a8 <I2C_WaitOnBTFFlagUntilTimeout+0x58>
  return HAL_OK;
 80047a6:	2000      	movs	r0, #0
}
 80047a8:	bd70      	pop	{r4, r5, r6, pc}
      return HAL_ERROR;
 80047aa:	2001      	movs	r0, #1
 80047ac:	e7fc      	b.n	80047a8 <I2C_WaitOnBTFFlagUntilTimeout+0x58>
	...

080047b0 <HAL_I2C_Init>:
  if (hi2c == NULL)
 80047b0:	2800      	cmp	r0, #0
 80047b2:	f000 80b1 	beq.w	8004918 <HAL_I2C_Init+0x168>
{
 80047b6:	b538      	push	{r3, r4, r5, lr}
 80047b8:	4604      	mov	r4, r0
  if (hi2c->State == HAL_I2C_STATE_RESET)
 80047ba:	f890 303d 	ldrb.w	r3, [r0, #61]	@ 0x3d
 80047be:	2b00      	cmp	r3, #0
 80047c0:	d074      	beq.n	80048ac <HAL_I2C_Init+0xfc>
  hi2c->State = HAL_I2C_STATE_BUSY;
 80047c2:	2324      	movs	r3, #36	@ 0x24
 80047c4:	f884 303d 	strb.w	r3, [r4, #61]	@ 0x3d
  __HAL_I2C_DISABLE(hi2c);
 80047c8:	6822      	ldr	r2, [r4, #0]
 80047ca:	6813      	ldr	r3, [r2, #0]
 80047cc:	f023 0301 	bic.w	r3, r3, #1
 80047d0:	6013      	str	r3, [r2, #0]
  hi2c->Instance->CR1 |= I2C_CR1_SWRST;
 80047d2:	6822      	ldr	r2, [r4, #0]
 80047d4:	6813      	ldr	r3, [r2, #0]
 80047d6:	f443 4300 	orr.w	r3, r3, #32768	@ 0x8000
 80047da:	6013      	str	r3, [r2, #0]
  hi2c->Instance->CR1 &= ~I2C_CR1_SWRST;
 80047dc:	6822      	ldr	r2, [r4, #0]
 80047de:	6813      	ldr	r3, [r2, #0]
 80047e0:	f423 4300 	bic.w	r3, r3, #32768	@ 0x8000
 80047e4:	6013      	str	r3, [r2, #0]
  pclk1 = HAL_RCC_GetPCLK1Freq();
 80047e6:	f000 fc53 	bl	8005090 <HAL_RCC_GetPCLK1Freq>
  if (I2C_MIN_PCLK_FREQ(pclk1, hi2c->Init.ClockSpeed) == 1U)
 80047ea:	6862      	ldr	r2, [r4, #4]
 80047ec:	4b4c      	ldr	r3, [pc, #304]	@ (8004920 <HAL_I2C_Init+0x170>)
 80047ee:	429a      	cmp	r2, r3
 80047f0:	d861      	bhi.n	80048b6 <HAL_I2C_Init+0x106>
 80047f2:	4b4c      	ldr	r3, [pc, #304]	@ (8004924 <HAL_I2C_Init+0x174>)
 80047f4:	4298      	cmp	r0, r3
 80047f6:	f240 8091 	bls.w	800491c <HAL_I2C_Init+0x16c>
  freqrange = I2C_FREQRANGE(pclk1);
 80047fa:	494b      	ldr	r1, [pc, #300]	@ (8004928 <HAL_I2C_Init+0x178>)
 80047fc:	fba1 3100 	umull	r3, r1, r1, r0
 8004800:	0c8b      	lsrs	r3, r1, #18
  MODIFY_REG(hi2c->Instance->CR2, I2C_CR2_FREQ, freqrange);
 8004802:	6825      	ldr	r5, [r4, #0]
 8004804:	686a      	ldr	r2, [r5, #4]
 8004806:	f022 023f 	bic.w	r2, r2, #63	@ 0x3f
 800480a:	ea42 4291 	orr.w	r2, r2, r1, lsr #18
 800480e:	606a      	str	r2, [r5, #4]
  MODIFY_REG(hi2c->Instance->TRISE, I2C_TRISE_TRISE, I2C_RISE_TIME(freqrange, hi2c->Init.ClockSpeed));
 8004810:	6821      	ldr	r1, [r4, #0]
 8004812:	6a0a      	ldr	r2, [r1, #32]
 8004814:	f022 023f 	bic.w	r2, r2, #63	@ 0x3f
 8004818:	4d41      	ldr	r5, [pc, #260]	@ (8004920 <HAL_I2C_Init+0x170>)
 800481a:	f8d4 c004 	ldr.w	ip, [r4, #4]
 800481e:	45ac      	cmp	ip, r5
 8004820:	d84e      	bhi.n	80048c0 <HAL_I2C_Init+0x110>
 8004822:	3301      	adds	r3, #1
 8004824:	4313      	orrs	r3, r2
 8004826:	620b      	str	r3, [r1, #32]
  MODIFY_REG(hi2c->Instance->CCR, (I2C_CCR_FS | I2C_CCR_DUTY | I2C_CCR_CCR), I2C_SPEED(pclk1, hi2c->Init.ClockSpeed, hi2c->Init.DutyCycle));
 8004828:	6821      	ldr	r1, [r4, #0]
 800482a:	69ca      	ldr	r2, [r1, #28]
 800482c:	f422 424f 	bic.w	r2, r2, #52992	@ 0xcf00
 8004830:	f022 02ff 	bic.w	r2, r2, #255	@ 0xff
 8004834:	6865      	ldr	r5, [r4, #4]
 8004836:	4b3a      	ldr	r3, [pc, #232]	@ (8004920 <HAL_I2C_Init+0x170>)
 8004838:	429d      	cmp	r5, r3
 800483a:	d84b      	bhi.n	80048d4 <HAL_I2C_Init+0x124>
 800483c:	1e43      	subs	r3, r0, #1
 800483e:	006d      	lsls	r5, r5, #1
 8004840:	fbb3 f3f5 	udiv	r3, r3, r5
 8004844:	3301      	adds	r3, #1
 8004846:	f640 70fc 	movw	r0, #4092	@ 0xffc
 800484a:	4203      	tst	r3, r0
 800484c:	d05e      	beq.n	800490c <HAL_I2C_Init+0x15c>
 800484e:	f3c3 030b 	ubfx	r3, r3, #0, #12
 8004852:	431a      	orrs	r2, r3
 8004854:	61ca      	str	r2, [r1, #28]
  MODIFY_REG(hi2c->Instance->CR1, (I2C_CR1_ENGC | I2C_CR1_NOSTRETCH), (hi2c->Init.GeneralCallMode | hi2c->Init.NoStretchMode));
 8004856:	6821      	ldr	r1, [r4, #0]
 8004858:	680a      	ldr	r2, [r1, #0]
 800485a:	69e3      	ldr	r3, [r4, #28]
 800485c:	6a20      	ldr	r0, [r4, #32]
 800485e:	4303      	orrs	r3, r0
 8004860:	f022 02c0 	bic.w	r2, r2, #192	@ 0xc0
 8004864:	4313      	orrs	r3, r2
 8004866:	600b      	str	r3, [r1, #0]
  MODIFY_REG(hi2c->Instance->OAR1, (I2C_OAR1_ADDMODE | I2C_OAR1_ADD8_9 | I2C_OAR1_ADD1_7 | I2C_OAR1_ADD0), (hi2c->Init.AddressingMode | hi2c->Init.OwnAddress1));
 8004868:	6821      	ldr	r1, [r4, #0]
 800486a:	688a      	ldr	r2, [r1, #8]
 800486c:	6923      	ldr	r3, [r4, #16]
 800486e:	68e0      	ldr	r0, [r4, #12]
 8004870:	4303      	orrs	r3, r0
 8004872:	f422 4203 	bic.w	r2, r2, #33536	@ 0x8300
 8004876:	f022 02ff 	bic.w	r2, r2, #255	@ 0xff
 800487a:	4313      	orrs	r3, r2
 800487c:	608b      	str	r3, [r1, #8]
  MODIFY_REG(hi2c->Instance->OAR2, (I2C_OAR2_ENDUAL | I2C_OAR2_ADD2), (hi2c->Init.DualAddressMode | hi2c->Init.OwnAddress2));
 800487e:	6821      	ldr	r1, [r4, #0]
 8004880:	68ca      	ldr	r2, [r1, #12]
 8004882:	6963      	ldr	r3, [r4, #20]
 8004884:	69a0      	ldr	r0, [r4, #24]
 8004886:	4303      	orrs	r3, r0
 8004888:	f022 02ff 	bic.w	r2, r2, #255	@ 0xff
 800488c:	4313      	orrs	r3, r2
 800488e:	60cb      	str	r3, [r1, #12]
  __HAL_I2C_ENABLE(hi2c);
 8004890:	6822      	ldr	r2, [r4, #0]
 8004892:	6813      	ldr	r3, [r2, #0]
 8004894:	f043 0301 	orr.w	r3, r3, #1
 8004898:	6013      	str	r3, [r2, #0]
  hi2c->ErrorCode = HAL_I2C_ERROR_NONE;
 800489a:	2000      	movs	r0, #0
 800489c:	6420      	str	r0, [r4, #64]	@ 0x40
  hi2c->State = HAL_I2C_STATE_READY;
 800489e:	2320      	movs	r3, #32
 80048a0:	f884 303d 	strb.w	r3, [r4, #61]	@ 0x3d
  hi2c->PreviousState = I2C_STATE_NONE;
 80048a4:	6320      	str	r0, [r4, #48]	@ 0x30
  hi2c->Mode = HAL_I2C_MODE_NONE;
 80048a6:	f884 003e 	strb.w	r0, [r4, #62]	@ 0x3e
}
 80048aa:	bd38      	pop	{r3, r4, r5, pc}
    hi2c->Lock = HAL_UNLOCKED;
 80048ac:	f880 303c 	strb.w	r3, [r0, #60]	@ 0x3c
    HAL_I2C_MspInit(hi2c);
 80048b0:	f7fe fc3e 	bl	8003130 <HAL_I2C_MspInit>
 80048b4:	e785      	b.n	80047c2 <HAL_I2C_Init+0x12>
  if (I2C_MIN_PCLK_FREQ(pclk1, hi2c->Init.ClockSpeed) == 1U)
 80048b6:	4b1d      	ldr	r3, [pc, #116]	@ (800492c <HAL_I2C_Init+0x17c>)
 80048b8:	4298      	cmp	r0, r3
 80048ba:	d89e      	bhi.n	80047fa <HAL_I2C_Init+0x4a>
    return HAL_ERROR;
 80048bc:	2001      	movs	r0, #1
 80048be:	e7f4      	b.n	80048aa <HAL_I2C_Init+0xfa>
  MODIFY_REG(hi2c->Instance->TRISE, I2C_TRISE_TRISE, I2C_RISE_TIME(freqrange, hi2c->Init.ClockSpeed));
 80048c0:	f44f 7596 	mov.w	r5, #300	@ 0x12c
 80048c4:	fb05 f303 	mul.w	r3, r5, r3
 80048c8:	4d19      	ldr	r5, [pc, #100]	@ (8004930 <HAL_I2C_Init+0x180>)
 80048ca:	fba5 5303 	umull	r5, r3, r5, r3
 80048ce:	099b      	lsrs	r3, r3, #6
 80048d0:	3301      	adds	r3, #1
 80048d2:	e7a7      	b.n	8004824 <HAL_I2C_Init+0x74>
  MODIFY_REG(hi2c->Instance->CCR, (I2C_CCR_FS | I2C_CCR_DUTY | I2C_CCR_CCR), I2C_SPEED(pclk1, hi2c->Init.ClockSpeed, hi2c->Init.DutyCycle));
 80048d4:	68a3      	ldr	r3, [r4, #8]
 80048d6:	b95b      	cbnz	r3, 80048f0 <HAL_I2C_Init+0x140>
 80048d8:	1e43      	subs	r3, r0, #1
 80048da:	eb05 0545 	add.w	r5, r5, r5, lsl #1
 80048de:	fbb3 f3f5 	udiv	r3, r3, r5
 80048e2:	3301      	adds	r3, #1
 80048e4:	f3c3 030b 	ubfx	r3, r3, #0, #12
 80048e8:	b193      	cbz	r3, 8004910 <HAL_I2C_Init+0x160>
 80048ea:	f443 4300 	orr.w	r3, r3, #32768	@ 0x8000
 80048ee:	e7b0      	b.n	8004852 <HAL_I2C_Init+0xa2>
 80048f0:	1e43      	subs	r3, r0, #1
 80048f2:	eb05 0585 	add.w	r5, r5, r5, lsl #2
 80048f6:	eb05 0585 	add.w	r5, r5, r5, lsl #2
 80048fa:	fbb3 f3f5 	udiv	r3, r3, r5
 80048fe:	3301      	adds	r3, #1
 8004900:	f3c3 030b 	ubfx	r3, r3, #0, #12
 8004904:	b133      	cbz	r3, 8004914 <HAL_I2C_Init+0x164>
 8004906:	f443 4340 	orr.w	r3, r3, #49152	@ 0xc000
 800490a:	e7a2      	b.n	8004852 <HAL_I2C_Init+0xa2>
 800490c:	2304      	movs	r3, #4
 800490e:	e7a0      	b.n	8004852 <HAL_I2C_Init+0xa2>
 8004910:	2301      	movs	r3, #1
 8004912:	e79e      	b.n	8004852 <HAL_I2C_Init+0xa2>
 8004914:	2301      	movs	r3, #1
 8004916:	e79c      	b.n	8004852 <HAL_I2C_Init+0xa2>
    return HAL_ERROR;
 8004918:	2001      	movs	r0, #1
}
 800491a:	4770      	bx	lr
    return HAL_ERROR;
 800491c:	2001      	movs	r0, #1
 800491e:	e7c4      	b.n	80048aa <HAL_I2C_Init+0xfa>
 8004920:	000186a0 	.word	0x000186a0
 8004924:	001e847f 	.word	0x001e847f
 8004928:	431bde83 	.word	0x431bde83
 800492c:	003d08ff 	.word	0x003d08ff
 8004930:	10624dd3 	.word	0x10624dd3

08004934 <HAL_I2C_Mem_Write>:
{
 8004934:	e92d 43f0 	stmdb	sp!, {r4, r5, r6, r7, r8, r9, lr}
 8004938:	b083      	sub	sp, #12
 800493a:	4604      	mov	r4, r0
 800493c:	460f      	mov	r7, r1
 800493e:	4690      	mov	r8, r2
 8004940:	4699      	mov	r9, r3
 8004942:	9e0c      	ldr	r6, [sp, #48]	@ 0x30
  uint32_t tickstart = HAL_GetTick();
 8004944:	f7fe fecc 	bl	80036e0 <HAL_GetTick>
 8004948:	4605      	mov	r5, r0
  if (hi2c->State == HAL_I2C_STATE_READY)
 800494a:	f894 003d 	ldrb.w	r0, [r4, #61]	@ 0x3d
 800494e:	b2c0      	uxtb	r0, r0
 8004950:	2820      	cmp	r0, #32
 8004952:	d003      	beq.n	800495c <HAL_I2C_Mem_Write+0x28>
    return HAL_BUSY;
 8004954:	2002      	movs	r0, #2
}
 8004956:	b003      	add	sp, #12
 8004958:	e8bd 83f0 	ldmia.w	sp!, {r4, r5, r6, r7, r8, r9, pc}
    if (I2C_WaitOnFlagUntilTimeout(hi2c, I2C_FLAG_BUSY, SET, I2C_TIMEOUT_BUSY_FLAG, tickstart) != HAL_OK)
 800495c:	9500      	str	r5, [sp, #0]
 800495e:	2319      	movs	r3, #25
 8004960:	2201      	movs	r2, #1
 8004962:	494d      	ldr	r1, [pc, #308]	@ (8004a98 <HAL_I2C_Mem_Write+0x164>)
 8004964:	4620      	mov	r0, r4
 8004966:	f7ff fdb4 	bl	80044d2 <I2C_WaitOnFlagUntilTimeout>
 800496a:	2800      	cmp	r0, #0
 800496c:	f040 808d 	bne.w	8004a8a <HAL_I2C_Mem_Write+0x156>
    __HAL_LOCK(hi2c);
 8004970:	f894 303c 	ldrb.w	r3, [r4, #60]	@ 0x3c
 8004974:	2b01      	cmp	r3, #1
 8004976:	f000 808a 	beq.w	8004a8e <HAL_I2C_Mem_Write+0x15a>
 800497a:	2301      	movs	r3, #1
 800497c:	f884 303c 	strb.w	r3, [r4, #60]	@ 0x3c
    if ((hi2c->Instance->CR1 & I2C_CR1_PE) != I2C_CR1_PE)
 8004980:	6823      	ldr	r3, [r4, #0]
 8004982:	681a      	ldr	r2, [r3, #0]
 8004984:	f012 0f01 	tst.w	r2, #1
 8004988:	d103      	bne.n	8004992 <HAL_I2C_Mem_Write+0x5e>
      __HAL_I2C_ENABLE(hi2c);
 800498a:	681a      	ldr	r2, [r3, #0]
 800498c:	f042 0201 	orr.w	r2, r2, #1
 8004990:	601a      	str	r2, [r3, #0]
    CLEAR_BIT(hi2c->Instance->CR1, I2C_CR1_POS);
 8004992:	6822      	ldr	r2, [r4, #0]
 8004994:	6813      	ldr	r3, [r2, #0]
 8004996:	f423 6300 	bic.w	r3, r3, #2048	@ 0x800
 800499a:	6013      	str	r3, [r2, #0]
    hi2c->State     = HAL_I2C_STATE_BUSY_TX;
 800499c:	2321      	movs	r3, #33	@ 0x21
 800499e:	f884 303d 	strb.w	r3, [r4, #61]	@ 0x3d
    hi2c->Mode      = HAL_I2C_MODE_MEM;
 80049a2:	2340      	movs	r3, #64	@ 0x40
 80049a4:	f884 303e 	strb.w	r3, [r4, #62]	@ 0x3e
    hi2c->ErrorCode = HAL_I2C_ERROR_NONE;
 80049a8:	2300      	movs	r3, #0
 80049aa:	6423      	str	r3, [r4, #64]	@ 0x40
    hi2c->pBuffPtr    = pData;
 80049ac:	9b0a      	ldr	r3, [sp, #40]	@ 0x28
 80049ae:	6263      	str	r3, [r4, #36]	@ 0x24
    hi2c->XferCount   = Size;
 80049b0:	f8bd 302c 	ldrh.w	r3, [sp, #44]	@ 0x2c
 80049b4:	8563      	strh	r3, [r4, #42]	@ 0x2a
    hi2c->XferSize    = hi2c->XferCount;
 80049b6:	8d63      	ldrh	r3, [r4, #42]	@ 0x2a
 80049b8:	8523      	strh	r3, [r4, #40]	@ 0x28
    hi2c->XferOptions = I2C_NO_OPTION_FRAME;
 80049ba:	4b38      	ldr	r3, [pc, #224]	@ (8004a9c <HAL_I2C_Mem_Write+0x168>)
 80049bc:	62e3      	str	r3, [r4, #44]	@ 0x2c
    if (I2C_RequestMemoryWrite(hi2c, DevAddress, MemAddress, MemAddSize, Timeout, tickstart) != HAL_OK)
 80049be:	9501      	str	r5, [sp, #4]
 80049c0:	9600      	str	r6, [sp, #0]
 80049c2:	464b      	mov	r3, r9
 80049c4:	4642      	mov	r2, r8
 80049c6:	4639      	mov	r1, r7
 80049c8:	4620      	mov	r0, r4
 80049ca:	f7ff fe51 	bl	8004670 <I2C_RequestMemoryWrite>
 80049ce:	2800      	cmp	r0, #0
 80049d0:	d15f      	bne.n	8004a92 <HAL_I2C_Mem_Write+0x15e>
    while (hi2c->XferSize > 0U)
 80049d2:	8d23      	ldrh	r3, [r4, #40]	@ 0x28
 80049d4:	b9d3      	cbnz	r3, 8004a0c <HAL_I2C_Mem_Write+0xd8>
    if (I2C_WaitOnBTFFlagUntilTimeout(hi2c, Timeout, tickstart) != HAL_OK)
 80049d6:	462a      	mov	r2, r5
 80049d8:	4631      	mov	r1, r6
 80049da:	4620      	mov	r0, r4
 80049dc:	f7ff feb8 	bl	8004750 <I2C_WaitOnBTFFlagUntilTimeout>
 80049e0:	2800      	cmp	r0, #0
 80049e2:	d044      	beq.n	8004a6e <HAL_I2C_Mem_Write+0x13a>
      if (hi2c->ErrorCode == HAL_I2C_ERROR_AF)
 80049e4:	6c23      	ldr	r3, [r4, #64]	@ 0x40
 80049e6:	2b04      	cmp	r3, #4
 80049e8:	d03a      	beq.n	8004a60 <HAL_I2C_Mem_Write+0x12c>
      return HAL_ERROR;
 80049ea:	2001      	movs	r0, #1
 80049ec:	e7b3      	b.n	8004956 <HAL_I2C_Mem_Write+0x22>
        if (hi2c->ErrorCode == HAL_I2C_ERROR_AF)
 80049ee:	6c23      	ldr	r3, [r4, #64]	@ 0x40
 80049f0:	2b04      	cmp	r3, #4
 80049f2:	d001      	beq.n	80049f8 <HAL_I2C_Mem_Write+0xc4>
        return HAL_ERROR;
 80049f4:	2001      	movs	r0, #1
 80049f6:	e7ae      	b.n	8004956 <HAL_I2C_Mem_Write+0x22>
          SET_BIT(hi2c->Instance->CR1, I2C_CR1_STOP);
 80049f8:	6822      	ldr	r2, [r4, #0]
 80049fa:	6813      	ldr	r3, [r2, #0]
 80049fc:	f443 7300 	orr.w	r3, r3, #512	@ 0x200
 8004a00:	6013      	str	r3, [r2, #0]
        return HAL_ERROR;
 8004a02:	2001      	movs	r0, #1
 8004a04:	e7a7      	b.n	8004956 <HAL_I2C_Mem_Write+0x22>
    while (hi2c->XferSize > 0U)
 8004a06:	8d23      	ldrh	r3, [r4, #40]	@ 0x28
 8004a08:	2b00      	cmp	r3, #0
 8004a0a:	d0e4      	beq.n	80049d6 <HAL_I2C_Mem_Write+0xa2>
      if (I2C_WaitOnTXEFlagUntilTimeout(hi2c, Timeout, tickstart) != HAL_OK)
 8004a0c:	462a      	mov	r2, r5
 8004a0e:	4631      	mov	r1, r6
 8004a10:	4620      	mov	r0, r4
 8004a12:	f7ff fdfe 	bl	8004612 <I2C_WaitOnTXEFlagUntilTimeout>
 8004a16:	2800      	cmp	r0, #0
 8004a18:	d1e9      	bne.n	80049ee <HAL_I2C_Mem_Write+0xba>
      hi2c->Instance->DR = *hi2c->pBuffPtr;
 8004a1a:	6823      	ldr	r3, [r4, #0]
 8004a1c:	6a62      	ldr	r2, [r4, #36]	@ 0x24
 8004a1e:	7812      	ldrb	r2, [r2, #0]
 8004a20:	611a      	str	r2, [r3, #16]
      hi2c->pBuffPtr++;
 8004a22:	6a60      	ldr	r0, [r4, #36]	@ 0x24
 8004a24:	1c43      	adds	r3, r0, #1
 8004a26:	6263      	str	r3, [r4, #36]	@ 0x24
      hi2c->XferSize--;
 8004a28:	8d23      	ldrh	r3, [r4, #40]	@ 0x28
 8004a2a:	3b01      	subs	r3, #1
 8004a2c:	b29b      	uxth	r3, r3
 8004a2e:	8523      	strh	r3, [r4, #40]	@ 0x28
      hi2c->XferCount--;
 8004a30:	8d61      	ldrh	r1, [r4, #42]	@ 0x2a
 8004a32:	3901      	subs	r1, #1
 8004a34:	b289      	uxth	r1, r1
 8004a36:	8561      	strh	r1, [r4, #42]	@ 0x2a
      if ((__HAL_I2C_GET_FLAG(hi2c, I2C_FLAG_BTF) == SET) && (hi2c->XferSize != 0U))
 8004a38:	6822      	ldr	r2, [r4, #0]
 8004a3a:	6951      	ldr	r1, [r2, #20]
 8004a3c:	f011 0f04 	tst.w	r1, #4
 8004a40:	d0e1      	beq.n	8004a06 <HAL_I2C_Mem_Write+0xd2>
 8004a42:	2b00      	cmp	r3, #0
 8004a44:	d0c7      	beq.n	80049d6 <HAL_I2C_Mem_Write+0xa2>
        hi2c->Instance->DR = *hi2c->pBuffPtr;
 8004a46:	7843      	ldrb	r3, [r0, #1]
 8004a48:	6113      	str	r3, [r2, #16]
        hi2c->pBuffPtr++;
 8004a4a:	6a63      	ldr	r3, [r4, #36]	@ 0x24
 8004a4c:	3301      	adds	r3, #1
 8004a4e:	6263      	str	r3, [r4, #36]	@ 0x24
        hi2c->XferSize--;
 8004a50:	8d23      	ldrh	r3, [r4, #40]	@ 0x28
 8004a52:	3b01      	subs	r3, #1
 8004a54:	8523      	strh	r3, [r4, #40]	@ 0x28
        hi2c->XferCount--;
 8004a56:	8d63      	ldrh	r3, [r4, #42]	@ 0x2a
 8004a58:	3b01      	subs	r3, #1
 8004a5a:	b29b      	uxth	r3, r3
 8004a5c:	8563      	strh	r3, [r4, #42]	@ 0x2a
 8004a5e:	e7d2      	b.n	8004a06 <HAL_I2C_Mem_Write+0xd2>
        SET_BIT(hi2c->Instance->CR1, I2C_CR1_STOP);
 8004a60:	6822      	ldr	r2, [r4, #0]
 8004a62:	6813      	ldr	r3, [r2, #0]
 8004a64:	f443 7300 	orr.w	r3, r3, #512	@ 0x200
 8004a68:	6013      	str	r3, [r2, #0]
      return HAL_ERROR;
 8004a6a:	2001      	movs	r0, #1
 8004a6c:	e773      	b.n	8004956 <HAL_I2C_Mem_Write+0x22>
    SET_BIT(hi2c->Instance->CR1, I2C_CR1_STOP);
 8004a6e:	6822      	ldr	r2, [r4, #0]
 8004a70:	6813      	ldr	r3, [r2, #0]
 8004a72:	f443 7300 	orr.w	r3, r3, #512	@ 0x200
 8004a76:	6013      	str	r3, [r2, #0]
    hi2c->State = HAL_I2C_STATE_READY;
 8004a78:	2320      	movs	r3, #32
 8004a7a:	f884 303d 	strb.w	r3, [r4, #61]	@ 0x3d
    hi2c->Mode = HAL_I2C_MODE_NONE;
 8004a7e:	2300      	movs	r3, #0
 8004a80:	f884 303e 	strb.w	r3, [r4, #62]	@ 0x3e
    __HAL_UNLOCK(hi2c);
 8004a84:	f884 303c 	strb.w	r3, [r4, #60]	@ 0x3c
    return HAL_OK;
 8004a88:	e765      	b.n	8004956 <HAL_I2C_Mem_Write+0x22>
      return HAL_BUSY;
 8004a8a:	2002      	movs	r0, #2
 8004a8c:	e763      	b.n	8004956 <HAL_I2C_Mem_Write+0x22>
    __HAL_LOCK(hi2c);
 8004a8e:	2002      	movs	r0, #2
 8004a90:	e761      	b.n	8004956 <HAL_I2C_Mem_Write+0x22>
      return HAL_ERROR;
 8004a92:	2001      	movs	r0, #1
 8004a94:	e75f      	b.n	8004956 <HAL_I2C_Mem_Write+0x22>
 8004a96:	bf00      	nop
 8004a98:	00100002 	.word	0x00100002
 8004a9c:	ffff0000 	.word	0xffff0000

08004aa0 <HAL_RCC_OscConfig>:
{
  uint32_t tickstart;
  uint32_t pll_config;

  /* Check Null pointer */
  if (RCC_OscInitStruct == NULL)
 8004aa0:	2800      	cmp	r0, #0
 8004aa2:	f000 8201 	beq.w	8004ea8 <HAL_RCC_OscConfig+0x408>
{
 8004aa6:	e92d 41f0 	stmdb	sp!, {r4, r5, r6, r7, r8, lr}
 8004aaa:	b082      	sub	sp, #8
 8004aac:	4604      	mov	r4, r0

  /* Check the parameters */
  assert_param(IS_RCC_OSCILLATORTYPE(RCC_OscInitStruct->OscillatorType));

  /*------------------------------- HSE Configuration ------------------------*/
  if (((RCC_OscInitStruct->OscillatorType) & RCC_OSCILLATORTYPE_HSE) == RCC_OSCILLATORTYPE_HSE)
 8004aae:	6803      	ldr	r3, [r0, #0]
 8004ab0:	f013 0f01 	tst.w	r3, #1
 8004ab4:	d02c      	beq.n	8004b10 <HAL_RCC_OscConfig+0x70>
  {
    /* Check the parameters */
    assert_param(IS_RCC_HSE(RCC_OscInitStruct->HSEState));

    /* When the HSE is used as system clock or clock source for PLL in these cases it is not allowed to be disabled */
    if ((__HAL_RCC_GET_SYSCLK_SOURCE() == RCC_SYSCLKSOURCE_STATUS_HSE)
 8004ab6:	4b9f      	ldr	r3, [pc, #636]	@ (8004d34 <HAL_RCC_OscConfig+0x294>)
 8004ab8:	685b      	ldr	r3, [r3, #4]
 8004aba:	f003 030c 	and.w	r3, r3, #12
 8004abe:	2b04      	cmp	r3, #4
 8004ac0:	d01d      	beq.n	8004afe <HAL_RCC_OscConfig+0x5e>
        || ((__HAL_RCC_GET_SYSCLK_SOURCE() == RCC_SYSCLKSOURCE_STATUS_PLLCLK) && (__HAL_RCC_GET_PLL_OSCSOURCE() == RCC_PLLSOURCE_HSE)))
 8004ac2:	4b9c      	ldr	r3, [pc, #624]	@ (8004d34 <HAL_RCC_OscConfig+0x294>)
 8004ac4:	685b      	ldr	r3, [r3, #4]
 8004ac6:	f003 030c 	and.w	r3, r3, #12
 8004aca:	2b08      	cmp	r3, #8
 8004acc:	d012      	beq.n	8004af4 <HAL_RCC_OscConfig+0x54>
      }
    }
    else
    {
      /* Set the new HSE configuration ---------------------------------------*/
      __HAL_RCC_HSE_CONFIG(RCC_OscInitStruct->HSEState);
 8004ace:	6863      	ldr	r3, [r4, #4]
 8004ad0:	f5b3 3f80 	cmp.w	r3, #65536	@ 0x10000
 8004ad4:	d041      	beq.n	8004b5a <HAL_RCC_OscConfig+0xba>
 8004ad6:	2b00      	cmp	r3, #0
 8004ad8:	d155      	bne.n	8004b86 <HAL_RCC_OscConfig+0xe6>
 8004ada:	f103 4380 	add.w	r3, r3, #1073741824	@ 0x40000000
 8004ade:	f503 3304 	add.w	r3, r3, #135168	@ 0x21000
 8004ae2:	681a      	ldr	r2, [r3, #0]
 8004ae4:	f422 3280 	bic.w	r2, r2, #65536	@ 0x10000
 8004ae8:	601a      	str	r2, [r3, #0]
 8004aea:	681a      	ldr	r2, [r3, #0]
 8004aec:	f422 2280 	bic.w	r2, r2, #262144	@ 0x40000
 8004af0:	601a      	str	r2, [r3, #0]
 8004af2:	e037      	b.n	8004b64 <HAL_RCC_OscConfig+0xc4>
        || ((__HAL_RCC_GET_SYSCLK_SOURCE() == RCC_SYSCLKSOURCE_STATUS_PLLCLK) && (__HAL_RCC_GET_PLL_OSCSOURCE() == RCC_PLLSOURCE_HSE)))
 8004af4:	4b8f      	ldr	r3, [pc, #572]	@ (8004d34 <HAL_RCC_OscConfig+0x294>)
 8004af6:	685b      	ldr	r3, [r3, #4]
 8004af8:	f413 3f80 	tst.w	r3, #65536	@ 0x10000
 8004afc:	d0e7      	beq.n	8004ace <HAL_RCC_OscConfig+0x2e>
      if ((__HAL_RCC_GET_FLAG(RCC_FLAG_HSERDY) != RESET) && (RCC_OscInitStruct->HSEState == RCC_HSE_OFF))
 8004afe:	4b8d      	ldr	r3, [pc, #564]	@ (8004d34 <HAL_RCC_OscConfig+0x294>)
 8004b00:	681b      	ldr	r3, [r3, #0]
 8004b02:	f413 3f00 	tst.w	r3, #131072	@ 0x20000
 8004b06:	d003      	beq.n	8004b10 <HAL_RCC_OscConfig+0x70>
 8004b08:	6863      	ldr	r3, [r4, #4]
 8004b0a:	2b00      	cmp	r3, #0
 8004b0c:	f000 81ce 	beq.w	8004eac <HAL_RCC_OscConfig+0x40c>
        }
      }
    }
  }
  /*----------------------------- HSI Configuration --------------------------*/
  if (((RCC_OscInitStruct->OscillatorType) & RCC_OSCILLATORTYPE_HSI) == RCC_OSCILLATORTYPE_HSI)
 8004b10:	6823      	ldr	r3, [r4, #0]
 8004b12:	f013 0f02 	tst.w	r3, #2
 8004b16:	d075      	beq.n	8004c04 <HAL_RCC_OscConfig+0x164>
    /* Check the parameters */
    assert_param(IS_RCC_HSI(RCC_OscInitStruct->HSIState));
    assert_param(IS_RCC_CALIBRATION_VALUE(RCC_OscInitStruct->HSICalibrationValue));

    /* Check if HSI is used as system clock or as PLL source when PLL is selected as system clock */
    if ((__HAL_RCC_GET_SYSCLK_SOURCE() == RCC_SYSCLKSOURCE_STATUS_HSI)
 8004b18:	4b86      	ldr	r3, [pc, #536]	@ (8004d34 <HAL_RCC_OscConfig+0x294>)
 8004b1a:	685b      	ldr	r3, [r3, #4]
 8004b1c:	f013 0f0c 	tst.w	r3, #12
 8004b20:	d05f      	beq.n	8004be2 <HAL_RCC_OscConfig+0x142>
        || ((__HAL_RCC_GET_SYSCLK_SOURCE() == RCC_SYSCLKSOURCE_STATUS_PLLCLK) && (__HAL_RCC_GET_PLL_OSCSOURCE() == RCC_PLLSOURCE_HSI_DIV2)))
 8004b22:	4b84      	ldr	r3, [pc, #528]	@ (8004d34 <HAL_RCC_OscConfig+0x294>)
 8004b24:	685b      	ldr	r3, [r3, #4]
 8004b26:	f003 030c 	and.w	r3, r3, #12
 8004b2a:	2b08      	cmp	r3, #8
 8004b2c:	d054      	beq.n	8004bd8 <HAL_RCC_OscConfig+0x138>
      }
    }
    else
    {
      /* Check the HSI State */
      if (RCC_OscInitStruct->HSIState != RCC_HSI_OFF)
 8004b2e:	6923      	ldr	r3, [r4, #16]
 8004b30:	2b00      	cmp	r3, #0
 8004b32:	f000 808a 	beq.w	8004c4a <HAL_RCC_OscConfig+0x1aa>
      {
        /* Enable the Internal High Speed oscillator (HSI). */
        __HAL_RCC_HSI_ENABLE();
 8004b36:	4b80      	ldr	r3, [pc, #512]	@ (8004d38 <HAL_RCC_OscConfig+0x298>)
 8004b38:	2201      	movs	r2, #1
 8004b3a:	601a      	str	r2, [r3, #0]

        /* Get Start Tick */
        tickstart = HAL_GetTick();
 8004b3c:	f7fe fdd0 	bl	80036e0 <HAL_GetTick>
 8004b40:	4605      	mov	r5, r0

        /* Wait till HSI is ready */
        while (__HAL_RCC_GET_FLAG(RCC_FLAG_HSIRDY) == RESET)
 8004b42:	4e7c      	ldr	r6, [pc, #496]	@ (8004d34 <HAL_RCC_OscConfig+0x294>)
 8004b44:	6833      	ldr	r3, [r6, #0]
 8004b46:	f013 0f02 	tst.w	r3, #2
 8004b4a:	d175      	bne.n	8004c38 <HAL_RCC_OscConfig+0x198>
        {
          if ((HAL_GetTick() - tickstart) > HSI_TIMEOUT_VALUE)
 8004b4c:	f7fe fdc8 	bl	80036e0 <HAL_GetTick>
 8004b50:	1b40      	subs	r0, r0, r5
 8004b52:	2802      	cmp	r0, #2
 8004b54:	d9f6      	bls.n	8004b44 <HAL_RCC_OscConfig+0xa4>
          {
            return HAL_TIMEOUT;
 8004b56:	2003      	movs	r0, #3
 8004b58:	e1ad      	b.n	8004eb6 <HAL_RCC_OscConfig+0x416>
      __HAL_RCC_HSE_CONFIG(RCC_OscInitStruct->HSEState);
 8004b5a:	4a76      	ldr	r2, [pc, #472]	@ (8004d34 <HAL_RCC_OscConfig+0x294>)
 8004b5c:	6813      	ldr	r3, [r2, #0]
 8004b5e:	f443 3380 	orr.w	r3, r3, #65536	@ 0x10000
 8004b62:	6013      	str	r3, [r2, #0]
      if (RCC_OscInitStruct->HSEState != RCC_HSE_OFF)
 8004b64:	6863      	ldr	r3, [r4, #4]
 8004b66:	b343      	cbz	r3, 8004bba <HAL_RCC_OscConfig+0x11a>
        tickstart = HAL_GetTick();
 8004b68:	f7fe fdba 	bl	80036e0 <HAL_GetTick>
 8004b6c:	4605      	mov	r5, r0
        while (__HAL_RCC_GET_FLAG(RCC_FLAG_HSERDY) == RESET)
 8004b6e:	4e71      	ldr	r6, [pc, #452]	@ (8004d34 <HAL_RCC_OscConfig+0x294>)
 8004b70:	6833      	ldr	r3, [r6, #0]
 8004b72:	f413 3f00 	tst.w	r3, #131072	@ 0x20000
 8004b76:	d1cb      	bne.n	8004b10 <HAL_RCC_OscConfig+0x70>
          if ((HAL_GetTick() - tickstart) > HSE_TIMEOUT_VALUE)
 8004b78:	f7fe fdb2 	bl	80036e0 <HAL_GetTick>
 8004b7c:	1b40      	subs	r0, r0, r5
 8004b7e:	2864      	cmp	r0, #100	@ 0x64
 8004b80:	d9f6      	bls.n	8004b70 <HAL_RCC_OscConfig+0xd0>
            return HAL_TIMEOUT;
 8004b82:	2003      	movs	r0, #3
 8004b84:	e197      	b.n	8004eb6 <HAL_RCC_OscConfig+0x416>
      __HAL_RCC_HSE_CONFIG(RCC_OscInitStruct->HSEState);
 8004b86:	f5b3 2fa0 	cmp.w	r3, #327680	@ 0x50000
 8004b8a:	d009      	beq.n	8004ba0 <HAL_RCC_OscConfig+0x100>
 8004b8c:	4b69      	ldr	r3, [pc, #420]	@ (8004d34 <HAL_RCC_OscConfig+0x294>)
 8004b8e:	681a      	ldr	r2, [r3, #0]
 8004b90:	f422 3280 	bic.w	r2, r2, #65536	@ 0x10000
 8004b94:	601a      	str	r2, [r3, #0]
 8004b96:	681a      	ldr	r2, [r3, #0]
 8004b98:	f422 2280 	bic.w	r2, r2, #262144	@ 0x40000
 8004b9c:	601a      	str	r2, [r3, #0]
 8004b9e:	e7e1      	b.n	8004b64 <HAL_RCC_OscConfig+0xc4>
 8004ba0:	f103 4380 	add.w	r3, r3, #1073741824	@ 0x40000000
 8004ba4:	f5a3 333c 	sub.w	r3, r3, #192512	@ 0x2f000
 8004ba8:	681a      	ldr	r2, [r3, #0]
 8004baa:	f442 2280 	orr.w	r2, r2, #262144	@ 0x40000
 8004bae:	601a      	str	r2, [r3, #0]
 8004bb0:	681a      	ldr	r2, [r3, #0]
 8004bb2:	f442 3280 	orr.w	r2, r2, #65536	@ 0x10000
 8004bb6:	601a      	str	r2, [r3, #0]
 8004bb8:	e7d4      	b.n	8004b64 <HAL_RCC_OscConfig+0xc4>
        tickstart = HAL_GetTick();
 8004bba:	f7fe fd91 	bl	80036e0 <HAL_GetTick>
 8004bbe:	4605      	mov	r5, r0
        while (__HAL_RCC_GET_FLAG(RCC_FLAG_HSERDY) != RESET)
 8004bc0:	4e5c      	ldr	r6, [pc, #368]	@ (8004d34 <HAL_RCC_OscConfig+0x294>)
 8004bc2:	6833      	ldr	r3, [r6, #0]
 8004bc4:	f413 3f00 	tst.w	r3, #131072	@ 0x20000
 8004bc8:	d0a2      	beq.n	8004b10 <HAL_RCC_OscConfig+0x70>
          if ((HAL_GetTick() - tickstart) > HSE_TIMEOUT_VALUE)
 8004bca:	f7fe fd89 	bl	80036e0 <HAL_GetTick>
 8004bce:	1b40      	subs	r0, r0, r5
 8004bd0:	2864      	cmp	r0, #100	@ 0x64
 8004bd2:	d9f6      	bls.n	8004bc2 <HAL_RCC_OscConfig+0x122>
            return HAL_TIMEOUT;
 8004bd4:	2003      	movs	r0, #3
 8004bd6:	e16e      	b.n	8004eb6 <HAL_RCC_OscConfig+0x416>
        || ((__HAL_RCC_GET_SYSCLK_SOURCE() == RCC_SYSCLKSOURCE_STATUS_PLLCLK) && (__HAL_RCC_GET_PLL_OSCSOURCE() == RCC_PLLSOURCE_HSI_DIV2)))
 8004bd8:	4b56      	ldr	r3, [pc, #344]	@ (8004d34 <HAL_RCC_OscConfig+0x294>)
 8004bda:	685b      	ldr	r3, [r3, #4]
 8004bdc:	f413 3f80 	tst.w	r3, #65536	@ 0x10000
 8004be0:	d1a5      	bne.n	8004b2e <HAL_RCC_OscConfig+0x8e>
      if ((__HAL_RCC_GET_FLAG(RCC_FLAG_HSIRDY) != RESET) && (RCC_OscInitStruct->HSIState != RCC_HSI_ON))
 8004be2:	4b54      	ldr	r3, [pc, #336]	@ (8004d34 <HAL_RCC_OscConfig+0x294>)
 8004be4:	681b      	ldr	r3, [r3, #0]
 8004be6:	f013 0f02 	tst.w	r3, #2
 8004bea:	d003      	beq.n	8004bf4 <HAL_RCC_OscConfig+0x154>
 8004bec:	6923      	ldr	r3, [r4, #16]
 8004bee:	2b01      	cmp	r3, #1
 8004bf0:	f040 815e 	bne.w	8004eb0 <HAL_RCC_OscConfig+0x410>
        __HAL_RCC_HSI_CALIBRATIONVALUE_ADJUST(RCC_OscInitStruct->HSICalibrationValue);
 8004bf4:	4a4f      	ldr	r2, [pc, #316]	@ (8004d34 <HAL_RCC_OscConfig+0x294>)
 8004bf6:	6813      	ldr	r3, [r2, #0]
 8004bf8:	6961      	ldr	r1, [r4, #20]
 8004bfa:	f023 03f8 	bic.w	r3, r3, #248	@ 0xf8
 8004bfe:	ea43 03c1 	orr.w	r3, r3, r1, lsl #3
 8004c02:	6013      	str	r3, [r2, #0]
        }
      }
    }
  }
  /*------------------------------ LSI Configuration -------------------------*/
  if (((RCC_OscInitStruct->OscillatorType) & RCC_OSCILLATORTYPE_LSI) == RCC_OSCILLATORTYPE_LSI)
 8004c04:	6823      	ldr	r3, [r4, #0]
 8004c06:	f013 0f08 	tst.w	r3, #8
 8004c0a:	d03d      	beq.n	8004c88 <HAL_RCC_OscConfig+0x1e8>
  {
    /* Check the parameters */
    assert_param(IS_RCC_LSI(RCC_OscInitStruct->LSIState));

    /* Check the LSI State */
    if (RCC_OscInitStruct->LSIState != RCC_LSI_OFF)
 8004c0c:	69a3      	ldr	r3, [r4, #24]
 8004c0e:	2b00      	cmp	r3, #0
 8004c10:	d066      	beq.n	8004ce0 <HAL_RCC_OscConfig+0x240>
    {
      /* Enable the Internal Low Speed oscillator (LSI). */
      __HAL_RCC_LSI_ENABLE();
 8004c12:	4b49      	ldr	r3, [pc, #292]	@ (8004d38 <HAL_RCC_OscConfig+0x298>)
 8004c14:	2201      	movs	r2, #1
 8004c16:	f8c3 2480 	str.w	r2, [r3, #1152]	@ 0x480

      /* Get Start Tick */
      tickstart = HAL_GetTick();
 8004c1a:	f7fe fd61 	bl	80036e0 <HAL_GetTick>
 8004c1e:	4605      	mov	r5, r0

      /* Wait till LSI is ready */
      while (__HAL_RCC_GET_FLAG(RCC_FLAG_LSIRDY) == RESET)
 8004c20:	4e44      	ldr	r6, [pc, #272]	@ (8004d34 <HAL_RCC_OscConfig+0x294>)
 8004c22:	6a73      	ldr	r3, [r6, #36]	@ 0x24
 8004c24:	f013 0f02 	tst.w	r3, #2
 8004c28:	d121      	bne.n	8004c6e <HAL_RCC_OscConfig+0x1ce>
      {
        if ((HAL_GetTick() - tickstart) > LSI_TIMEOUT_VALUE)
 8004c2a:	f7fe fd59 	bl	80036e0 <HAL_GetTick>
 8004c2e:	1b40      	subs	r0, r0, r5
 8004c30:	2802      	cmp	r0, #2
 8004c32:	d9f6      	bls.n	8004c22 <HAL_RCC_OscConfig+0x182>
        {
          return HAL_TIMEOUT;
 8004c34:	2003      	movs	r0, #3
 8004c36:	e13e      	b.n	8004eb6 <HAL_RCC_OscConfig+0x416>
        __HAL_RCC_HSI_CALIBRATIONVALUE_ADJUST(RCC_OscInitStruct->HSICalibrationValue);
 8004c38:	4a3e      	ldr	r2, [pc, #248]	@ (8004d34 <HAL_RCC_OscConfig+0x294>)
 8004c3a:	6813      	ldr	r3, [r2, #0]
 8004c3c:	6961      	ldr	r1, [r4, #20]
 8004c3e:	f023 03f8 	bic.w	r3, r3, #248	@ 0xf8
 8004c42:	ea43 03c1 	orr.w	r3, r3, r1, lsl #3
 8004c46:	6013      	str	r3, [r2, #0]
 8004c48:	e7dc      	b.n	8004c04 <HAL_RCC_OscConfig+0x164>
        __HAL_RCC_HSI_DISABLE();
 8004c4a:	4b3b      	ldr	r3, [pc, #236]	@ (8004d38 <HAL_RCC_OscConfig+0x298>)
 8004c4c:	2200      	movs	r2, #0
 8004c4e:	601a      	str	r2, [r3, #0]
        tickstart = HAL_GetTick();
 8004c50:	f7fe fd46 	bl	80036e0 <HAL_GetTick>
 8004c54:	4605      	mov	r5, r0
        while (__HAL_RCC_GET_FLAG(RCC_FLAG_HSIRDY) != RESET)
 8004c56:	4e37      	ldr	r6, [pc, #220]	@ (8004d34 <HAL_RCC_OscConfig+0x294>)
 8004c58:	6833      	ldr	r3, [r6, #0]
 8004c5a:	f013 0f02 	tst.w	r3, #2
 8004c5e:	d0d1      	beq.n	8004c04 <HAL_RCC_OscConfig+0x164>
          if ((HAL_GetTick() - tickstart) > HSI_TIMEOUT_VALUE)
 8004c60:	f7fe fd3e 	bl	80036e0 <HAL_GetTick>
 8004c64:	1b40      	subs	r0, r0, r5
 8004c66:	2802      	cmp	r0, #2
 8004c68:	d9f6      	bls.n	8004c58 <HAL_RCC_OscConfig+0x1b8>
            return HAL_TIMEOUT;
 8004c6a:	2003      	movs	r0, #3
 8004c6c:	e123      	b.n	8004eb6 <HAL_RCC_OscConfig+0x416>
  * @param  mdelay: specifies the delay time length, in milliseconds.
  * @retval None
  */
static void RCC_Delay(uint32_t mdelay)
{
  __IO uint32_t Delay = mdelay * (SystemCoreClock / 8U / 1000U);
 8004c6e:	4b33      	ldr	r3, [pc, #204]	@ (8004d3c <HAL_RCC_OscConfig+0x29c>)
 8004c70:	681b      	ldr	r3, [r3, #0]
 8004c72:	4a33      	ldr	r2, [pc, #204]	@ (8004d40 <HAL_RCC_OscConfig+0x2a0>)
 8004c74:	fba2 2303 	umull	r2, r3, r2, r3
 8004c78:	0a5b      	lsrs	r3, r3, #9
 8004c7a:	9301      	str	r3, [sp, #4]
  do
  {
    __NOP();
 8004c7c:	bf00      	nop
  }
  while (Delay --);
 8004c7e:	9b01      	ldr	r3, [sp, #4]
 8004c80:	1e5a      	subs	r2, r3, #1
 8004c82:	9201      	str	r2, [sp, #4]
 8004c84:	2b00      	cmp	r3, #0
 8004c86:	d1f9      	bne.n	8004c7c <HAL_RCC_OscConfig+0x1dc>
  if (((RCC_OscInitStruct->OscillatorType) & RCC_OSCILLATORTYPE_LSE) == RCC_OSCILLATORTYPE_LSE)
 8004c88:	6823      	ldr	r3, [r4, #0]
 8004c8a:	f013 0f04 	tst.w	r3, #4
 8004c8e:	f000 809b 	beq.w	8004dc8 <HAL_RCC_OscConfig+0x328>
    if (__HAL_RCC_PWR_IS_CLK_DISABLED())
 8004c92:	4b28      	ldr	r3, [pc, #160]	@ (8004d34 <HAL_RCC_OscConfig+0x294>)
 8004c94:	69db      	ldr	r3, [r3, #28]
 8004c96:	f013 5f80 	tst.w	r3, #268435456	@ 0x10000000
 8004c9a:	d134      	bne.n	8004d06 <HAL_RCC_OscConfig+0x266>
      __HAL_RCC_PWR_CLK_ENABLE();
 8004c9c:	4b25      	ldr	r3, [pc, #148]	@ (8004d34 <HAL_RCC_OscConfig+0x294>)
 8004c9e:	69da      	ldr	r2, [r3, #28]
 8004ca0:	f042 5280 	orr.w	r2, r2, #268435456	@ 0x10000000
 8004ca4:	61da      	str	r2, [r3, #28]
 8004ca6:	69db      	ldr	r3, [r3, #28]
 8004ca8:	f003 5380 	and.w	r3, r3, #268435456	@ 0x10000000
 8004cac:	9300      	str	r3, [sp, #0]
 8004cae:	9b00      	ldr	r3, [sp, #0]
      pwrclkchanged = SET;
 8004cb0:	2501      	movs	r5, #1
    if (HAL_IS_BIT_CLR(PWR->CR, PWR_CR_DBP))
 8004cb2:	4b24      	ldr	r3, [pc, #144]	@ (8004d44 <HAL_RCC_OscConfig+0x2a4>)
 8004cb4:	681b      	ldr	r3, [r3, #0]
 8004cb6:	f413 7f80 	tst.w	r3, #256	@ 0x100
 8004cba:	d026      	beq.n	8004d0a <HAL_RCC_OscConfig+0x26a>
    __HAL_RCC_LSE_CONFIG(RCC_OscInitStruct->LSEState);
 8004cbc:	68e3      	ldr	r3, [r4, #12]
 8004cbe:	2b01      	cmp	r3, #1
 8004cc0:	d042      	beq.n	8004d48 <HAL_RCC_OscConfig+0x2a8>
 8004cc2:	2b00      	cmp	r3, #0
 8004cc4:	d158      	bne.n	8004d78 <HAL_RCC_OscConfig+0x2d8>
 8004cc6:	f103 4380 	add.w	r3, r3, #1073741824	@ 0x40000000
 8004cca:	f503 3304 	add.w	r3, r3, #135168	@ 0x21000
 8004cce:	6a1a      	ldr	r2, [r3, #32]
 8004cd0:	f022 0201 	bic.w	r2, r2, #1
 8004cd4:	621a      	str	r2, [r3, #32]
 8004cd6:	6a1a      	ldr	r2, [r3, #32]
 8004cd8:	f022 0204 	bic.w	r2, r2, #4
 8004cdc:	621a      	str	r2, [r3, #32]
 8004cde:	e038      	b.n	8004d52 <HAL_RCC_OscConfig+0x2b2>
      __HAL_RCC_LSI_DISABLE();
 8004ce0:	4b15      	ldr	r3, [pc, #84]	@ (8004d38 <HAL_RCC_OscConfig+0x298>)
 8004ce2:	2200      	movs	r2, #0
 8004ce4:	f8c3 2480 	str.w	r2, [r3, #1152]	@ 0x480
      tickstart = HAL_GetTick();
 8004ce8:	f7fe fcfa 	bl	80036e0 <HAL_GetTick>
 8004cec:	4605      	mov	r5, r0
      while (__HAL_RCC_GET_FLAG(RCC_FLAG_LSIRDY) != RESET)
 8004cee:	4e11      	ldr	r6, [pc, #68]	@ (8004d34 <HAL_RCC_OscConfig+0x294>)
 8004cf0:	6a73      	ldr	r3, [r6, #36]	@ 0x24
 8004cf2:	f013 0f02 	tst.w	r3, #2
 8004cf6:	d0c7      	beq.n	8004c88 <HAL_RCC_OscConfig+0x1e8>
        if ((HAL_GetTick() - tickstart) > LSI_TIMEOUT_VALUE)
 8004cf8:	f7fe fcf2 	bl	80036e0 <HAL_GetTick>
 8004cfc:	1b40      	subs	r0, r0, r5
 8004cfe:	2802      	cmp	r0, #2
 8004d00:	d9f6      	bls.n	8004cf0 <HAL_RCC_OscConfig+0x250>
          return HAL_TIMEOUT;
 8004d02:	2003      	movs	r0, #3
 8004d04:	e0d7      	b.n	8004eb6 <HAL_RCC_OscConfig+0x416>
    FlagStatus       pwrclkchanged = RESET;
 8004d06:	2500      	movs	r5, #0
 8004d08:	e7d3      	b.n	8004cb2 <HAL_RCC_OscConfig+0x212>
      SET_BIT(PWR->CR, PWR_CR_DBP);
 8004d0a:	4a0e      	ldr	r2, [pc, #56]	@ (8004d44 <HAL_RCC_OscConfig+0x2a4>)
 8004d0c:	6813      	ldr	r3, [r2, #0]
 8004d0e:	f443 7380 	orr.w	r3, r3, #256	@ 0x100
 8004d12:	6013      	str	r3, [r2, #0]
      tickstart = HAL_GetTick();
 8004d14:	f7fe fce4 	bl	80036e0 <HAL_GetTick>
 8004d18:	4606      	mov	r6, r0
      while (HAL_IS_BIT_CLR(PWR->CR, PWR_CR_DBP))
 8004d1a:	4f0a      	ldr	r7, [pc, #40]	@ (8004d44 <HAL_RCC_OscConfig+0x2a4>)
 8004d1c:	683b      	ldr	r3, [r7, #0]
 8004d1e:	f413 7f80 	tst.w	r3, #256	@ 0x100
 8004d22:	d1cb      	bne.n	8004cbc <HAL_RCC_OscConfig+0x21c>
        if ((HAL_GetTick() - tickstart) > RCC_DBP_TIMEOUT_VALUE)
 8004d24:	f7fe fcdc 	bl	80036e0 <HAL_GetTick>
 8004d28:	1b80      	subs	r0, r0, r6
 8004d2a:	2864      	cmp	r0, #100	@ 0x64
 8004d2c:	d9f6      	bls.n	8004d1c <HAL_RCC_OscConfig+0x27c>
          return HAL_TIMEOUT;
 8004d2e:	2003      	movs	r0, #3
 8004d30:	e0c1      	b.n	8004eb6 <HAL_RCC_OscConfig+0x416>
 8004d32:	bf00      	nop
 8004d34:	40021000 	.word	0x40021000
 8004d38:	42420000 	.word	0x42420000
 8004d3c:	200000fc 	.word	0x200000fc
 8004d40:	10624dd3 	.word	0x10624dd3
 8004d44:	40007000 	.word	0x40007000
    __HAL_RCC_LSE_CONFIG(RCC_OscInitStruct->LSEState);
 8004d48:	4a5e      	ldr	r2, [pc, #376]	@ (8004ec4 <HAL_RCC_OscConfig+0x424>)
 8004d4a:	6a13      	ldr	r3, [r2, #32]
 8004d4c:	f043 0301 	orr.w	r3, r3, #1
 8004d50:	6213      	str	r3, [r2, #32]
    if (RCC_OscInitStruct->LSEState != RCC_LSE_OFF)
 8004d52:	68e3      	ldr	r3, [r4, #12]
 8004d54:	b333      	cbz	r3, 8004da4 <HAL_RCC_OscConfig+0x304>
      tickstart = HAL_GetTick();
 8004d56:	f7fe fcc3 	bl	80036e0 <HAL_GetTick>
 8004d5a:	4606      	mov	r6, r0
      while (__HAL_RCC_GET_FLAG(RCC_FLAG_LSERDY) == RESET)
 8004d5c:	4f59      	ldr	r7, [pc, #356]	@ (8004ec4 <HAL_RCC_OscConfig+0x424>)
        if ((HAL_GetTick() - tickstart) > RCC_LSE_TIMEOUT_VALUE)
 8004d5e:	f241 3888 	movw	r8, #5000	@ 0x1388
      while (__HAL_RCC_GET_FLAG(RCC_FLAG_LSERDY) == RESET)
 8004d62:	6a3b      	ldr	r3, [r7, #32]
 8004d64:	f013 0f02 	tst.w	r3, #2
 8004d68:	d12d      	bne.n	8004dc6 <HAL_RCC_OscConfig+0x326>
        if ((HAL_GetTick() - tickstart) > RCC_LSE_TIMEOUT_VALUE)
 8004d6a:	f7fe fcb9 	bl	80036e0 <HAL_GetTick>
 8004d6e:	1b80      	subs	r0, r0, r6
 8004d70:	4540      	cmp	r0, r8
 8004d72:	d9f6      	bls.n	8004d62 <HAL_RCC_OscConfig+0x2c2>
          return HAL_TIMEOUT;
 8004d74:	2003      	movs	r0, #3
 8004d76:	e09e      	b.n	8004eb6 <HAL_RCC_OscConfig+0x416>
    __HAL_RCC_LSE_CONFIG(RCC_OscInitStruct->LSEState);
 8004d78:	2b05      	cmp	r3, #5
 8004d7a:	d009      	beq.n	8004d90 <HAL_RCC_OscConfig+0x2f0>
 8004d7c:	4b51      	ldr	r3, [pc, #324]	@ (8004ec4 <HAL_RCC_OscConfig+0x424>)
 8004d7e:	6a1a      	ldr	r2, [r3, #32]
 8004d80:	f022 0201 	bic.w	r2, r2, #1
 8004d84:	621a      	str	r2, [r3, #32]
 8004d86:	6a1a      	ldr	r2, [r3, #32]
 8004d88:	f022 0204 	bic.w	r2, r2, #4
 8004d8c:	621a      	str	r2, [r3, #32]
 8004d8e:	e7e0      	b.n	8004d52 <HAL_RCC_OscConfig+0x2b2>
 8004d90:	4b4c      	ldr	r3, [pc, #304]	@ (8004ec4 <HAL_RCC_OscConfig+0x424>)
 8004d92:	6a1a      	ldr	r2, [r3, #32]
 8004d94:	f042 0204 	orr.w	r2, r2, #4
 8004d98:	621a      	str	r2, [r3, #32]
 8004d9a:	6a1a      	ldr	r2, [r3, #32]
 8004d9c:	f042 0201 	orr.w	r2, r2, #1
 8004da0:	621a      	str	r2, [r3, #32]
 8004da2:	e7d6      	b.n	8004d52 <HAL_RCC_OscConfig+0x2b2>
      tickstart = HAL_GetTick();
 8004da4:	f7fe fc9c 	bl	80036e0 <HAL_GetTick>
 8004da8:	4606      	mov	r6, r0
      while (__HAL_RCC_GET_FLAG(RCC_FLAG_LSERDY) != RESET)
 8004daa:	4f46      	ldr	r7, [pc, #280]	@ (8004ec4 <HAL_RCC_OscConfig+0x424>)
        if ((HAL_GetTick() - tickstart) > RCC_LSE_TIMEOUT_VALUE)
 8004dac:	f241 3888 	movw	r8, #5000	@ 0x1388
      while (__HAL_RCC_GET_FLAG(RCC_FLAG_LSERDY) != RESET)
 8004db0:	6a3b      	ldr	r3, [r7, #32]
 8004db2:	f013 0f02 	tst.w	r3, #2
 8004db6:	d006      	beq.n	8004dc6 <HAL_RCC_OscConfig+0x326>
        if ((HAL_GetTick() - tickstart) > RCC_LSE_TIMEOUT_VALUE)
 8004db8:	f7fe fc92 	bl	80036e0 <HAL_GetTick>
 8004dbc:	1b80      	subs	r0, r0, r6
 8004dbe:	4540      	cmp	r0, r8
 8004dc0:	d9f6      	bls.n	8004db0 <HAL_RCC_OscConfig+0x310>
          return HAL_TIMEOUT;
 8004dc2:	2003      	movs	r0, #3
 8004dc4:	e077      	b.n	8004eb6 <HAL_RCC_OscConfig+0x416>
    if (pwrclkchanged == SET)
 8004dc6:	b9e5      	cbnz	r5, 8004e02 <HAL_RCC_OscConfig+0x362>
  if ((RCC_OscInitStruct->PLL.PLLState) != RCC_PLL_NONE)
 8004dc8:	69e3      	ldr	r3, [r4, #28]
 8004dca:	2b00      	cmp	r3, #0
 8004dcc:	d072      	beq.n	8004eb4 <HAL_RCC_OscConfig+0x414>
    if (__HAL_RCC_GET_SYSCLK_SOURCE() != RCC_SYSCLKSOURCE_STATUS_PLLCLK)
 8004dce:	4a3d      	ldr	r2, [pc, #244]	@ (8004ec4 <HAL_RCC_OscConfig+0x424>)
 8004dd0:	6852      	ldr	r2, [r2, #4]
 8004dd2:	f002 020c 	and.w	r2, r2, #12
 8004dd6:	2a08      	cmp	r2, #8
 8004dd8:	d056      	beq.n	8004e88 <HAL_RCC_OscConfig+0x3e8>
      if ((RCC_OscInitStruct->PLL.PLLState) == RCC_PLL_ON)
 8004dda:	2b02      	cmp	r3, #2
 8004ddc:	d017      	beq.n	8004e0e <HAL_RCC_OscConfig+0x36e>
        __HAL_RCC_PLL_DISABLE();
 8004dde:	4b3a      	ldr	r3, [pc, #232]	@ (8004ec8 <HAL_RCC_OscConfig+0x428>)
 8004de0:	2200      	movs	r2, #0
 8004de2:	661a      	str	r2, [r3, #96]	@ 0x60
        tickstart = HAL_GetTick();
 8004de4:	f7fe fc7c 	bl	80036e0 <HAL_GetTick>
 8004de8:	4604      	mov	r4, r0
        while (__HAL_RCC_GET_FLAG(RCC_FLAG_PLLRDY)  != RESET)
 8004dea:	4d36      	ldr	r5, [pc, #216]	@ (8004ec4 <HAL_RCC_OscConfig+0x424>)
 8004dec:	682b      	ldr	r3, [r5, #0]
 8004dee:	f013 7f00 	tst.w	r3, #33554432	@ 0x2000000
 8004df2:	d047      	beq.n	8004e84 <HAL_RCC_OscConfig+0x3e4>
          if ((HAL_GetTick() - tickstart) > PLL_TIMEOUT_VALUE)
 8004df4:	f7fe fc74 	bl	80036e0 <HAL_GetTick>
 8004df8:	1b00      	subs	r0, r0, r4
 8004dfa:	2802      	cmp	r0, #2
 8004dfc:	d9f6      	bls.n	8004dec <HAL_RCC_OscConfig+0x34c>
            return HAL_TIMEOUT;
 8004dfe:	2003      	movs	r0, #3
 8004e00:	e059      	b.n	8004eb6 <HAL_RCC_OscConfig+0x416>
      __HAL_RCC_PWR_CLK_DISABLE();
 8004e02:	4a30      	ldr	r2, [pc, #192]	@ (8004ec4 <HAL_RCC_OscConfig+0x424>)
 8004e04:	69d3      	ldr	r3, [r2, #28]
 8004e06:	f023 5380 	bic.w	r3, r3, #268435456	@ 0x10000000
 8004e0a:	61d3      	str	r3, [r2, #28]
 8004e0c:	e7dc      	b.n	8004dc8 <HAL_RCC_OscConfig+0x328>
        __HAL_RCC_PLL_DISABLE();
 8004e0e:	4b2e      	ldr	r3, [pc, #184]	@ (8004ec8 <HAL_RCC_OscConfig+0x428>)
 8004e10:	2200      	movs	r2, #0
 8004e12:	661a      	str	r2, [r3, #96]	@ 0x60
        tickstart = HAL_GetTick();
 8004e14:	f7fe fc64 	bl	80036e0 <HAL_GetTick>
 8004e18:	4605      	mov	r5, r0
        while (__HAL_RCC_GET_FLAG(RCC_FLAG_PLLRDY)  != RESET)
 8004e1a:	4e2a      	ldr	r6, [pc, #168]	@ (8004ec4 <HAL_RCC_OscConfig+0x424>)
 8004e1c:	6833      	ldr	r3, [r6, #0]
 8004e1e:	f013 7f00 	tst.w	r3, #33554432	@ 0x2000000
 8004e22:	d006      	beq.n	8004e32 <HAL_RCC_OscConfig+0x392>
          if ((HAL_GetTick() - tickstart) > PLL_TIMEOUT_VALUE)
 8004e24:	f7fe fc5c 	bl	80036e0 <HAL_GetTick>
 8004e28:	1b40      	subs	r0, r0, r5
 8004e2a:	2802      	cmp	r0, #2
 8004e2c:	d9f6      	bls.n	8004e1c <HAL_RCC_OscConfig+0x37c>
            return HAL_TIMEOUT;
 8004e2e:	2003      	movs	r0, #3
 8004e30:	e041      	b.n	8004eb6 <HAL_RCC_OscConfig+0x416>
        if (RCC_OscInitStruct->PLL.PLLSource == RCC_PLLSOURCE_HSE)
 8004e32:	6a23      	ldr	r3, [r4, #32]
 8004e34:	f5b3 3f80 	cmp.w	r3, #65536	@ 0x10000
 8004e38:	d01a      	beq.n	8004e70 <HAL_RCC_OscConfig+0x3d0>
        __HAL_RCC_PLL_CONFIG(RCC_OscInitStruct->PLL.PLLSource,
 8004e3a:	4922      	ldr	r1, [pc, #136]	@ (8004ec4 <HAL_RCC_OscConfig+0x424>)
 8004e3c:	684a      	ldr	r2, [r1, #4]
 8004e3e:	6a23      	ldr	r3, [r4, #32]
 8004e40:	6a60      	ldr	r0, [r4, #36]	@ 0x24
 8004e42:	4303      	orrs	r3, r0
 8004e44:	f422 1274 	bic.w	r2, r2, #3997696	@ 0x3d0000
 8004e48:	4313      	orrs	r3, r2
 8004e4a:	604b      	str	r3, [r1, #4]
        __HAL_RCC_PLL_ENABLE();
 8004e4c:	4b1e      	ldr	r3, [pc, #120]	@ (8004ec8 <HAL_RCC_OscConfig+0x428>)
 8004e4e:	2201      	movs	r2, #1
 8004e50:	661a      	str	r2, [r3, #96]	@ 0x60
        tickstart = HAL_GetTick();
 8004e52:	f7fe fc45 	bl	80036e0 <HAL_GetTick>
 8004e56:	4604      	mov	r4, r0
        while (__HAL_RCC_GET_FLAG(RCC_FLAG_PLLRDY)  == RESET)
 8004e58:	4d1a      	ldr	r5, [pc, #104]	@ (8004ec4 <HAL_RCC_OscConfig+0x424>)
 8004e5a:	682b      	ldr	r3, [r5, #0]
 8004e5c:	f013 7f00 	tst.w	r3, #33554432	@ 0x2000000
 8004e60:	d10e      	bne.n	8004e80 <HAL_RCC_OscConfig+0x3e0>
          if ((HAL_GetTick() - tickstart) > PLL_TIMEOUT_VALUE)
 8004e62:	f7fe fc3d 	bl	80036e0 <HAL_GetTick>
 8004e66:	1b00      	subs	r0, r0, r4
 8004e68:	2802      	cmp	r0, #2
 8004e6a:	d9f6      	bls.n	8004e5a <HAL_RCC_OscConfig+0x3ba>
            return HAL_TIMEOUT;
 8004e6c:	2003      	movs	r0, #3
 8004e6e:	e022      	b.n	8004eb6 <HAL_RCC_OscConfig+0x416>
          __HAL_RCC_HSE_PREDIV_CONFIG(RCC_OscInitStruct->HSEPredivValue);
 8004e70:	4a14      	ldr	r2, [pc, #80]	@ (8004ec4 <HAL_RCC_OscConfig+0x424>)
 8004e72:	6853      	ldr	r3, [r2, #4]
 8004e74:	f423 3300 	bic.w	r3, r3, #131072	@ 0x20000
 8004e78:	68a1      	ldr	r1, [r4, #8]
 8004e7a:	430b      	orrs	r3, r1
 8004e7c:	6053      	str	r3, [r2, #4]
 8004e7e:	e7dc      	b.n	8004e3a <HAL_RCC_OscConfig+0x39a>
  return HAL_OK;
 8004e80:	2000      	movs	r0, #0
 8004e82:	e018      	b.n	8004eb6 <HAL_RCC_OscConfig+0x416>
 8004e84:	2000      	movs	r0, #0
 8004e86:	e016      	b.n	8004eb6 <HAL_RCC_OscConfig+0x416>
      if ((RCC_OscInitStruct->PLL.PLLState) == RCC_PLL_OFF)
 8004e88:	2b01      	cmp	r3, #1
 8004e8a:	d017      	beq.n	8004ebc <HAL_RCC_OscConfig+0x41c>
        pll_config = RCC->CFGR;
 8004e8c:	4b0d      	ldr	r3, [pc, #52]	@ (8004ec4 <HAL_RCC_OscConfig+0x424>)
 8004e8e:	685b      	ldr	r3, [r3, #4]
        if ((READ_BIT(pll_config, RCC_CFGR_PLLSRC) != RCC_OscInitStruct->PLL.PLLSource) ||
 8004e90:	f403 3180 	and.w	r1, r3, #65536	@ 0x10000
 8004e94:	6a22      	ldr	r2, [r4, #32]
 8004e96:	4291      	cmp	r1, r2
 8004e98:	d112      	bne.n	8004ec0 <HAL_RCC_OscConfig+0x420>
            (READ_BIT(pll_config, RCC_CFGR_PLLMULL) != RCC_OscInitStruct->PLL.PLLMUL))
 8004e9a:	f403 1370 	and.w	r3, r3, #3932160	@ 0x3c0000
        if ((READ_BIT(pll_config, RCC_CFGR_PLLSRC) != RCC_OscInitStruct->PLL.PLLSource) ||
 8004e9e:	6a60      	ldr	r0, [r4, #36]	@ 0x24
 8004ea0:	1a18      	subs	r0, r3, r0
 8004ea2:	bf18      	it	ne
 8004ea4:	2001      	movne	r0, #1
 8004ea6:	e006      	b.n	8004eb6 <HAL_RCC_OscConfig+0x416>
    return HAL_ERROR;
 8004ea8:	2001      	movs	r0, #1
}
 8004eaa:	4770      	bx	lr
        return HAL_ERROR;
 8004eac:	2001      	movs	r0, #1
 8004eae:	e002      	b.n	8004eb6 <HAL_RCC_OscConfig+0x416>
        return HAL_ERROR;
 8004eb0:	2001      	movs	r0, #1
 8004eb2:	e000      	b.n	8004eb6 <HAL_RCC_OscConfig+0x416>
  return HAL_OK;
 8004eb4:	2000      	movs	r0, #0
}
 8004eb6:	b002      	add	sp, #8
 8004eb8:	e8bd 81f0 	ldmia.w	sp!, {r4, r5, r6, r7, r8, pc}
        return HAL_ERROR;
 8004ebc:	2001      	movs	r0, #1
 8004ebe:	e7fa      	b.n	8004eb6 <HAL_RCC_OscConfig+0x416>
          return HAL_ERROR;
 8004ec0:	2001      	movs	r0, #1
 8004ec2:	e7f8      	b.n	8004eb6 <HAL_RCC_OscConfig+0x416>
 8004ec4:	40021000 	.word	0x40021000
 8004ec8:	42420000 	.word	0x42420000

08004ecc <HAL_RCC_GetSysClockFreq>:
  tmpreg = RCC->CFGR;
 8004ecc:	4b0f      	ldr	r3, [pc, #60]	@ (8004f0c <HAL_RCC_GetSysClockFreq+0x40>)
 8004ece:	685b      	ldr	r3, [r3, #4]
  switch (tmpreg & RCC_CFGR_SWS)
 8004ed0:	f003 020c 	and.w	r2, r3, #12
 8004ed4:	2a08      	cmp	r2, #8
 8004ed6:	d001      	beq.n	8004edc <HAL_RCC_GetSysClockFreq+0x10>
      sysclockfreq = HSE_VALUE;
 8004ed8:	480d      	ldr	r0, [pc, #52]	@ (8004f10 <HAL_RCC_GetSysClockFreq+0x44>)
}
 8004eda:	4770      	bx	lr
      pllmul = aPLLMULFactorTable[(uint32_t)(tmpreg & RCC_CFGR_PLLMULL) >> RCC_CFGR_PLLMULL_Pos];
 8004edc:	f3c3 4283 	ubfx	r2, r3, #18, #4
 8004ee0:	490c      	ldr	r1, [pc, #48]	@ (8004f14 <HAL_RCC_GetSysClockFreq+0x48>)
 8004ee2:	5c88      	ldrb	r0, [r1, r2]
      if ((tmpreg & RCC_CFGR_PLLSRC) != RCC_PLLSOURCE_HSI_DIV2)
 8004ee4:	f413 3f80 	tst.w	r3, #65536	@ 0x10000
 8004ee8:	d00b      	beq.n	8004f02 <HAL_RCC_GetSysClockFreq+0x36>
        prediv = aPredivFactorTable[(uint32_t)(RCC->CFGR & RCC_CFGR_PLLXTPRE) >> RCC_CFGR_PLLXTPRE_Pos];
 8004eea:	4b08      	ldr	r3, [pc, #32]	@ (8004f0c <HAL_RCC_GetSysClockFreq+0x40>)
 8004eec:	685b      	ldr	r3, [r3, #4]
        pllclk = (uint32_t)((HSE_VALUE  * pllmul) / prediv);
 8004eee:	4a08      	ldr	r2, [pc, #32]	@ (8004f10 <HAL_RCC_GetSysClockFreq+0x44>)
 8004ef0:	fb02 f000 	mul.w	r0, r2, r0
        prediv = aPredivFactorTable[(uint32_t)(RCC->CFGR & RCC_CFGR_PLLXTPRE) >> RCC_CFGR_PLLXTPRE_Pos];
 8004ef4:	f3c3 4340 	ubfx	r3, r3, #17, #1
 8004ef8:	4a07      	ldr	r2, [pc, #28]	@ (8004f18 <HAL_RCC_GetSysClockFreq+0x4c>)
 8004efa:	5cd3      	ldrb	r3, [r2, r3]
        pllclk = (uint32_t)((HSE_VALUE  * pllmul) / prediv);
 8004efc:	fbb0 f0f3 	udiv	r0, r0, r3
 8004f00:	4770      	bx	lr
        pllclk = (uint32_t)((HSI_VALUE >> 1) * pllmul);
 8004f02:	4b06      	ldr	r3, [pc, #24]	@ (8004f1c <HAL_RCC_GetSysClockFreq+0x50>)
 8004f04:	fb03 f000 	mul.w	r0, r3, r0
 8004f08:	4770      	bx	lr
 8004f0a:	bf00      	nop
 8004f0c:	40021000 	.word	0x40021000
 8004f10:	007a1200 	.word	0x007a1200
 8004f14:	0800c89c 	.word	0x0800c89c
 8004f18:	0800c898 	.word	0x0800c898
 8004f1c:	003d0900 	.word	0x003d0900

08004f20 <HAL_RCC_ClockConfig>:
  if (RCC_ClkInitStruct == NULL)
 8004f20:	2800      	cmp	r0, #0
 8004f22:	f000 80a2 	beq.w	800506a <HAL_RCC_ClockConfig+0x14a>
{
 8004f26:	e92d 41f0 	stmdb	sp!, {r4, r5, r6, r7, r8, lr}
 8004f2a:	460d      	mov	r5, r1
 8004f2c:	4604      	mov	r4, r0
  if (FLatency > __HAL_FLASH_GET_LATENCY())
 8004f2e:	4b53      	ldr	r3, [pc, #332]	@ (800507c <HAL_RCC_ClockConfig+0x15c>)
 8004f30:	681b      	ldr	r3, [r3, #0]
 8004f32:	f003 0307 	and.w	r3, r3, #7
 8004f36:	428b      	cmp	r3, r1
 8004f38:	d20b      	bcs.n	8004f52 <HAL_RCC_ClockConfig+0x32>
    __HAL_FLASH_SET_LATENCY(FLatency);
 8004f3a:	4a50      	ldr	r2, [pc, #320]	@ (800507c <HAL_RCC_ClockConfig+0x15c>)
 8004f3c:	6813      	ldr	r3, [r2, #0]
 8004f3e:	f023 0307 	bic.w	r3, r3, #7
 8004f42:	430b      	orrs	r3, r1
 8004f44:	6013      	str	r3, [r2, #0]
    if (__HAL_FLASH_GET_LATENCY() != FLatency)
 8004f46:	6813      	ldr	r3, [r2, #0]
 8004f48:	f003 0307 	and.w	r3, r3, #7
 8004f4c:	428b      	cmp	r3, r1
 8004f4e:	f040 808e 	bne.w	800506e <HAL_RCC_ClockConfig+0x14e>
if (((RCC_ClkInitStruct->ClockType) & RCC_CLOCKTYPE_HCLK) == RCC_CLOCKTYPE_HCLK)
 8004f52:	6823      	ldr	r3, [r4, #0]
 8004f54:	f013 0f02 	tst.w	r3, #2
 8004f58:	d017      	beq.n	8004f8a <HAL_RCC_ClockConfig+0x6a>
    if (((RCC_ClkInitStruct->ClockType) & RCC_CLOCKTYPE_PCLK1) == RCC_CLOCKTYPE_PCLK1)
 8004f5a:	f013 0f04 	tst.w	r3, #4
 8004f5e:	d004      	beq.n	8004f6a <HAL_RCC_ClockConfig+0x4a>
      MODIFY_REG(RCC->CFGR, RCC_CFGR_PPRE1, RCC_HCLK_DIV16);
 8004f60:	4a47      	ldr	r2, [pc, #284]	@ (8005080 <HAL_RCC_ClockConfig+0x160>)
 8004f62:	6853      	ldr	r3, [r2, #4]
 8004f64:	f443 63e0 	orr.w	r3, r3, #1792	@ 0x700
 8004f68:	6053      	str	r3, [r2, #4]
    if (((RCC_ClkInitStruct->ClockType) & RCC_CLOCKTYPE_PCLK2) == RCC_CLOCKTYPE_PCLK2)
 8004f6a:	6823      	ldr	r3, [r4, #0]
 8004f6c:	f013 0f08 	tst.w	r3, #8
 8004f70:	d004      	beq.n	8004f7c <HAL_RCC_ClockConfig+0x5c>
      MODIFY_REG(RCC->CFGR, RCC_CFGR_PPRE2, (RCC_HCLK_DIV16 << 3));
 8004f72:	4a43      	ldr	r2, [pc, #268]	@ (8005080 <HAL_RCC_ClockConfig+0x160>)
 8004f74:	6853      	ldr	r3, [r2, #4]
 8004f76:	f443 5360 	orr.w	r3, r3, #14336	@ 0x3800
 8004f7a:	6053      	str	r3, [r2, #4]
    MODIFY_REG(RCC->CFGR, RCC_CFGR_HPRE, RCC_ClkInitStruct->AHBCLKDivider);
 8004f7c:	4a40      	ldr	r2, [pc, #256]	@ (8005080 <HAL_RCC_ClockConfig+0x160>)
 8004f7e:	6853      	ldr	r3, [r2, #4]
 8004f80:	f023 03f0 	bic.w	r3, r3, #240	@ 0xf0
 8004f84:	68a1      	ldr	r1, [r4, #8]
 8004f86:	430b      	orrs	r3, r1
 8004f88:	6053      	str	r3, [r2, #4]
  if (((RCC_ClkInitStruct->ClockType) & RCC_CLOCKTYPE_SYSCLK) == RCC_CLOCKTYPE_SYSCLK)
 8004f8a:	6823      	ldr	r3, [r4, #0]
 8004f8c:	f013 0f01 	tst.w	r3, #1
 8004f90:	d031      	beq.n	8004ff6 <HAL_RCC_ClockConfig+0xd6>
    if (RCC_ClkInitStruct->SYSCLKSource == RCC_SYSCLKSOURCE_HSE)
 8004f92:	6862      	ldr	r2, [r4, #4]
 8004f94:	2a01      	cmp	r2, #1
 8004f96:	d020      	beq.n	8004fda <HAL_RCC_ClockConfig+0xba>
    else if (RCC_ClkInitStruct->SYSCLKSource == RCC_SYSCLKSOURCE_PLLCLK)
 8004f98:	2a02      	cmp	r2, #2
 8004f9a:	d025      	beq.n	8004fe8 <HAL_RCC_ClockConfig+0xc8>
      if (__HAL_RCC_GET_FLAG(RCC_FLAG_HSIRDY) == RESET)
 8004f9c:	4b38      	ldr	r3, [pc, #224]	@ (8005080 <HAL_RCC_ClockConfig+0x160>)
 8004f9e:	681b      	ldr	r3, [r3, #0]
 8004fa0:	f013 0f02 	tst.w	r3, #2
 8004fa4:	d065      	beq.n	8005072 <HAL_RCC_ClockConfig+0x152>
    __HAL_RCC_SYSCLK_CONFIG(RCC_ClkInitStruct->SYSCLKSource);
 8004fa6:	4936      	ldr	r1, [pc, #216]	@ (8005080 <HAL_RCC_ClockConfig+0x160>)
 8004fa8:	684b      	ldr	r3, [r1, #4]
 8004faa:	f023 0303 	bic.w	r3, r3, #3
 8004fae:	4313      	orrs	r3, r2
 8004fb0:	604b      	str	r3, [r1, #4]
    tickstart = HAL_GetTick();
 8004fb2:	f7fe fb95 	bl	80036e0 <HAL_GetTick>
 8004fb6:	4606      	mov	r6, r0
    while (__HAL_RCC_GET_SYSCLK_SOURCE() != (RCC_ClkInitStruct->SYSCLKSource << RCC_CFGR_SWS_Pos))
 8004fb8:	4f31      	ldr	r7, [pc, #196]	@ (8005080 <HAL_RCC_ClockConfig+0x160>)
      if ((HAL_GetTick() - tickstart) > CLOCKSWITCH_TIMEOUT_VALUE)
 8004fba:	f241 3888 	movw	r8, #5000	@ 0x1388
    while (__HAL_RCC_GET_SYSCLK_SOURCE() != (RCC_ClkInitStruct->SYSCLKSource << RCC_CFGR_SWS_Pos))
 8004fbe:	687b      	ldr	r3, [r7, #4]
 8004fc0:	f003 030c 	and.w	r3, r3, #12
 8004fc4:	6862      	ldr	r2, [r4, #4]
 8004fc6:	ebb3 0f82 	cmp.w	r3, r2, lsl #2
 8004fca:	d014      	beq.n	8004ff6 <HAL_RCC_ClockConfig+0xd6>
      if ((HAL_GetTick() - tickstart) > CLOCKSWITCH_TIMEOUT_VALUE)
 8004fcc:	f7fe fb88 	bl	80036e0 <HAL_GetTick>
 8004fd0:	1b80      	subs	r0, r0, r6
 8004fd2:	4540      	cmp	r0, r8
 8004fd4:	d9f3      	bls.n	8004fbe <HAL_RCC_ClockConfig+0x9e>
        return HAL_TIMEOUT;
 8004fd6:	2003      	movs	r0, #3
 8004fd8:	e045      	b.n	8005066 <HAL_RCC_ClockConfig+0x146>
      if (__HAL_RCC_GET_FLAG(RCC_FLAG_HSERDY) == RESET)
 8004fda:	4b29      	ldr	r3, [pc, #164]	@ (8005080 <HAL_RCC_ClockConfig+0x160>)
 8004fdc:	681b      	ldr	r3, [r3, #0]
 8004fde:	f413 3f00 	tst.w	r3, #131072	@ 0x20000
 8004fe2:	d1e0      	bne.n	8004fa6 <HAL_RCC_ClockConfig+0x86>
        return HAL_ERROR;
 8004fe4:	2001      	movs	r0, #1
 8004fe6:	e03e      	b.n	8005066 <HAL_RCC_ClockConfig+0x146>
      if (__HAL_RCC_GET_FLAG(RCC_FLAG_PLLRDY) == RESET)
 8004fe8:	4b25      	ldr	r3, [pc, #148]	@ (8005080 <HAL_RCC_ClockConfig+0x160>)
 8004fea:	681b      	ldr	r3, [r3, #0]
 8004fec:	f013 7f00 	tst.w	r3, #33554432	@ 0x2000000
 8004ff0:	d1d9      	bne.n	8004fa6 <HAL_RCC_ClockConfig+0x86>
        return HAL_ERROR;
 8004ff2:	2001      	movs	r0, #1
 8004ff4:	e037      	b.n	8005066 <HAL_RCC_ClockConfig+0x146>
  if (FLatency < __HAL_FLASH_GET_LATENCY())
 8004ff6:	4b21      	ldr	r3, [pc, #132]	@ (800507c <HAL_RCC_ClockConfig+0x15c>)
 8004ff8:	681b      	ldr	r3, [r3, #0]
 8004ffa:	f003 0307 	and.w	r3, r3, #7
 8004ffe:	42ab      	cmp	r3, r5
 8005000:	d90a      	bls.n	8005018 <HAL_RCC_ClockConfig+0xf8>
    __HAL_FLASH_SET_LATENCY(FLatency);
 8005002:	4a1e      	ldr	r2, [pc, #120]	@ (800507c <HAL_RCC_ClockConfig+0x15c>)
 8005004:	6813      	ldr	r3, [r2, #0]
 8005006:	f023 0307 	bic.w	r3, r3, #7
 800500a:	432b      	orrs	r3, r5
 800500c:	6013      	str	r3, [r2, #0]
    if (__HAL_FLASH_GET_LATENCY() != FLatency)
 800500e:	6813      	ldr	r3, [r2, #0]
 8005010:	f003 0307 	and.w	r3, r3, #7
 8005014:	42ab      	cmp	r3, r5
 8005016:	d12e      	bne.n	8005076 <HAL_RCC_ClockConfig+0x156>
if (((RCC_ClkInitStruct->ClockType) & RCC_CLOCKTYPE_PCLK1) == RCC_CLOCKTYPE_PCLK1)
 8005018:	6823      	ldr	r3, [r4, #0]
 800501a:	f013 0f04 	tst.w	r3, #4
 800501e:	d006      	beq.n	800502e <HAL_RCC_ClockConfig+0x10e>
    MODIFY_REG(RCC->CFGR, RCC_CFGR_PPRE1, RCC_ClkInitStruct->APB1CLKDivider);
 8005020:	4a17      	ldr	r2, [pc, #92]	@ (8005080 <HAL_RCC_ClockConfig+0x160>)
 8005022:	6853      	ldr	r3, [r2, #4]
 8005024:	f423 63e0 	bic.w	r3, r3, #1792	@ 0x700
 8005028:	68e1      	ldr	r1, [r4, #12]
 800502a:	430b      	orrs	r3, r1
 800502c:	6053      	str	r3, [r2, #4]
  if (((RCC_ClkInitStruct->ClockType) & RCC_CLOCKTYPE_PCLK2) == RCC_CLOCKTYPE_PCLK2)
 800502e:	6823      	ldr	r3, [r4, #0]
 8005030:	f013 0f08 	tst.w	r3, #8
 8005034:	d007      	beq.n	8005046 <HAL_RCC_ClockConfig+0x126>
    MODIFY_REG(RCC->CFGR, RCC_CFGR_PPRE2, ((RCC_ClkInitStruct->APB2CLKDivider) << 3));
 8005036:	4a12      	ldr	r2, [pc, #72]	@ (8005080 <HAL_RCC_ClockConfig+0x160>)
 8005038:	6853      	ldr	r3, [r2, #4]
 800503a:	6921      	ldr	r1, [r4, #16]
 800503c:	f423 5360 	bic.w	r3, r3, #14336	@ 0x3800
 8005040:	ea43 03c1 	orr.w	r3, r3, r1, lsl #3
 8005044:	6053      	str	r3, [r2, #4]
  SystemCoreClock = HAL_RCC_GetSysClockFreq() >> AHBPrescTable[(RCC->CFGR & RCC_CFGR_HPRE) >> RCC_CFGR_HPRE_Pos];
 8005046:	f7ff ff41 	bl	8004ecc <HAL_RCC_GetSysClockFreq>
 800504a:	4b0d      	ldr	r3, [pc, #52]	@ (8005080 <HAL_RCC_ClockConfig+0x160>)
 800504c:	685b      	ldr	r3, [r3, #4]
 800504e:	f3c3 1303 	ubfx	r3, r3, #4, #4
 8005052:	4a0c      	ldr	r2, [pc, #48]	@ (8005084 <HAL_RCC_ClockConfig+0x164>)
 8005054:	5cd3      	ldrb	r3, [r2, r3]
 8005056:	40d8      	lsrs	r0, r3
 8005058:	4b0b      	ldr	r3, [pc, #44]	@ (8005088 <HAL_RCC_ClockConfig+0x168>)
 800505a:	6018      	str	r0, [r3, #0]
  HAL_InitTick(uwTickPrio);
 800505c:	4b0b      	ldr	r3, [pc, #44]	@ (800508c <HAL_RCC_ClockConfig+0x16c>)
 800505e:	6818      	ldr	r0, [r3, #0]
 8005060:	f7fe fafa 	bl	8003658 <HAL_InitTick>
  return HAL_OK;
 8005064:	2000      	movs	r0, #0
}
 8005066:	e8bd 81f0 	ldmia.w	sp!, {r4, r5, r6, r7, r8, pc}
    return HAL_ERROR;
 800506a:	2001      	movs	r0, #1
}
 800506c:	4770      	bx	lr
    return HAL_ERROR;
 800506e:	2001      	movs	r0, #1
 8005070:	e7f9      	b.n	8005066 <HAL_RCC_ClockConfig+0x146>
        return HAL_ERROR;
 8005072:	2001      	movs	r0, #1
 8005074:	e7f7      	b.n	8005066 <HAL_RCC_ClockConfig+0x146>
    return HAL_ERROR;
 8005076:	2001      	movs	r0, #1
 8005078:	e7f5      	b.n	8005066 <HAL_RCC_ClockConfig+0x146>
 800507a:	bf00      	nop
 800507c:	40022000 	.word	0x40022000
 8005080:	40021000 	.word	0x40021000
 8005084:	0800c888 	.word	0x0800c888
 8005088:	200000fc 	.word	0x200000fc
 800508c:	20000104 	.word	0x20000104

08005090 <HAL_RCC_GetPCLK1Freq>:
  return (HAL_RCC_GetHCLKFreq() >> APBPrescTable[(RCC->CFGR & RCC_CFGR_PPRE1) >> RCC_CFGR_PPRE1_Pos]);
 8005090:	4b04      	ldr	r3, [pc, #16]	@ (80050a4 <HAL_RCC_GetPCLK1Freq+0x14>)
 8005092:	685b      	ldr	r3, [r3, #4]
 8005094:	f3c3 2302 	ubfx	r3, r3, #8, #3
 8005098:	4a03      	ldr	r2, [pc, #12]	@ (80050a8 <HAL_RCC_GetPCLK1Freq+0x18>)
 800509a:	5cd3      	ldrb	r3, [r2, r3]
 800509c:	4a03      	ldr	r2, [pc, #12]	@ (80050ac <HAL_RCC_GetPCLK1Freq+0x1c>)
 800509e:	6810      	ldr	r0, [r2, #0]
}
 80050a0:	40d8      	lsrs	r0, r3
 80050a2:	4770      	bx	lr
 80050a4:	40021000 	.word	0x40021000
 80050a8:	0800c880 	.word	0x0800c880
 80050ac:	200000fc 	.word	0x200000fc

080050b0 <HAL_RCC_GetPCLK2Freq>:
  return (HAL_RCC_GetHCLKFreq() >> APBPrescTable[(RCC->CFGR & RCC_CFGR_PPRE2) >> RCC_CFGR_PPRE2_Pos]);
 80050b0:	4b04      	ldr	r3, [pc, #16]	@ (80050c4 <HAL_RCC_GetPCLK2Freq+0x14>)
 80050b2:	685b      	ldr	r3, [r3, #4]
 80050b4:	f3c3 23c2 	ubfx	r3, r3, #11, #3
 80050b8:	4a03      	ldr	r2, [pc, #12]	@ (80050c8 <HAL_RCC_GetPCLK2Freq+0x18>)
 80050ba:	5cd3      	ldrb	r3, [r2, r3]
 80050bc:	4a03      	ldr	r2, [pc, #12]	@ (80050cc <HAL_RCC_GetPCLK2Freq+0x1c>)
 80050be:	6810      	ldr	r0, [r2, #0]
}
 80050c0:	40d8      	lsrs	r0, r3
 80050c2:	4770      	bx	lr
 80050c4:	40021000 	.word	0x40021000
 80050c8:	0800c880 	.word	0x0800c880
 80050cc:	200000fc 	.word	0x200000fc

080050d0 <HAL_RCCEx_PeriphCLKConfig>:
  *         manually disable it.
  *
  * @retval HAL status
  */
HAL_StatusTypeDef HAL_RCCEx_PeriphCLKConfig(RCC_PeriphCLKInitTypeDef  *PeriphClkInit)
{
 80050d0:	e92d 41f0 	stmdb	sp!, {r4, r5, r6, r7, r8, lr}
 80050d4:	b082      	sub	sp, #8
 80050d6:	4604      	mov	r4, r0

  /* Check the parameters */
  assert_param(IS_RCC_PERIPHCLOCK(PeriphClkInit->PeriphClockSelection));

  /*------------------------------- RTC/LCD Configuration ------------------------*/
  if ((((PeriphClkInit->PeriphClockSelection) & RCC_PERIPHCLK_RTC) == RCC_PERIPHCLK_RTC))
 80050d8:	6803      	ldr	r3, [r0, #0]
 80050da:	f013 0f01 	tst.w	r3, #1
 80050de:	d036      	beq.n	800514e <HAL_RCCEx_PeriphCLKConfig+0x7e>
    assert_param(IS_RCC_RTCCLKSOURCE(PeriphClkInit->RTCClockSelection));

    /* As soon as function is called to change RTC clock source, activation of the
       power domain is done. */
    /* Requires to enable write access to Backup Domain of necessary */
    if (__HAL_RCC_PWR_IS_CLK_DISABLED())
 80050e0:	4b3f      	ldr	r3, [pc, #252]	@ (80051e0 <HAL_RCCEx_PeriphCLKConfig+0x110>)
 80050e2:	69db      	ldr	r3, [r3, #28]
 80050e4:	f013 5f80 	tst.w	r3, #268435456	@ 0x10000000
 80050e8:	d149      	bne.n	800517e <HAL_RCCEx_PeriphCLKConfig+0xae>
    {
      __HAL_RCC_PWR_CLK_ENABLE();
 80050ea:	4b3d      	ldr	r3, [pc, #244]	@ (80051e0 <HAL_RCCEx_PeriphCLKConfig+0x110>)
 80050ec:	69da      	ldr	r2, [r3, #28]
 80050ee:	f042 5280 	orr.w	r2, r2, #268435456	@ 0x10000000
 80050f2:	61da      	str	r2, [r3, #28]
 80050f4:	69db      	ldr	r3, [r3, #28]
 80050f6:	f003 5380 	and.w	r3, r3, #268435456	@ 0x10000000
 80050fa:	9301      	str	r3, [sp, #4]
 80050fc:	9b01      	ldr	r3, [sp, #4]
      pwrclkchanged = SET;
 80050fe:	2501      	movs	r5, #1
    }

    if (HAL_IS_BIT_CLR(PWR->CR, PWR_CR_DBP))
 8005100:	4b38      	ldr	r3, [pc, #224]	@ (80051e4 <HAL_RCCEx_PeriphCLKConfig+0x114>)
 8005102:	681b      	ldr	r3, [r3, #0]
 8005104:	f413 7f80 	tst.w	r3, #256	@ 0x100
 8005108:	d03b      	beq.n	8005182 <HAL_RCCEx_PeriphCLKConfig+0xb2>
        }
      }
    }

    /* Reset the Backup domain only if the RTC Clock source selection is modified from reset value */
    temp_reg = (RCC->BDCR & RCC_BDCR_RTCSEL);
 800510a:	4b35      	ldr	r3, [pc, #212]	@ (80051e0 <HAL_RCCEx_PeriphCLKConfig+0x110>)
 800510c:	6a1b      	ldr	r3, [r3, #32]
    if ((temp_reg != 0x00000000U) && (temp_reg != (PeriphClkInit->RTCClockSelection & RCC_BDCR_RTCSEL)))
 800510e:	f413 7340 	ands.w	r3, r3, #768	@ 0x300
 8005112:	d013      	beq.n	800513c <HAL_RCCEx_PeriphCLKConfig+0x6c>
 8005114:	6862      	ldr	r2, [r4, #4]
 8005116:	f402 7240 	and.w	r2, r2, #768	@ 0x300
 800511a:	429a      	cmp	r2, r3
 800511c:	d00e      	beq.n	800513c <HAL_RCCEx_PeriphCLKConfig+0x6c>
    {
      /* Store the content of BDCR register before the reset of Backup Domain */
      temp_reg = (RCC->BDCR & ~(RCC_BDCR_RTCSEL));
 800511e:	4a30      	ldr	r2, [pc, #192]	@ (80051e0 <HAL_RCCEx_PeriphCLKConfig+0x110>)
 8005120:	6a13      	ldr	r3, [r2, #32]
 8005122:	f423 7040 	bic.w	r0, r3, #768	@ 0x300
      /* RTC Clock selection can be changed only if the Backup Domain is reset */
      __HAL_RCC_BACKUPRESET_FORCE();
 8005126:	4930      	ldr	r1, [pc, #192]	@ (80051e8 <HAL_RCCEx_PeriphCLKConfig+0x118>)
 8005128:	2601      	movs	r6, #1
 800512a:	f8c1 6440 	str.w	r6, [r1, #1088]	@ 0x440
      __HAL_RCC_BACKUPRESET_RELEASE();
 800512e:	2600      	movs	r6, #0
 8005130:	f8c1 6440 	str.w	r6, [r1, #1088]	@ 0x440
      /* Restore the Content of BDCR register */
      RCC->BDCR = temp_reg;
 8005134:	6210      	str	r0, [r2, #32]

      /* Wait for LSERDY if LSE was enabled */
      if (HAL_IS_BIT_SET(temp_reg, RCC_BDCR_LSEON))
 8005136:	f013 0f01 	tst.w	r3, #1
 800513a:	d136      	bne.n	80051aa <HAL_RCCEx_PeriphCLKConfig+0xda>
            return HAL_TIMEOUT;
          }
        }
      }
    }
    __HAL_RCC_RTC_CONFIG(PeriphClkInit->RTCClockSelection);
 800513c:	4a28      	ldr	r2, [pc, #160]	@ (80051e0 <HAL_RCCEx_PeriphCLKConfig+0x110>)
 800513e:	6a13      	ldr	r3, [r2, #32]
 8005140:	f423 7340 	bic.w	r3, r3, #768	@ 0x300
 8005144:	6861      	ldr	r1, [r4, #4]
 8005146:	430b      	orrs	r3, r1
 8005148:	6213      	str	r3, [r2, #32]

    /* Require to disable power clock if necessary */
    if (pwrclkchanged == SET)
 800514a:	2d00      	cmp	r5, #0
 800514c:	d13e      	bne.n	80051cc <HAL_RCCEx_PeriphCLKConfig+0xfc>
      __HAL_RCC_PWR_CLK_DISABLE();
    }
  }

  /*------------------------------ ADC clock Configuration ------------------*/
  if (((PeriphClkInit->PeriphClockSelection) & RCC_PERIPHCLK_ADC) == RCC_PERIPHCLK_ADC)
 800514e:	6823      	ldr	r3, [r4, #0]
 8005150:	f013 0f02 	tst.w	r3, #2
 8005154:	d006      	beq.n	8005164 <HAL_RCCEx_PeriphCLKConfig+0x94>
  {
    /* Check the parameters */
    assert_param(IS_RCC_ADCPLLCLK_DIV(PeriphClkInit->AdcClockSelection));

    /* Configure the ADC clock source */
    __HAL_RCC_ADC_CONFIG(PeriphClkInit->AdcClockSelection);
 8005156:	4a22      	ldr	r2, [pc, #136]	@ (80051e0 <HAL_RCCEx_PeriphCLKConfig+0x110>)
 8005158:	6853      	ldr	r3, [r2, #4]
 800515a:	f423 4340 	bic.w	r3, r3, #49152	@ 0xc000
 800515e:	68a1      	ldr	r1, [r4, #8]
 8005160:	430b      	orrs	r3, r1
 8005162:	6053      	str	r3, [r2, #4]

#if defined(STM32F102x6) || defined(STM32F102xB) || defined(STM32F103x6)\
 || defined(STM32F103xB) || defined(STM32F103xE) || defined(STM32F103xG)\
 || defined(STM32F105xC) || defined(STM32F107xC)
  /*------------------------------ USB clock Configuration ------------------*/
  if (((PeriphClkInit->PeriphClockSelection) & RCC_PERIPHCLK_USB) == RCC_PERIPHCLK_USB)
 8005164:	6823      	ldr	r3, [r4, #0]
 8005166:	f013 0f10 	tst.w	r3, #16
 800516a:	d034      	beq.n	80051d6 <HAL_RCCEx_PeriphCLKConfig+0x106>
  {
    /* Check the parameters */
    assert_param(IS_RCC_USBPLLCLK_DIV(PeriphClkInit->UsbClockSelection));

    /* Configure the USB clock source */
    __HAL_RCC_USB_CONFIG(PeriphClkInit->UsbClockSelection);
 800516c:	4a1c      	ldr	r2, [pc, #112]	@ (80051e0 <HAL_RCCEx_PeriphCLKConfig+0x110>)
 800516e:	6853      	ldr	r3, [r2, #4]
 8005170:	f423 0380 	bic.w	r3, r3, #4194304	@ 0x400000
 8005174:	68e1      	ldr	r1, [r4, #12]
 8005176:	430b      	orrs	r3, r1
 8005178:	6053      	str	r3, [r2, #4]
  }
#endif /* STM32F102x6 || STM32F102xB || STM32F103x6 || STM32F103xB || STM32F103xE || STM32F103xG || STM32F105xC || STM32F107xC */

  return HAL_OK;
 800517a:	2000      	movs	r0, #0
 800517c:	e02c      	b.n	80051d8 <HAL_RCCEx_PeriphCLKConfig+0x108>
    FlagStatus pwrclkchanged = RESET;
 800517e:	2500      	movs	r5, #0
 8005180:	e7be      	b.n	8005100 <HAL_RCCEx_PeriphCLKConfig+0x30>
      SET_BIT(PWR->CR, PWR_CR_DBP);
 8005182:	4a18      	ldr	r2, [pc, #96]	@ (80051e4 <HAL_RCCEx_PeriphCLKConfig+0x114>)
 8005184:	6813      	ldr	r3, [r2, #0]
 8005186:	f443 7380 	orr.w	r3, r3, #256	@ 0x100
 800518a:	6013      	str	r3, [r2, #0]
      tickstart = HAL_GetTick();
 800518c:	f7fe faa8 	bl	80036e0 <HAL_GetTick>
 8005190:	4606      	mov	r6, r0
      while (HAL_IS_BIT_CLR(PWR->CR, PWR_CR_DBP))
 8005192:	4f14      	ldr	r7, [pc, #80]	@ (80051e4 <HAL_RCCEx_PeriphCLKConfig+0x114>)
 8005194:	683b      	ldr	r3, [r7, #0]
 8005196:	f413 7f80 	tst.w	r3, #256	@ 0x100
 800519a:	d1b6      	bne.n	800510a <HAL_RCCEx_PeriphCLKConfig+0x3a>
        if ((HAL_GetTick() - tickstart) > RCC_DBP_TIMEOUT_VALUE)
 800519c:	f7fe faa0 	bl	80036e0 <HAL_GetTick>
 80051a0:	1b80      	subs	r0, r0, r6
 80051a2:	2864      	cmp	r0, #100	@ 0x64
 80051a4:	d9f6      	bls.n	8005194 <HAL_RCCEx_PeriphCLKConfig+0xc4>
          return HAL_TIMEOUT;
 80051a6:	2003      	movs	r0, #3
 80051a8:	e016      	b.n	80051d8 <HAL_RCCEx_PeriphCLKConfig+0x108>
        tickstart = HAL_GetTick();
 80051aa:	f7fe fa99 	bl	80036e0 <HAL_GetTick>
 80051ae:	4606      	mov	r6, r0
        while (__HAL_RCC_GET_FLAG(RCC_FLAG_LSERDY) == RESET)
 80051b0:	4f0b      	ldr	r7, [pc, #44]	@ (80051e0 <HAL_RCCEx_PeriphCLKConfig+0x110>)
          if ((HAL_GetTick() - tickstart) > RCC_LSE_TIMEOUT_VALUE)
 80051b2:	f241 3888 	movw	r8, #5000	@ 0x1388
        while (__HAL_RCC_GET_FLAG(RCC_FLAG_LSERDY) == RESET)
 80051b6:	6a3b      	ldr	r3, [r7, #32]
 80051b8:	f013 0f02 	tst.w	r3, #2
 80051bc:	d1be      	bne.n	800513c <HAL_RCCEx_PeriphCLKConfig+0x6c>
          if ((HAL_GetTick() - tickstart) > RCC_LSE_TIMEOUT_VALUE)
 80051be:	f7fe fa8f 	bl	80036e0 <HAL_GetTick>
 80051c2:	1b80      	subs	r0, r0, r6
 80051c4:	4540      	cmp	r0, r8
 80051c6:	d9f6      	bls.n	80051b6 <HAL_RCCEx_PeriphCLKConfig+0xe6>
            return HAL_TIMEOUT;
 80051c8:	2003      	movs	r0, #3
 80051ca:	e005      	b.n	80051d8 <HAL_RCCEx_PeriphCLKConfig+0x108>
      __HAL_RCC_PWR_CLK_DISABLE();
 80051cc:	69d3      	ldr	r3, [r2, #28]
 80051ce:	f023 5380 	bic.w	r3, r3, #268435456	@ 0x10000000
 80051d2:	61d3      	str	r3, [r2, #28]
 80051d4:	e7bb      	b.n	800514e <HAL_RCCEx_PeriphCLKConfig+0x7e>
  return HAL_OK;
 80051d6:	2000      	movs	r0, #0
}
 80051d8:	b002      	add	sp, #8
 80051da:	e8bd 81f0 	ldmia.w	sp!, {r4, r5, r6, r7, r8, pc}
 80051de:	bf00      	nop
 80051e0:	40021000 	.word	0x40021000
 80051e4:	40007000 	.word	0x40007000
 80051e8:	42420000 	.word	0x42420000

080051ec <TIM_OC1_SetConfig>:
  * @param  TIMx to select the TIM peripheral
  * @param  OC_Config The output configuration structure
  * @retval None
  */
static void TIM_OC1_SetConfig(TIM_TypeDef *TIMx, const TIM_OC_InitTypeDef *OC_Config)
{
 80051ec:	b470      	push	{r4, r5, r6}
  uint32_t tmpccmrx;
  uint32_t tmpccer;
  uint32_t tmpcr2;

  /* Get the TIMx CCER register value */
  tmpccer = TIMx->CCER;
 80051ee:	6a03      	ldr	r3, [r0, #32]

  /* Disable the Channel 1: Reset the CC1E Bit */
  TIMx->CCER &= ~TIM_CCER_CC1E;
 80051f0:	6a02      	ldr	r2, [r0, #32]
 80051f2:	f022 0201 	bic.w	r2, r2, #1
 80051f6:	6202      	str	r2, [r0, #32]

  /* Get the TIMx CR2 register value */
  tmpcr2 =  TIMx->CR2;
 80051f8:	6844      	ldr	r4, [r0, #4]

  /* Get the TIMx CCMR1 register value */
  tmpccmrx = TIMx->CCMR1;
 80051fa:	6982      	ldr	r2, [r0, #24]

  /* Reset the Output Compare Mode Bits */
  tmpccmrx &= ~TIM_CCMR1_OC1M;
  tmpccmrx &= ~TIM_CCMR1_CC1S;
 80051fc:	f022 0273 	bic.w	r2, r2, #115	@ 0x73
  /* Select the Output Compare Mode */
  tmpccmrx |= OC_Config->OCMode;
 8005200:	680d      	ldr	r5, [r1, #0]
 8005202:	432a      	orrs	r2, r5

  /* Reset the Output Polarity level */
  tmpccer &= ~TIM_CCER_CC1P;
 8005204:	f023 0302 	bic.w	r3, r3, #2
  /* Set the Output Compare Polarity */
  tmpccer |= OC_Config->OCPolarity;
 8005208:	688d      	ldr	r5, [r1, #8]
 800520a:	432b      	orrs	r3, r5

  if (IS_TIM_CCXN_INSTANCE(TIMx, TIM_CHANNEL_1))
 800520c:	4d0b      	ldr	r5, [pc, #44]	@ (800523c <TIM_OC1_SetConfig+0x50>)
 800520e:	42a8      	cmp	r0, r5
 8005210:	d006      	beq.n	8005220 <TIM_OC1_SetConfig+0x34>
    /* Set the Output N Idle state */
    tmpcr2 |= OC_Config->OCNIdleState;
  }

  /* Write to TIMx CR2 */
  TIMx->CR2 = tmpcr2;
 8005212:	6044      	str	r4, [r0, #4]

  /* Write to TIMx CCMR1 */
  TIMx->CCMR1 = tmpccmrx;
 8005214:	6182      	str	r2, [r0, #24]

  /* Set the Capture Compare Register value */
  TIMx->CCR1 = OC_Config->Pulse;
 8005216:	684a      	ldr	r2, [r1, #4]
 8005218:	6342      	str	r2, [r0, #52]	@ 0x34

  /* Write to TIMx CCER */
  TIMx->CCER = tmpccer;
 800521a:	6203      	str	r3, [r0, #32]
}
 800521c:	bc70      	pop	{r4, r5, r6}
 800521e:	4770      	bx	lr
    tmpccer &= ~TIM_CCER_CC1NP;
 8005220:	f023 0308 	bic.w	r3, r3, #8
    tmpccer |= OC_Config->OCNPolarity;
 8005224:	68cd      	ldr	r5, [r1, #12]
 8005226:	432b      	orrs	r3, r5
    tmpccer &= ~TIM_CCER_CC1NE;
 8005228:	f023 0304 	bic.w	r3, r3, #4
    tmpcr2 &= ~TIM_CR2_OIS1N;
 800522c:	f424 7440 	bic.w	r4, r4, #768	@ 0x300
    tmpcr2 |= OC_Config->OCNIdleState;
 8005230:	694d      	ldr	r5, [r1, #20]
 8005232:	698e      	ldr	r6, [r1, #24]
 8005234:	4335      	orrs	r5, r6
 8005236:	432c      	orrs	r4, r5
 8005238:	e7eb      	b.n	8005212 <TIM_OC1_SetConfig+0x26>
 800523a:	bf00      	nop
 800523c:	40012c00 	.word	0x40012c00

08005240 <TIM_OC3_SetConfig>:
  * @param  TIMx to select the TIM peripheral
  * @param  OC_Config The output configuration structure
  * @retval None
  */
static void TIM_OC3_SetConfig(TIM_TypeDef *TIMx, const TIM_OC_InitTypeDef *OC_Config)
{
 8005240:	b470      	push	{r4, r5, r6}
  uint32_t tmpccmrx;
  uint32_t tmpccer;
  uint32_t tmpcr2;

  /* Get the TIMx CCER register value */
  tmpccer = TIMx->CCER;
 8005242:	6a03      	ldr	r3, [r0, #32]

  /* Disable the Channel 3: Reset the CC2E Bit */
  TIMx->CCER &= ~TIM_CCER_CC3E;
 8005244:	6a02      	ldr	r2, [r0, #32]
 8005246:	f422 7280 	bic.w	r2, r2, #256	@ 0x100
 800524a:	6202      	str	r2, [r0, #32]

  /* Get the TIMx CR2 register value */
  tmpcr2 =  TIMx->CR2;
 800524c:	6844      	ldr	r4, [r0, #4]

  /* Get the TIMx CCMR2 register value */
  tmpccmrx = TIMx->CCMR2;
 800524e:	69c2      	ldr	r2, [r0, #28]

  /* Reset the Output Compare mode and Capture/Compare selection Bits */
  tmpccmrx &= ~TIM_CCMR2_OC3M;
  tmpccmrx &= ~TIM_CCMR2_CC3S;
 8005250:	f022 0273 	bic.w	r2, r2, #115	@ 0x73
  /* Select the Output Compare Mode */
  tmpccmrx |= OC_Config->OCMode;
 8005254:	680d      	ldr	r5, [r1, #0]
 8005256:	432a      	orrs	r2, r5

  /* Reset the Output Polarity level */
  tmpccer &= ~TIM_CCER_CC3P;
 8005258:	f423 7300 	bic.w	r3, r3, #512	@ 0x200
  /* Set the Output Compare Polarity */
  tmpccer |= (OC_Config->OCPolarity << 8U);
 800525c:	688d      	ldr	r5, [r1, #8]
 800525e:	ea43 2305 	orr.w	r3, r3, r5, lsl #8

  if (IS_TIM_CCXN_INSTANCE(TIMx, TIM_CHANNEL_3))
 8005262:	4d0c      	ldr	r5, [pc, #48]	@ (8005294 <TIM_OC3_SetConfig+0x54>)
 8005264:	42a8      	cmp	r0, r5
 8005266:	d006      	beq.n	8005276 <TIM_OC3_SetConfig+0x36>
    /* Set the Output N Idle state */
    tmpcr2 |= (OC_Config->OCNIdleState << 4U);
  }

  /* Write to TIMx CR2 */
  TIMx->CR2 = tmpcr2;
 8005268:	6044      	str	r4, [r0, #4]

  /* Write to TIMx CCMR2 */
  TIMx->CCMR2 = tmpccmrx;
 800526a:	61c2      	str	r2, [r0, #28]

  /* Set the Capture Compare Register value */
  TIMx->CCR3 = OC_Config->Pulse;
 800526c:	684a      	ldr	r2, [r1, #4]
 800526e:	63c2      	str	r2, [r0, #60]	@ 0x3c

  /* Write to TIMx CCER */
  TIMx->CCER = tmpccer;
 8005270:	6203      	str	r3, [r0, #32]
}
 8005272:	bc70      	pop	{r4, r5, r6}
 8005274:	4770      	bx	lr
    tmpccer &= ~TIM_CCER_CC3NP;
 8005276:	f423 6300 	bic.w	r3, r3, #2048	@ 0x800
    tmpccer |= (OC_Config->OCNPolarity << 8U);
 800527a:	68cd      	ldr	r5, [r1, #12]
 800527c:	ea43 2305 	orr.w	r3, r3, r5, lsl #8
    tmpccer &= ~TIM_CCER_CC3NE;
 8005280:	f423 6380 	bic.w	r3, r3, #1024	@ 0x400
    tmpcr2 &= ~TIM_CR2_OIS3N;
 8005284:	f424 5440 	bic.w	r4, r4, #12288	@ 0x3000
    tmpcr2 |= (OC_Config->OCIdleState << 4U);
 8005288:	694d      	ldr	r5, [r1, #20]
    tmpcr2 |= (OC_Config->OCNIdleState << 4U);
 800528a:	698e      	ldr	r6, [r1, #24]
 800528c:	4335      	orrs	r5, r6
 800528e:	ea44 1405 	orr.w	r4, r4, r5, lsl #4
 8005292:	e7e9      	b.n	8005268 <TIM_OC3_SetConfig+0x28>
 8005294:	40012c00 	.word	0x40012c00

08005298 <TIM_OC4_SetConfig>:
  * @param  TIMx to select the TIM peripheral
  * @param  OC_Config The output configuration structure
  * @retval None
  */
static void TIM_OC4_SetConfig(TIM_TypeDef *TIMx, const TIM_OC_InitTypeDef *OC_Config)
{
 8005298:	b430      	push	{r4, r5}
  uint32_t tmpccmrx;
  uint32_t tmpccer;
  uint32_t tmpcr2;

  /* Get the TIMx CCER register value */
  tmpccer = TIMx->CCER;
 800529a:	6a03      	ldr	r3, [r0, #32]

  /* Disable the Channel 4: Reset the CC4E Bit */
  TIMx->CCER &= ~TIM_CCER_CC4E;
 800529c:	6a02      	ldr	r2, [r0, #32]
 800529e:	f422 5280 	bic.w	r2, r2, #4096	@ 0x1000
 80052a2:	6202      	str	r2, [r0, #32]

  /* Get the TIMx CR2 register value */
  tmpcr2 =  TIMx->CR2;
 80052a4:	6844      	ldr	r4, [r0, #4]

  /* Get the TIMx CCMR2 register value */
  tmpccmrx = TIMx->CCMR2;
 80052a6:	69c2      	ldr	r2, [r0, #28]

  /* Reset the Output Compare mode and Capture/Compare selection Bits */
  tmpccmrx &= ~TIM_CCMR2_OC4M;
  tmpccmrx &= ~TIM_CCMR2_CC4S;
 80052a8:	f422 42e6 	bic.w	r2, r2, #29440	@ 0x7300

  /* Select the Output Compare Mode */
  tmpccmrx |= (OC_Config->OCMode << 8U);
 80052ac:	680d      	ldr	r5, [r1, #0]
 80052ae:	ea42 2205 	orr.w	r2, r2, r5, lsl #8

  /* Reset the Output Polarity level */
  tmpccer &= ~TIM_CCER_CC4P;
 80052b2:	f423 5300 	bic.w	r3, r3, #8192	@ 0x2000
  /* Set the Output Compare Polarity */
  tmpccer |= (OC_Config->OCPolarity << 12U);
 80052b6:	688d      	ldr	r5, [r1, #8]
 80052b8:	ea43 3305 	orr.w	r3, r3, r5, lsl #12

  if (IS_TIM_BREAK_INSTANCE(TIMx))
 80052bc:	4d07      	ldr	r5, [pc, #28]	@ (80052dc <TIM_OC4_SetConfig+0x44>)
 80052be:	42a8      	cmp	r0, r5
 80052c0:	d006      	beq.n	80052d0 <TIM_OC4_SetConfig+0x38>
    /* Set the Output Idle state */
    tmpcr2 |= (OC_Config->OCIdleState << 6U);
  }

  /* Write to TIMx CR2 */
  TIMx->CR2 = tmpcr2;
 80052c2:	6044      	str	r4, [r0, #4]

  /* Write to TIMx CCMR2 */
  TIMx->CCMR2 = tmpccmrx;
 80052c4:	61c2      	str	r2, [r0, #28]

  /* Set the Capture Compare Register value */
  TIMx->CCR4 = OC_Config->Pulse;
 80052c6:	684a      	ldr	r2, [r1, #4]
 80052c8:	6402      	str	r2, [r0, #64]	@ 0x40

  /* Write to TIMx CCER */
  TIMx->CCER = tmpccer;
 80052ca:	6203      	str	r3, [r0, #32]
}
 80052cc:	bc30      	pop	{r4, r5}
 80052ce:	4770      	bx	lr
    tmpcr2 &= ~TIM_CR2_OIS4;
 80052d0:	f424 4480 	bic.w	r4, r4, #16384	@ 0x4000
    tmpcr2 |= (OC_Config->OCIdleState << 6U);
 80052d4:	694d      	ldr	r5, [r1, #20]
 80052d6:	ea44 1485 	orr.w	r4, r4, r5, lsl #6
 80052da:	e7f2      	b.n	80052c2 <TIM_OC4_SetConfig+0x2a>
 80052dc:	40012c00 	.word	0x40012c00

080052e0 <HAL_TIM_Base_Start>:
  if (htim->State != HAL_TIM_STATE_READY)
 80052e0:	f890 303d 	ldrb.w	r3, [r0, #61]	@ 0x3d
 80052e4:	b2db      	uxtb	r3, r3
 80052e6:	2b01      	cmp	r3, #1
 80052e8:	d122      	bne.n	8005330 <HAL_TIM_Base_Start+0x50>
  htim->State = HAL_TIM_STATE_BUSY;
 80052ea:	2302      	movs	r3, #2
 80052ec:	f880 303d 	strb.w	r3, [r0, #61]	@ 0x3d
  if (IS_TIM_SLAVE_INSTANCE(htim->Instance))
 80052f0:	6803      	ldr	r3, [r0, #0]
 80052f2:	4a11      	ldr	r2, [pc, #68]	@ (8005338 <HAL_TIM_Base_Start+0x58>)
 80052f4:	4293      	cmp	r3, r2
 80052f6:	d010      	beq.n	800531a <HAL_TIM_Base_Start+0x3a>
 80052f8:	f1b3 4f80 	cmp.w	r3, #1073741824	@ 0x40000000
 80052fc:	d00d      	beq.n	800531a <HAL_TIM_Base_Start+0x3a>
 80052fe:	f5a2 3294 	sub.w	r2, r2, #75776	@ 0x12800
 8005302:	4293      	cmp	r3, r2
 8005304:	d009      	beq.n	800531a <HAL_TIM_Base_Start+0x3a>
 8005306:	f502 6280 	add.w	r2, r2, #1024	@ 0x400
 800530a:	4293      	cmp	r3, r2
 800530c:	d005      	beq.n	800531a <HAL_TIM_Base_Start+0x3a>
    __HAL_TIM_ENABLE(htim);
 800530e:	681a      	ldr	r2, [r3, #0]
 8005310:	f042 0201 	orr.w	r2, r2, #1
 8005314:	601a      	str	r2, [r3, #0]
  return HAL_OK;
 8005316:	2000      	movs	r0, #0
 8005318:	4770      	bx	lr
    tmpsmcr = htim->Instance->SMCR & TIM_SMCR_SMS;
 800531a:	689a      	ldr	r2, [r3, #8]
 800531c:	f002 0207 	and.w	r2, r2, #7
    if (!IS_TIM_SLAVEMODE_TRIGGER_ENABLED(tmpsmcr))
 8005320:	2a06      	cmp	r2, #6
 8005322:	d007      	beq.n	8005334 <HAL_TIM_Base_Start+0x54>
      __HAL_TIM_ENABLE(htim);
 8005324:	681a      	ldr	r2, [r3, #0]
 8005326:	f042 0201 	orr.w	r2, r2, #1
 800532a:	601a      	str	r2, [r3, #0]
  return HAL_OK;
 800532c:	2000      	movs	r0, #0
 800532e:	4770      	bx	lr
    return HAL_ERROR;
 8005330:	2001      	movs	r0, #1
 8005332:	4770      	bx	lr
  return HAL_OK;
 8005334:	2000      	movs	r0, #0
}
 8005336:	4770      	bx	lr
 8005338:	40012c00 	.word	0x40012c00

0800533c <HAL_TIM_Base_Start_IT>:
  if (htim->State != HAL_TIM_STATE_READY)
 800533c:	f890 303d 	ldrb.w	r3, [r0, #61]	@ 0x3d
 8005340:	b2db      	uxtb	r3, r3
 8005342:	2b01      	cmp	r3, #1
 8005344:	d127      	bne.n	8005396 <HAL_TIM_Base_Start_IT+0x5a>
  htim->State = HAL_TIM_STATE_BUSY;
 8005346:	2302      	movs	r3, #2
 8005348:	f880 303d 	strb.w	r3, [r0, #61]	@ 0x3d
  __HAL_TIM_ENABLE_IT(htim, TIM_IT_UPDATE);
 800534c:	6802      	ldr	r2, [r0, #0]
 800534e:	68d3      	ldr	r3, [r2, #12]
 8005350:	f043 0301 	orr.w	r3, r3, #1
 8005354:	60d3      	str	r3, [r2, #12]
  if (IS_TIM_SLAVE_INSTANCE(htim->Instance))
 8005356:	6803      	ldr	r3, [r0, #0]
 8005358:	4a11      	ldr	r2, [pc, #68]	@ (80053a0 <HAL_TIM_Base_Start_IT+0x64>)
 800535a:	4293      	cmp	r3, r2
 800535c:	d010      	beq.n	8005380 <HAL_TIM_Base_Start_IT+0x44>
 800535e:	f1b3 4f80 	cmp.w	r3, #1073741824	@ 0x40000000
 8005362:	d00d      	beq.n	8005380 <HAL_TIM_Base_Start_IT+0x44>
 8005364:	f5a2 3294 	sub.w	r2, r2, #75776	@ 0x12800
 8005368:	4293      	cmp	r3, r2
 800536a:	d009      	beq.n	8005380 <HAL_TIM_Base_Start_IT+0x44>
 800536c:	f502 6280 	add.w	r2, r2, #1024	@ 0x400
 8005370:	4293      	cmp	r3, r2
 8005372:	d005      	beq.n	8005380 <HAL_TIM_Base_Start_IT+0x44>
    __HAL_TIM_ENABLE(htim);
 8005374:	681a      	ldr	r2, [r3, #0]
 8005376:	f042 0201 	orr.w	r2, r2, #1
 800537a:	601a      	str	r2, [r3, #0]
  return HAL_OK;
 800537c:	2000      	movs	r0, #0
 800537e:	4770      	bx	lr
    tmpsmcr = htim->Instance->SMCR & TIM_SMCR_SMS;
 8005380:	689a      	ldr	r2, [r3, #8]
 8005382:	f002 0207 	and.w	r2, r2, #7
    if (!IS_TIM_SLAVEMODE_TRIGGER_ENABLED(tmpsmcr))
 8005386:	2a06      	cmp	r2, #6
 8005388:	d007      	beq.n	800539a <HAL_TIM_Base_Start_IT+0x5e>
      __HAL_TIM_ENABLE(htim);
 800538a:	681a      	ldr	r2, [r3, #0]
 800538c:	f042 0201 	orr.w	r2, r2, #1
 8005390:	601a      	str	r2, [r3, #0]
  return HAL_OK;
 8005392:	2000      	movs	r0, #0
 8005394:	4770      	bx	lr
    return HAL_ERROR;
 8005396:	2001      	movs	r0, #1
 8005398:	4770      	bx	lr
  return HAL_OK;
 800539a:	2000      	movs	r0, #0
}
 800539c:	4770      	bx	lr
 800539e:	bf00      	nop
 80053a0:	40012c00 	.word	0x40012c00

080053a4 <HAL_TIM_OC_MspInit>:
}
 80053a4:	4770      	bx	lr

080053a6 <HAL_TIM_PWM_MspInit>:
}
 80053a6:	4770      	bx	lr

080053a8 <HAL_TIM_PeriodElapsedCallback>:
}
 80053a8:	4770      	bx	lr

080053aa <HAL_TIM_OC_DelayElapsedCallback>:
}
 80053aa:	4770      	bx	lr

080053ac <HAL_TIM_IC_CaptureCallback>:
}
 80053ac:	4770      	bx	lr

080053ae <HAL_TIM_PWM_PulseFinishedCallback>:
}
 80053ae:	4770      	bx	lr

080053b0 <HAL_TIM_TriggerCallback>:
}
 80053b0:	4770      	bx	lr

080053b2 <HAL_TIM_IRQHandler>:
{
 80053b2:	b510      	push	{r4, lr}
 80053b4:	4604      	mov	r4, r0
  if (__HAL_TIM_GET_FLAG(htim, TIM_FLAG_CC1) != RESET)
 80053b6:	6803      	ldr	r3, [r0, #0]
 80053b8:	691a      	ldr	r2, [r3, #16]
 80053ba:	f012 0f02 	tst.w	r2, #2
 80053be:	d011      	beq.n	80053e4 <HAL_TIM_IRQHandler+0x32>
    if (__HAL_TIM_GET_IT_SOURCE(htim, TIM_IT_CC1) != RESET)
 80053c0:	68da      	ldr	r2, [r3, #12]
 80053c2:	f012 0f02 	tst.w	r2, #2
 80053c6:	d00d      	beq.n	80053e4 <HAL_TIM_IRQHandler+0x32>
        __HAL_TIM_CLEAR_IT(htim, TIM_IT_CC1);
 80053c8:	f06f 0202 	mvn.w	r2, #2
 80053cc:	611a      	str	r2, [r3, #16]
        htim->Channel = HAL_TIM_ACTIVE_CHANNEL_1;
 80053ce:	2301      	movs	r3, #1
 80053d0:	7703      	strb	r3, [r0, #28]
        if ((htim->Instance->CCMR1 & TIM_CCMR1_CC1S) != 0x00U)
 80053d2:	6803      	ldr	r3, [r0, #0]
 80053d4:	699b      	ldr	r3, [r3, #24]
 80053d6:	f013 0f03 	tst.w	r3, #3
 80053da:	d070      	beq.n	80054be <HAL_TIM_IRQHandler+0x10c>
          HAL_TIM_IC_CaptureCallback(htim);
 80053dc:	f7ff ffe6 	bl	80053ac <HAL_TIM_IC_CaptureCallback>
        htim->Channel = HAL_TIM_ACTIVE_CHANNEL_CLEARED;
 80053e0:	2300      	movs	r3, #0
 80053e2:	7723      	strb	r3, [r4, #28]
  if (__HAL_TIM_GET_FLAG(htim, TIM_FLAG_CC2) != RESET)
 80053e4:	6823      	ldr	r3, [r4, #0]
 80053e6:	691a      	ldr	r2, [r3, #16]
 80053e8:	f012 0f04 	tst.w	r2, #4
 80053ec:	d012      	beq.n	8005414 <HAL_TIM_IRQHandler+0x62>
    if (__HAL_TIM_GET_IT_SOURCE(htim, TIM_IT_CC2) != RESET)
 80053ee:	68da      	ldr	r2, [r3, #12]
 80053f0:	f012 0f04 	tst.w	r2, #4
 80053f4:	d00e      	beq.n	8005414 <HAL_TIM_IRQHandler+0x62>
      __HAL_TIM_CLEAR_IT(htim, TIM_IT_CC2);
 80053f6:	f06f 0204 	mvn.w	r2, #4
 80053fa:	611a      	str	r2, [r3, #16]
      htim->Channel = HAL_TIM_ACTIVE_CHANNEL_2;
 80053fc:	2302      	movs	r3, #2
 80053fe:	7723      	strb	r3, [r4, #28]
      if ((htim->Instance->CCMR1 & TIM_CCMR1_CC2S) != 0x00U)
 8005400:	6823      	ldr	r3, [r4, #0]
 8005402:	699b      	ldr	r3, [r3, #24]
 8005404:	f413 7f40 	tst.w	r3, #768	@ 0x300
 8005408:	d05f      	beq.n	80054ca <HAL_TIM_IRQHandler+0x118>
        HAL_TIM_IC_CaptureCallback(htim);
 800540a:	4620      	mov	r0, r4
 800540c:	f7ff ffce 	bl	80053ac <HAL_TIM_IC_CaptureCallback>
      htim->Channel = HAL_TIM_ACTIVE_CHANNEL_CLEARED;
 8005410:	2300      	movs	r3, #0
 8005412:	7723      	strb	r3, [r4, #28]
  if (__HAL_TIM_GET_FLAG(htim, TIM_FLAG_CC3) != RESET)
 8005414:	6823      	ldr	r3, [r4, #0]
 8005416:	691a      	ldr	r2, [r3, #16]
 8005418:	f012 0f08 	tst.w	r2, #8
 800541c:	d012      	beq.n	8005444 <HAL_TIM_IRQHandler+0x92>
    if (__HAL_TIM_GET_IT_SOURCE(htim, TIM_IT_CC3) != RESET)
 800541e:	68da      	ldr	r2, [r3, #12]
 8005420:	f012 0f08 	tst.w	r2, #8
 8005424:	d00e      	beq.n	8005444 <HAL_TIM_IRQHandler+0x92>
      __HAL_TIM_CLEAR_IT(htim, TIM_IT_CC3);
 8005426:	f06f 0208 	mvn.w	r2, #8
 800542a:	611a      	str	r2, [r3, #16]
      htim->Channel = HAL_TIM_ACTIVE_CHANNEL_3;
 800542c:	2304      	movs	r3, #4
 800542e:	7723      	strb	r3, [r4, #28]
      if ((htim->Instance->CCMR2 & TIM_CCMR2_CC3S) != 0x00U)
 8005430:	6823      	ldr	r3, [r4, #0]
 8005432:	69db      	ldr	r3, [r3, #28]
 8005434:	f013 0f03 	tst.w	r3, #3
 8005438:	d04e      	beq.n	80054d8 <HAL_TIM_IRQHandler+0x126>
        HAL_TIM_IC_CaptureCallback(htim);
 800543a:	4620      	mov	r0, r4
 800543c:	f7ff ffb6 	bl	80053ac <HAL_TIM_IC_CaptureCallback>
      htim->Channel = HAL_TIM_ACTIVE_CHANNEL_CLEARED;
 8005440:	2300      	movs	r3, #0
 8005442:	7723      	strb	r3, [r4, #28]
  if (__HAL_TIM_GET_FLAG(htim, TIM_FLAG_CC4) != RESET)
 8005444:	6823      	ldr	r3, [r4, #0]
 8005446:	691a      	ldr	r2, [r3, #16]
 8005448:	f012 0f10 	tst.w	r2, #16
 800544c:	d012      	beq.n	8005474 <HAL_TIM_IRQHandler+0xc2>
    if (__HAL_TIM_GET_IT_SOURCE(htim, TIM_IT_CC4) != RESET)
 800544e:	68da      	ldr	r2, [r3, #12]
 8005450:	f012 0f10 	tst.w	r2, #16
 8005454:	d00e      	beq.n	8005474 <HAL_TIM_IRQHandler+0xc2>
      __HAL_TIM_CLEAR_IT(htim, TIM_IT_CC4);
 8005456:	f06f 0210 	mvn.w	r2, #16
 800545a:	611a      	str	r2, [r3, #16]
      htim->Channel = HAL_TIM_ACTIVE_CHANNEL_4;
 800545c:	2308      	movs	r3, #8
 800545e:	7723      	strb	r3, [r4, #28]
      if ((htim->Instance->CCMR2 & TIM_CCMR2_CC4S) != 0x00U)
 8005460:	6823      	ldr	r3, [r4, #0]
 8005462:	69db      	ldr	r3, [r3, #28]
 8005464:	f413 7f40 	tst.w	r3, #768	@ 0x300
 8005468:	d03d      	beq.n	80054e6 <HAL_TIM_IRQHandler+0x134>
        HAL_TIM_IC_CaptureCallback(htim);
 800546a:	4620      	mov	r0, r4
 800546c:	f7ff ff9e 	bl	80053ac <HAL_TIM_IC_CaptureCallback>
      htim->Channel = HAL_TIM_ACTIVE_CHANNEL_CLEARED;
 8005470:	2300      	movs	r3, #0
 8005472:	7723      	strb	r3, [r4, #28]
  if (__HAL_TIM_GET_FLAG(htim, TIM_FLAG_UPDATE) != RESET)
 8005474:	6823      	ldr	r3, [r4, #0]
 8005476:	691a      	ldr	r2, [r3, #16]
 8005478:	f012 0f01 	tst.w	r2, #1
 800547c:	d003      	beq.n	8005486 <HAL_TIM_IRQHandler+0xd4>
    if (__HAL_TIM_GET_IT_SOURCE(htim, TIM_IT_UPDATE) != RESET)
 800547e:	68da      	ldr	r2, [r3, #12]
 8005480:	f012 0f01 	tst.w	r2, #1
 8005484:	d136      	bne.n	80054f4 <HAL_TIM_IRQHandler+0x142>
  if (__HAL_TIM_GET_FLAG(htim, TIM_FLAG_BREAK) != RESET)
 8005486:	6823      	ldr	r3, [r4, #0]
 8005488:	691a      	ldr	r2, [r3, #16]
 800548a:	f012 0f80 	tst.w	r2, #128	@ 0x80
 800548e:	d003      	beq.n	8005498 <HAL_TIM_IRQHandler+0xe6>
    if (__HAL_TIM_GET_IT_SOURCE(htim, TIM_IT_BREAK) != RESET)
 8005490:	68da      	ldr	r2, [r3, #12]
 8005492:	f012 0f80 	tst.w	r2, #128	@ 0x80
 8005496:	d134      	bne.n	8005502 <HAL_TIM_IRQHandler+0x150>
  if (__HAL_TIM_GET_FLAG(htim, TIM_FLAG_TRIGGER) != RESET)
 8005498:	6823      	ldr	r3, [r4, #0]
 800549a:	691a      	ldr	r2, [r3, #16]
 800549c:	f012 0f40 	tst.w	r2, #64	@ 0x40
 80054a0:	d003      	beq.n	80054aa <HAL_TIM_IRQHandler+0xf8>
    if (__HAL_TIM_GET_IT_SOURCE(htim, TIM_IT_TRIGGER) != RESET)
 80054a2:	68da      	ldr	r2, [r3, #12]
 80054a4:	f012 0f40 	tst.w	r2, #64	@ 0x40
 80054a8:	d132      	bne.n	8005510 <HAL_TIM_IRQHandler+0x15e>
  if (__HAL_TIM_GET_FLAG(htim, TIM_FLAG_COM) != RESET)
 80054aa:	6823      	ldr	r3, [r4, #0]
 80054ac:	691a      	ldr	r2, [r3, #16]
 80054ae:	f012 0f20 	tst.w	r2, #32
 80054b2:	d003      	beq.n	80054bc <HAL_TIM_IRQHandler+0x10a>
    if (__HAL_TIM_GET_IT_SOURCE(htim, TIM_IT_COM) != RESET)
 80054b4:	68da      	ldr	r2, [r3, #12]
 80054b6:	f012 0f20 	tst.w	r2, #32
 80054ba:	d130      	bne.n	800551e <HAL_TIM_IRQHandler+0x16c>
}
 80054bc:	bd10      	pop	{r4, pc}
          HAL_TIM_OC_DelayElapsedCallback(htim);
 80054be:	f7ff ff74 	bl	80053aa <HAL_TIM_OC_DelayElapsedCallback>
          HAL_TIM_PWM_PulseFinishedCallback(htim);
 80054c2:	4620      	mov	r0, r4
 80054c4:	f7ff ff73 	bl	80053ae <HAL_TIM_PWM_PulseFinishedCallback>
 80054c8:	e78a      	b.n	80053e0 <HAL_TIM_IRQHandler+0x2e>
        HAL_TIM_OC_DelayElapsedCallback(htim);
 80054ca:	4620      	mov	r0, r4
 80054cc:	f7ff ff6d 	bl	80053aa <HAL_TIM_OC_DelayElapsedCallback>
        HAL_TIM_PWM_PulseFinishedCallback(htim);
 80054d0:	4620      	mov	r0, r4
 80054d2:	f7ff ff6c 	bl	80053ae <HAL_TIM_PWM_PulseFinishedCallback>
 80054d6:	e79b      	b.n	8005410 <HAL_TIM_IRQHandler+0x5e>
        HAL_TIM_OC_DelayElapsedCallback(htim);
 80054d8:	4620      	mov	r0, r4
 80054da:	f7ff ff66 	bl	80053aa <HAL_TIM_OC_DelayElapsedCallback>
        HAL_TIM_PWM_PulseFinishedCallback(htim);
 80054de:	4620      	mov	r0, r4
 80054e0:	f7ff ff65 	bl	80053ae <HAL_TIM_PWM_PulseFinishedCallback>
 80054e4:	e7ac      	b.n	8005440 <HAL_TIM_IRQHandler+0x8e>
        HAL_TIM_OC_DelayElapsedCallback(htim);
 80054e6:	4620      	mov	r0, r4
 80054e8:	f7ff ff5f 	bl	80053aa <HAL_TIM_OC_DelayElapsedCallback>
        HAL_TIM_PWM_PulseFinishedCallback(htim);
 80054ec:	4620      	mov	r0, r4
 80054ee:	f7ff ff5e 	bl	80053ae <HAL_TIM_PWM_PulseFinishedCallback>
 80054f2:	e7bd      	b.n	8005470 <HAL_TIM_IRQHandler+0xbe>
      __HAL_TIM_CLEAR_IT(htim, TIM_IT_UPDATE);
 80054f4:	f06f 0201 	mvn.w	r2, #1
 80054f8:	611a      	str	r2, [r3, #16]
      HAL_TIM_PeriodElapsedCallback(htim);
 80054fa:	4620      	mov	r0, r4
 80054fc:	f7ff ff54 	bl	80053a8 <HAL_TIM_PeriodElapsedCallback>
 8005500:	e7c1      	b.n	8005486 <HAL_TIM_IRQHandler+0xd4>
      __HAL_TIM_CLEAR_IT(htim, TIM_IT_BREAK);
 8005502:	f06f 0280 	mvn.w	r2, #128	@ 0x80
 8005506:	611a      	str	r2, [r3, #16]
      HAL_TIMEx_BreakCallback(htim);
 8005508:	4620      	mov	r0, r4
 800550a:	f000 fb3f 	bl	8005b8c <HAL_TIMEx_BreakCallback>
 800550e:	e7c3      	b.n	8005498 <HAL_TIM_IRQHandler+0xe6>
      __HAL_TIM_CLEAR_IT(htim, TIM_IT_TRIGGER);
 8005510:	f06f 0240 	mvn.w	r2, #64	@ 0x40
 8005514:	611a      	str	r2, [r3, #16]
      HAL_TIM_TriggerCallback(htim);
 8005516:	4620      	mov	r0, r4
 8005518:	f7ff ff4a 	bl	80053b0 <HAL_TIM_TriggerCallback>
 800551c:	e7c5      	b.n	80054aa <HAL_TIM_IRQHandler+0xf8>
      __HAL_TIM_CLEAR_IT(htim, TIM_FLAG_COM);
 800551e:	f06f 0220 	mvn.w	r2, #32
 8005522:	611a      	str	r2, [r3, #16]
      HAL_TIMEx_CommutCallback(htim);
 8005524:	4620      	mov	r0, r4
 8005526:	f000 fb30 	bl	8005b8a <HAL_TIMEx_CommutCallback>
}
 800552a:	e7c7      	b.n	80054bc <HAL_TIM_IRQHandler+0x10a>

0800552c <TIM_Base_SetConfig>:
  tmpcr1 = TIMx->CR1;
 800552c:	6803      	ldr	r3, [r0, #0]
  if (IS_TIM_COUNTER_MODE_SELECT_INSTANCE(TIMx))
 800552e:	4a25      	ldr	r2, [pc, #148]	@ (80055c4 <TIM_Base_SetConfig+0x98>)
 8005530:	4290      	cmp	r0, r2
 8005532:	d014      	beq.n	800555e <TIM_Base_SetConfig+0x32>
 8005534:	f1b0 4f80 	cmp.w	r0, #1073741824	@ 0x40000000
 8005538:	d026      	beq.n	8005588 <TIM_Base_SetConfig+0x5c>
 800553a:	f5a2 3294 	sub.w	r2, r2, #75776	@ 0x12800
 800553e:	4290      	cmp	r0, r2
 8005540:	d036      	beq.n	80055b0 <TIM_Base_SetConfig+0x84>
 8005542:	f502 6280 	add.w	r2, r2, #1024	@ 0x400
 8005546:	4290      	cmp	r0, r2
 8005548:	d037      	beq.n	80055ba <TIM_Base_SetConfig+0x8e>
  MODIFY_REG(tmpcr1, TIM_CR1_ARPE, Structure->AutoReloadPreload);
 800554a:	f023 0380 	bic.w	r3, r3, #128	@ 0x80
 800554e:	694a      	ldr	r2, [r1, #20]
 8005550:	4313      	orrs	r3, r2
  TIMx->CR1 = tmpcr1;
 8005552:	6003      	str	r3, [r0, #0]
  TIMx->ARR = (uint32_t)Structure->Period ;
 8005554:	688b      	ldr	r3, [r1, #8]
 8005556:	62c3      	str	r3, [r0, #44]	@ 0x2c
  TIMx->PSC = Structure->Prescaler;
 8005558:	680b      	ldr	r3, [r1, #0]
 800555a:	6283      	str	r3, [r0, #40]	@ 0x28
  if (IS_TIM_REPETITION_COUNTER_INSTANCE(TIMx))
 800555c:	e025      	b.n	80055aa <TIM_Base_SetConfig+0x7e>
    tmpcr1 &= ~(TIM_CR1_DIR | TIM_CR1_CMS);
 800555e:	f023 0370 	bic.w	r3, r3, #112	@ 0x70
    tmpcr1 |= Structure->CounterMode;
 8005562:	684a      	ldr	r2, [r1, #4]
 8005564:	4313      	orrs	r3, r2
    tmpcr1 &= ~TIM_CR1_CKD;
 8005566:	f423 7340 	bic.w	r3, r3, #768	@ 0x300
    tmpcr1 |= (uint32_t)Structure->ClockDivision;
 800556a:	68ca      	ldr	r2, [r1, #12]
 800556c:	4313      	orrs	r3, r2
  MODIFY_REG(tmpcr1, TIM_CR1_ARPE, Structure->AutoReloadPreload);
 800556e:	f023 0380 	bic.w	r3, r3, #128	@ 0x80
 8005572:	694a      	ldr	r2, [r1, #20]
 8005574:	4313      	orrs	r3, r2
  TIMx->CR1 = tmpcr1;
 8005576:	6003      	str	r3, [r0, #0]
  TIMx->ARR = (uint32_t)Structure->Period ;
 8005578:	688b      	ldr	r3, [r1, #8]
 800557a:	62c3      	str	r3, [r0, #44]	@ 0x2c
  TIMx->PSC = Structure->Prescaler;
 800557c:	680b      	ldr	r3, [r1, #0]
 800557e:	6283      	str	r3, [r0, #40]	@ 0x28
    TIMx->RCR = Structure->RepetitionCounter;
 8005580:	690a      	ldr	r2, [r1, #16]
 8005582:	4b10      	ldr	r3, [pc, #64]	@ (80055c4 <TIM_Base_SetConfig+0x98>)
 8005584:	631a      	str	r2, [r3, #48]	@ 0x30
 8005586:	e010      	b.n	80055aa <TIM_Base_SetConfig+0x7e>
    tmpcr1 &= ~(TIM_CR1_DIR | TIM_CR1_CMS);
 8005588:	f023 0370 	bic.w	r3, r3, #112	@ 0x70
    tmpcr1 |= Structure->CounterMode;
 800558c:	684a      	ldr	r2, [r1, #4]
 800558e:	4313      	orrs	r3, r2
    tmpcr1 &= ~TIM_CR1_CKD;
 8005590:	f423 7340 	bic.w	r3, r3, #768	@ 0x300
    tmpcr1 |= (uint32_t)Structure->ClockDivision;
 8005594:	68ca      	ldr	r2, [r1, #12]
 8005596:	4313      	orrs	r3, r2
  MODIFY_REG(tmpcr1, TIM_CR1_ARPE, Structure->AutoReloadPreload);
 8005598:	f023 0380 	bic.w	r3, r3, #128	@ 0x80
 800559c:	694a      	ldr	r2, [r1, #20]
 800559e:	4313      	orrs	r3, r2
  TIMx->CR1 = tmpcr1;
 80055a0:	6003      	str	r3, [r0, #0]
  TIMx->ARR = (uint32_t)Structure->Period ;
 80055a2:	688b      	ldr	r3, [r1, #8]
 80055a4:	62c3      	str	r3, [r0, #44]	@ 0x2c
  TIMx->PSC = Structure->Prescaler;
 80055a6:	680b      	ldr	r3, [r1, #0]
 80055a8:	6283      	str	r3, [r0, #40]	@ 0x28
  TIMx->EGR = TIM_EGR_UG;
 80055aa:	2301      	movs	r3, #1
 80055ac:	6143      	str	r3, [r0, #20]
}
 80055ae:	4770      	bx	lr
    tmpcr1 &= ~(TIM_CR1_DIR | TIM_CR1_CMS);
 80055b0:	f023 0370 	bic.w	r3, r3, #112	@ 0x70
    tmpcr1 |= Structure->CounterMode;
 80055b4:	684a      	ldr	r2, [r1, #4]
 80055b6:	4313      	orrs	r3, r2
  if (IS_TIM_CLOCK_DIVISION_INSTANCE(TIMx))
 80055b8:	e7ea      	b.n	8005590 <TIM_Base_SetConfig+0x64>
    tmpcr1 &= ~(TIM_CR1_DIR | TIM_CR1_CMS);
 80055ba:	f023 0370 	bic.w	r3, r3, #112	@ 0x70
    tmpcr1 |= Structure->CounterMode;
 80055be:	684a      	ldr	r2, [r1, #4]
 80055c0:	4313      	orrs	r3, r2
  if (IS_TIM_CLOCK_DIVISION_INSTANCE(TIMx))
 80055c2:	e7e5      	b.n	8005590 <TIM_Base_SetConfig+0x64>
 80055c4:	40012c00 	.word	0x40012c00

080055c8 <HAL_TIM_Base_Init>:
  if (htim == NULL)
 80055c8:	b340      	cbz	r0, 800561c <HAL_TIM_Base_Init+0x54>
{
 80055ca:	b510      	push	{r4, lr}
 80055cc:	4604      	mov	r4, r0
  if (htim->State == HAL_TIM_STATE_RESET)
 80055ce:	f890 303d 	ldrb.w	r3, [r0, #61]	@ 0x3d
 80055d2:	b1f3      	cbz	r3, 8005612 <HAL_TIM_Base_Init+0x4a>
  htim->State = HAL_TIM_STATE_BUSY;
 80055d4:	2302      	movs	r3, #2
 80055d6:	f884 303d 	strb.w	r3, [r4, #61]	@ 0x3d
  TIM_Base_SetConfig(htim->Instance, &htim->Init);
 80055da:	4621      	mov	r1, r4
 80055dc:	f851 0b04 	ldr.w	r0, [r1], #4
 80055e0:	f7ff ffa4 	bl	800552c <TIM_Base_SetConfig>
  htim->DMABurstState = HAL_DMA_BURST_STATE_READY;
 80055e4:	2301      	movs	r3, #1
 80055e6:	f884 3046 	strb.w	r3, [r4, #70]	@ 0x46
  TIM_CHANNEL_STATE_SET_ALL(htim, HAL_TIM_CHANNEL_STATE_READY);
 80055ea:	f884 303e 	strb.w	r3, [r4, #62]	@ 0x3e
 80055ee:	f884 303f 	strb.w	r3, [r4, #63]	@ 0x3f
 80055f2:	f884 3040 	strb.w	r3, [r4, #64]	@ 0x40
 80055f6:	f884 3041 	strb.w	r3, [r4, #65]	@ 0x41
  TIM_CHANNEL_N_STATE_SET_ALL(htim, HAL_TIM_CHANNEL_STATE_READY);
 80055fa:	f884 3042 	strb.w	r3, [r4, #66]	@ 0x42
 80055fe:	f884 3043 	strb.w	r3, [r4, #67]	@ 0x43
 8005602:	f884 3044 	strb.w	r3, [r4, #68]	@ 0x44
 8005606:	f884 3045 	strb.w	r3, [r4, #69]	@ 0x45
  htim->State = HAL_TIM_STATE_READY;
 800560a:	f884 303d 	strb.w	r3, [r4, #61]	@ 0x3d
  return HAL_OK;
 800560e:	2000      	movs	r0, #0
}
 8005610:	bd10      	pop	{r4, pc}
    htim->Lock = HAL_UNLOCKED;
 8005612:	f880 303c 	strb.w	r3, [r0, #60]	@ 0x3c
    HAL_TIM_Base_MspInit(htim);
 8005616:	f7fd fdc7 	bl	80031a8 <HAL_TIM_Base_MspInit>
 800561a:	e7db      	b.n	80055d4 <HAL_TIM_Base_Init+0xc>
    return HAL_ERROR;
 800561c:	2001      	movs	r0, #1
}
 800561e:	4770      	bx	lr

08005620 <HAL_TIM_OC_Init>:
  if (htim == NULL)
 8005620:	b340      	cbz	r0, 8005674 <HAL_TIM_OC_Init+0x54>
{
 8005622:	b510      	push	{r4, lr}
 8005624:	4604      	mov	r4, r0
  if (htim->State == HAL_TIM_STATE_RESET)
 8005626:	f890 303d 	ldrb.w	r3, [r0, #61]	@ 0x3d
 800562a:	b1f3      	cbz	r3, 800566a <HAL_TIM_OC_Init+0x4a>
  htim->State = HAL_TIM_STATE_BUSY;
 800562c:	2302      	movs	r3, #2
 800562e:	f884 303d 	strb.w	r3, [r4, #61]	@ 0x3d
  TIM_Base_SetConfig(htim->Instance,  &htim->Init);
 8005632:	4621      	mov	r1, r4
 8005634:	f851 0b04 	ldr.w	r0, [r1], #4
 8005638:	f7ff ff78 	bl	800552c <TIM_Base_SetConfig>
  htim->DMABurstState = HAL_DMA_BURST_STATE_READY;
 800563c:	2301      	movs	r3, #1
 800563e:	f884 3046 	strb.w	r3, [r4, #70]	@ 0x46
  TIM_CHANNEL_STATE_SET_ALL(htim, HAL_TIM_CHANNEL_STATE_READY);
 8005642:	f884 303e 	strb.w	r3, [r4, #62]	@ 0x3e
 8005646:	f884 303f 	strb.w	r3, [r4, #63]	@ 0x3f
 800564a:	f884 3040 	strb.w	r3, [r4, #64]	@ 0x40
 800564e:	f884 3041 	strb.w	r3, [r4, #65]	@ 0x41
  TIM_CHANNEL_N_STATE_SET_ALL(htim, HAL_TIM_CHANNEL_STATE_READY);
 8005652:	f884 3042 	strb.w	r3, [r4, #66]	@ 0x42
 8005656:	f884 3043 	strb.w	r3, [r4, #67]	@ 0x43
 800565a:	f884 3044 	strb.w	r3, [r4, #68]	@ 0x44
 800565e:	f884 3045 	strb.w	r3, [r4, #69]	@ 0x45
  htim->State = HAL_TIM_STATE_READY;
 8005662:	f884 303d 	strb.w	r3, [r4, #61]	@ 0x3d
  return HAL_OK;
 8005666:	2000      	movs	r0, #0
}
 8005668:	bd10      	pop	{r4, pc}
    htim->Lock = HAL_UNLOCKED;
 800566a:	f880 303c 	strb.w	r3, [r0, #60]	@ 0x3c
    HAL_TIM_OC_MspInit(htim);
 800566e:	f7ff fe99 	bl	80053a4 <HAL_TIM_OC_MspInit>
 8005672:	e7db      	b.n	800562c <HAL_TIM_OC_Init+0xc>
    return HAL_ERROR;
 8005674:	2001      	movs	r0, #1
}
 8005676:	4770      	bx	lr

08005678 <HAL_TIM_PWM_Init>:
  if (htim == NULL)
 8005678:	b340      	cbz	r0, 80056cc <HAL_TIM_PWM_Init+0x54>
{
 800567a:	b510      	push	{r4, lr}
 800567c:	4604      	mov	r4, r0
  if (htim->State == HAL_TIM_STATE_RESET)
 800567e:	f890 303d 	ldrb.w	r3, [r0, #61]	@ 0x3d
 8005682:	b1f3      	cbz	r3, 80056c2 <HAL_TIM_PWM_Init+0x4a>
  htim->State = HAL_TIM_STATE_BUSY;
 8005684:	2302      	movs	r3, #2
 8005686:	f884 303d 	strb.w	r3, [r4, #61]	@ 0x3d
  TIM_Base_SetConfig(htim->Instance, &htim->Init);
 800568a:	4621      	mov	r1, r4
 800568c:	f851 0b04 	ldr.w	r0, [r1], #4
 8005690:	f7ff ff4c 	bl	800552c <TIM_Base_SetConfig>
  htim->DMABurstState = HAL_DMA_BURST_STATE_READY;
 8005694:	2301      	movs	r3, #1
 8005696:	f884 3046 	strb.w	r3, [r4, #70]	@ 0x46
  TIM_CHANNEL_STATE_SET_ALL(htim, HAL_TIM_CHANNEL_STATE_READY);
 800569a:	f884 303e 	strb.w	r3, [r4, #62]	@ 0x3e
 800569e:	f884 303f 	strb.w	r3, [r4, #63]	@ 0x3f
 80056a2:	f884 3040 	strb.w	r3, [r4, #64]	@ 0x40
 80056a6:	f884 3041 	strb.w	r3, [r4, #65]	@ 0x41
  TIM_CHANNEL_N_STATE_SET_ALL(htim, HAL_TIM_CHANNEL_STATE_READY);
 80056aa:	f884 3042 	strb.w	r3, [r4, #66]	@ 0x42
 80056ae:	f884 3043 	strb.w	r3, [r4, #67]	@ 0x43
 80056b2:	f884 3044 	strb.w	r3, [r4, #68]	@ 0x44
 80056b6:	f884 3045 	strb.w	r3, [r4, #69]	@ 0x45
  htim->State = HAL_TIM_STATE_READY;
 80056ba:	f884 303d 	strb.w	r3, [r4, #61]	@ 0x3d
  return HAL_OK;
 80056be:	2000      	movs	r0, #0
}
 80056c0:	bd10      	pop	{r4, pc}
    htim->Lock = HAL_UNLOCKED;
 80056c2:	f880 303c 	strb.w	r3, [r0, #60]	@ 0x3c
    HAL_TIM_PWM_MspInit(htim);
 80056c6:	f7ff fe6e 	bl	80053a6 <HAL_TIM_PWM_MspInit>
 80056ca:	e7db      	b.n	8005684 <HAL_TIM_PWM_Init+0xc>
    return HAL_ERROR;
 80056cc:	2001      	movs	r0, #1
}
 80056ce:	4770      	bx	lr

080056d0 <TIM_OC2_SetConfig>:
{
 80056d0:	b470      	push	{r4, r5, r6}
  tmpccer = TIMx->CCER;
 80056d2:	6a03      	ldr	r3, [r0, #32]
  TIMx->CCER &= ~TIM_CCER_CC2E;
 80056d4:	6a02      	ldr	r2, [r0, #32]
 80056d6:	f022 0210 	bic.w	r2, r2, #16
 80056da:	6202      	str	r2, [r0, #32]
  tmpcr2 =  TIMx->CR2;
 80056dc:	6844      	ldr	r4, [r0, #4]
  tmpccmrx = TIMx->CCMR1;
 80056de:	6982      	ldr	r2, [r0, #24]
  tmpccmrx &= ~TIM_CCMR1_CC2S;
 80056e0:	f422 42e6 	bic.w	r2, r2, #29440	@ 0x7300
  tmpccmrx |= (OC_Config->OCMode << 8U);
 80056e4:	680d      	ldr	r5, [r1, #0]
 80056e6:	ea42 2205 	orr.w	r2, r2, r5, lsl #8
  tmpccer &= ~TIM_CCER_CC2P;
 80056ea:	f023 0320 	bic.w	r3, r3, #32
  tmpccer |= (OC_Config->OCPolarity << 4U);
 80056ee:	688d      	ldr	r5, [r1, #8]
 80056f0:	ea43 1305 	orr.w	r3, r3, r5, lsl #4
  if (IS_TIM_CCXN_INSTANCE(TIMx, TIM_CHANNEL_2))
 80056f4:	4d0c      	ldr	r5, [pc, #48]	@ (8005728 <TIM_OC2_SetConfig+0x58>)
 80056f6:	42a8      	cmp	r0, r5
 80056f8:	d006      	beq.n	8005708 <TIM_OC2_SetConfig+0x38>
  TIMx->CR2 = tmpcr2;
 80056fa:	6044      	str	r4, [r0, #4]
  TIMx->CCMR1 = tmpccmrx;
 80056fc:	6182      	str	r2, [r0, #24]
  TIMx->CCR2 = OC_Config->Pulse;
 80056fe:	684a      	ldr	r2, [r1, #4]
 8005700:	6382      	str	r2, [r0, #56]	@ 0x38
  TIMx->CCER = tmpccer;
 8005702:	6203      	str	r3, [r0, #32]
}
 8005704:	bc70      	pop	{r4, r5, r6}
 8005706:	4770      	bx	lr
    tmpccer &= ~TIM_CCER_CC2NP;
 8005708:	f023 0380 	bic.w	r3, r3, #128	@ 0x80
    tmpccer |= (OC_Config->OCNPolarity << 4U);
 800570c:	68cd      	ldr	r5, [r1, #12]
 800570e:	ea43 1305 	orr.w	r3, r3, r5, lsl #4
    tmpccer &= ~TIM_CCER_CC2NE;
 8005712:	f023 0340 	bic.w	r3, r3, #64	@ 0x40
    tmpcr2 &= ~TIM_CR2_OIS2N;
 8005716:	f424 6440 	bic.w	r4, r4, #3072	@ 0xc00
    tmpcr2 |= (OC_Config->OCIdleState << 2U);
 800571a:	694d      	ldr	r5, [r1, #20]
    tmpcr2 |= (OC_Config->OCNIdleState << 2U);
 800571c:	698e      	ldr	r6, [r1, #24]
 800571e:	4335      	orrs	r5, r6
 8005720:	ea44 0485 	orr.w	r4, r4, r5, lsl #2
 8005724:	e7e9      	b.n	80056fa <TIM_OC2_SetConfig+0x2a>
 8005726:	bf00      	nop
 8005728:	40012c00 	.word	0x40012c00

0800572c <HAL_TIM_OC_ConfigChannel>:
  __HAL_LOCK(htim);
 800572c:	f890 303c 	ldrb.w	r3, [r0, #60]	@ 0x3c
 8005730:	2b01      	cmp	r3, #1
 8005732:	d028      	beq.n	8005786 <HAL_TIM_OC_ConfigChannel+0x5a>
{
 8005734:	b510      	push	{r4, lr}
 8005736:	4604      	mov	r4, r0
  __HAL_LOCK(htim);
 8005738:	2301      	movs	r3, #1
 800573a:	f880 303c 	strb.w	r3, [r0, #60]	@ 0x3c
  switch (Channel)
 800573e:	2a0c      	cmp	r2, #12
 8005740:	d81c      	bhi.n	800577c <HAL_TIM_OC_ConfigChannel+0x50>
 8005742:	e8df f002 	tbb	[pc, r2]
 8005746:	1b07      	.short	0x1b07
 8005748:	1b0c1b1b 	.word	0x1b0c1b1b
 800574c:	1b111b1b 	.word	0x1b111b1b
 8005750:	1b1b      	.short	0x1b1b
 8005752:	16          	.byte	0x16
 8005753:	00          	.byte	0x00
      TIM_OC1_SetConfig(htim->Instance, sConfig);
 8005754:	6800      	ldr	r0, [r0, #0]
 8005756:	f7ff fd49 	bl	80051ec <TIM_OC1_SetConfig>
  HAL_StatusTypeDef status = HAL_OK;
 800575a:	2000      	movs	r0, #0
      break;
 800575c:	e00f      	b.n	800577e <HAL_TIM_OC_ConfigChannel+0x52>
      TIM_OC2_SetConfig(htim->Instance, sConfig);
 800575e:	6800      	ldr	r0, [r0, #0]
 8005760:	f7ff ffb6 	bl	80056d0 <TIM_OC2_SetConfig>
  HAL_StatusTypeDef status = HAL_OK;
 8005764:	2000      	movs	r0, #0
      break;
 8005766:	e00a      	b.n	800577e <HAL_TIM_OC_ConfigChannel+0x52>
      TIM_OC3_SetConfig(htim->Instance, sConfig);
 8005768:	6800      	ldr	r0, [r0, #0]
 800576a:	f7ff fd69 	bl	8005240 <TIM_OC3_SetConfig>
  HAL_StatusTypeDef status = HAL_OK;
 800576e:	2000      	movs	r0, #0
      break;
 8005770:	e005      	b.n	800577e <HAL_TIM_OC_ConfigChannel+0x52>
      TIM_OC4_SetConfig(htim->Instance, sConfig);
 8005772:	6800      	ldr	r0, [r0, #0]
 8005774:	f7ff fd90 	bl	8005298 <TIM_OC4_SetConfig>
  HAL_StatusTypeDef status = HAL_OK;
 8005778:	2000      	movs	r0, #0
      break;
 800577a:	e000      	b.n	800577e <HAL_TIM_OC_ConfigChannel+0x52>
  switch (Channel)
 800577c:	2001      	movs	r0, #1
  __HAL_UNLOCK(htim);
 800577e:	2300      	movs	r3, #0
 8005780:	f884 303c 	strb.w	r3, [r4, #60]	@ 0x3c
}
 8005784:	bd10      	pop	{r4, pc}
  __HAL_LOCK(htim);
 8005786:	2002      	movs	r0, #2
}
 8005788:	4770      	bx	lr

0800578a <HAL_TIM_PWM_ConfigChannel>:
{
 800578a:	b538      	push	{r3, r4, r5, lr}
  __HAL_LOCK(htim);
 800578c:	f890 303c 	ldrb.w	r3, [r0, #60]	@ 0x3c
 8005790:	2b01      	cmp	r3, #1
 8005792:	d066      	beq.n	8005862 <HAL_TIM_PWM_ConfigChannel+0xd8>
 8005794:	4604      	mov	r4, r0
 8005796:	460d      	mov	r5, r1
 8005798:	2301      	movs	r3, #1
 800579a:	f880 303c 	strb.w	r3, [r0, #60]	@ 0x3c
  switch (Channel)
 800579e:	2a0c      	cmp	r2, #12
 80057a0:	d85a      	bhi.n	8005858 <HAL_TIM_PWM_ConfigChannel+0xce>
 80057a2:	e8df f002 	tbb	[pc, r2]
 80057a6:	5907      	.short	0x5907
 80057a8:	591b5959 	.word	0x591b5959
 80057ac:	59305959 	.word	0x59305959
 80057b0:	5959      	.short	0x5959
 80057b2:	44          	.byte	0x44
 80057b3:	00          	.byte	0x00
      TIM_OC1_SetConfig(htim->Instance, sConfig);
 80057b4:	6800      	ldr	r0, [r0, #0]
 80057b6:	f7ff fd19 	bl	80051ec <TIM_OC1_SetConfig>
      htim->Instance->CCMR1 |= TIM_CCMR1_OC1PE;
 80057ba:	6822      	ldr	r2, [r4, #0]
 80057bc:	6993      	ldr	r3, [r2, #24]
 80057be:	f043 0308 	orr.w	r3, r3, #8
 80057c2:	6193      	str	r3, [r2, #24]
      htim->Instance->CCMR1 &= ~TIM_CCMR1_OC1FE;
 80057c4:	6822      	ldr	r2, [r4, #0]
 80057c6:	6993      	ldr	r3, [r2, #24]
 80057c8:	f023 0304 	bic.w	r3, r3, #4
 80057cc:	6193      	str	r3, [r2, #24]
      htim->Instance->CCMR1 |= sConfig->OCFastMode;
 80057ce:	6822      	ldr	r2, [r4, #0]
 80057d0:	6993      	ldr	r3, [r2, #24]
 80057d2:	6929      	ldr	r1, [r5, #16]
 80057d4:	430b      	orrs	r3, r1
 80057d6:	6193      	str	r3, [r2, #24]
  HAL_StatusTypeDef status = HAL_OK;
 80057d8:	2000      	movs	r0, #0
      break;
 80057da:	e03e      	b.n	800585a <HAL_TIM_PWM_ConfigChannel+0xd0>
      TIM_OC2_SetConfig(htim->Instance, sConfig);
 80057dc:	6800      	ldr	r0, [r0, #0]
 80057de:	f7ff ff77 	bl	80056d0 <TIM_OC2_SetConfig>
      htim->Instance->CCMR1 |= TIM_CCMR1_OC2PE;
 80057e2:	6822      	ldr	r2, [r4, #0]
 80057e4:	6993      	ldr	r3, [r2, #24]
 80057e6:	f443 6300 	orr.w	r3, r3, #2048	@ 0x800
 80057ea:	6193      	str	r3, [r2, #24]
      htim->Instance->CCMR1 &= ~TIM_CCMR1_OC2FE;
 80057ec:	6822      	ldr	r2, [r4, #0]
 80057ee:	6993      	ldr	r3, [r2, #24]
 80057f0:	f423 6380 	bic.w	r3, r3, #1024	@ 0x400
 80057f4:	6193      	str	r3, [r2, #24]
      htim->Instance->CCMR1 |= sConfig->OCFastMode << 8U;
 80057f6:	6822      	ldr	r2, [r4, #0]
 80057f8:	6993      	ldr	r3, [r2, #24]
 80057fa:	6929      	ldr	r1, [r5, #16]
 80057fc:	ea43 2301 	orr.w	r3, r3, r1, lsl #8
 8005800:	6193      	str	r3, [r2, #24]
  HAL_StatusTypeDef status = HAL_OK;
 8005802:	2000      	movs	r0, #0
      break;
 8005804:	e029      	b.n	800585a <HAL_TIM_PWM_ConfigChannel+0xd0>
      TIM_OC3_SetConfig(htim->Instance, sConfig);
 8005806:	6800      	ldr	r0, [r0, #0]
 8005808:	f7ff fd1a 	bl	8005240 <TIM_OC3_SetConfig>
      htim->Instance->CCMR2 |= TIM_CCMR2_OC3PE;
 800580c:	6822      	ldr	r2, [r4, #0]
 800580e:	69d3      	ldr	r3, [r2, #28]
 8005810:	f043 0308 	orr.w	r3, r3, #8
 8005814:	61d3      	str	r3, [r2, #28]
      htim->Instance->CCMR2 &= ~TIM_CCMR2_OC3FE;
 8005816:	6822      	ldr	r2, [r4, #0]
 8005818:	69d3      	ldr	r3, [r2, #28]
 800581a:	f023 0304 	bic.w	r3, r3, #4
 800581e:	61d3      	str	r3, [r2, #28]
      htim->Instance->CCMR2 |= sConfig->OCFastMode;
 8005820:	6822      	ldr	r2, [r4, #0]
 8005822:	69d3      	ldr	r3, [r2, #28]
 8005824:	6929      	ldr	r1, [r5, #16]
 8005826:	430b      	orrs	r3, r1
 8005828:	61d3      	str	r3, [r2, #28]
  HAL_StatusTypeDef status = HAL_OK;
 800582a:	2000      	movs	r0, #0
      break;
 800582c:	e015      	b.n	800585a <HAL_TIM_PWM_ConfigChannel+0xd0>
      TIM_OC4_SetConfig(htim->Instance, sConfig);
 800582e:	6800      	ldr	r0, [r0, #0]
 8005830:	f7ff fd32 	bl	8005298 <TIM_OC4_SetConfig>
      htim->Instance->CCMR2 |= TIM_CCMR2_OC4PE;
 8005834:	6822      	ldr	r2, [r4, #0]
 8005836:	69d3      	ldr	r3, [r2, #28]
 8005838:	f443 6300 	orr.w	r3, r3, #2048	@ 0x800
 800583c:	61d3      	str	r3, [r2, #28]
      htim->Instance->CCMR2 &= ~TIM_CCMR2_OC4FE;
 800583e:	6822      	ldr	r2, [r4, #0]
 8005840:	69d3      	ldr	r3, [r2, #28]
 8005842:	f423 6380 	bic.w	r3, r3, #1024	@ 0x400
 8005846:	61d3      	str	r3, [r2, #28]
      htim->Instance->CCMR2 |= sConfig->OCFastMode << 8U;
 8005848:	6822      	ldr	r2, [r4, #0]
 800584a:	69d3      	ldr	r3, [r2, #28]
 800584c:	6929      	ldr	r1, [r5, #16]
 800584e:	ea43 2301 	orr.w	r3, r3, r1, lsl #8
 8005852:	61d3      	str	r3, [r2, #28]
  HAL_StatusTypeDef status = HAL_OK;
 8005854:	2000      	movs	r0, #0
      break;
 8005856:	e000      	b.n	800585a <HAL_TIM_PWM_ConfigChannel+0xd0>
  switch (Channel)
 8005858:	2001      	movs	r0, #1
  __HAL_UNLOCK(htim);
 800585a:	2300      	movs	r3, #0
 800585c:	f884 303c 	strb.w	r3, [r4, #60]	@ 0x3c
}
 8005860:	bd38      	pop	{r3, r4, r5, pc}
  __HAL_LOCK(htim);
 8005862:	2002      	movs	r0, #2
 8005864:	e7fc      	b.n	8005860 <HAL_TIM_PWM_ConfigChannel+0xd6>

08005866 <TIM_ETR_SetConfig>:
  *          This parameter must be a value between 0x00 and 0x0F
  * @retval None
  */
void TIM_ETR_SetConfig(TIM_TypeDef *TIMx, uint32_t TIM_ExtTRGPrescaler,
                       uint32_t TIM_ExtTRGPolarity, uint32_t ExtTRGFilter)
{
 8005866:	b410      	push	{r4}
  uint32_t tmpsmcr;

  tmpsmcr = TIMx->SMCR;
 8005868:	6884      	ldr	r4, [r0, #8]

  /* Reset the ETR Bits */
  tmpsmcr &= ~(TIM_SMCR_ETF | TIM_SMCR_ETPS | TIM_SMCR_ECE | TIM_SMCR_ETP);
 800586a:	f424 4c7f 	bic.w	ip, r4, #65280	@ 0xff00

  /* Set the Prescaler, the Filter value and the Polarity */
  tmpsmcr |= (uint32_t)(TIM_ExtTRGPrescaler | (TIM_ExtTRGPolarity | (ExtTRGFilter << 8U)));
 800586e:	430a      	orrs	r2, r1
 8005870:	ea42 2203 	orr.w	r2, r2, r3, lsl #8
 8005874:	ea42 020c 	orr.w	r2, r2, ip

  /* Write to TIMx SMCR */
  TIMx->SMCR = tmpsmcr;
 8005878:	6082      	str	r2, [r0, #8]
}
 800587a:	bc10      	pop	{r4}
 800587c:	4770      	bx	lr

0800587e <HAL_TIM_ConfigClockSource>:
{
 800587e:	b538      	push	{r3, r4, r5, lr}
  __HAL_LOCK(htim);
 8005880:	f890 303c 	ldrb.w	r3, [r0, #60]	@ 0x3c
 8005884:	2b01      	cmp	r3, #1
 8005886:	f000 80ad 	beq.w	80059e4 <HAL_TIM_ConfigClockSource+0x166>
 800588a:	4604      	mov	r4, r0
 800588c:	2301      	movs	r3, #1
 800588e:	f880 303c 	strb.w	r3, [r0, #60]	@ 0x3c
  htim->State = HAL_TIM_STATE_BUSY;
 8005892:	2302      	movs	r3, #2
 8005894:	f880 303d 	strb.w	r3, [r0, #61]	@ 0x3d
  tmpsmcr = htim->Instance->SMCR;
 8005898:	6802      	ldr	r2, [r0, #0]
 800589a:	6893      	ldr	r3, [r2, #8]
  tmpsmcr &= ~(TIM_SMCR_ETF | TIM_SMCR_ETPS | TIM_SMCR_ECE | TIM_SMCR_ETP);
 800589c:	f423 437f 	bic.w	r3, r3, #65280	@ 0xff00
 80058a0:	f023 0377 	bic.w	r3, r3, #119	@ 0x77
  htim->Instance->SMCR = tmpsmcr;
 80058a4:	6093      	str	r3, [r2, #8]
  switch (sClockSourceConfig->ClockSource)
 80058a6:	680b      	ldr	r3, [r1, #0]
 80058a8:	2b60      	cmp	r3, #96	@ 0x60
 80058aa:	d060      	beq.n	800596e <HAL_TIM_ConfigClockSource+0xf0>
 80058ac:	d83d      	bhi.n	800592a <HAL_TIM_ConfigClockSource+0xac>
 80058ae:	2b40      	cmp	r3, #64	@ 0x40
 80058b0:	d079      	beq.n	80059a6 <HAL_TIM_ConfigClockSource+0x128>
 80058b2:	d91c      	bls.n	80058ee <HAL_TIM_ConfigClockSource+0x70>
 80058b4:	2b50      	cmp	r3, #80	@ 0x50
 80058b6:	d136      	bne.n	8005926 <HAL_TIM_ConfigClockSource+0xa8>
      TIM_TI1_ConfigInputStage(htim->Instance,
 80058b8:	6803      	ldr	r3, [r0, #0]
                               sClockSourceConfig->ClockPolarity,
 80058ba:	6848      	ldr	r0, [r1, #4]
                               sClockSourceConfig->ClockFilter);
 80058bc:	68cd      	ldr	r5, [r1, #12]
  tmpccer = TIMx->CCER;
 80058be:	6a19      	ldr	r1, [r3, #32]
  TIMx->CCER &= ~TIM_CCER_CC1E;
 80058c0:	6a1a      	ldr	r2, [r3, #32]
 80058c2:	f022 0201 	bic.w	r2, r2, #1
 80058c6:	621a      	str	r2, [r3, #32]
  tmpccmr1 = TIMx->CCMR1;
 80058c8:	699a      	ldr	r2, [r3, #24]
  tmpccmr1 &= ~TIM_CCMR1_IC1F;
 80058ca:	f022 02f0 	bic.w	r2, r2, #240	@ 0xf0
  tmpccmr1 |= (TIM_ICFilter << 4U);
 80058ce:	ea42 1205 	orr.w	r2, r2, r5, lsl #4
  tmpccer &= ~(TIM_CCER_CC1P | TIM_CCER_CC1NP);
 80058d2:	f021 010a 	bic.w	r1, r1, #10
  tmpccer |= TIM_ICPolarity;
 80058d6:	4301      	orrs	r1, r0
  TIMx->CCMR1 = tmpccmr1;
 80058d8:	619a      	str	r2, [r3, #24]
  TIMx->CCER = tmpccer;
 80058da:	6219      	str	r1, [r3, #32]
      TIM_ITRx_SetConfig(htim->Instance, TIM_CLOCKSOURCE_TI1);
 80058dc:	6822      	ldr	r2, [r4, #0]
  tmpsmcr = TIMx->SMCR;
 80058de:	6893      	ldr	r3, [r2, #8]
  tmpsmcr &= ~TIM_SMCR_TS;
 80058e0:	f023 0370 	bic.w	r3, r3, #112	@ 0x70
  tmpsmcr |= (InputTriggerSource | TIM_SLAVEMODE_EXTERNAL1);
 80058e4:	f043 0357 	orr.w	r3, r3, #87	@ 0x57
  TIMx->SMCR = tmpsmcr;
 80058e8:	6093      	str	r3, [r2, #8]
  HAL_StatusTypeDef status = HAL_OK;
 80058ea:	2000      	movs	r0, #0
}
 80058ec:	e012      	b.n	8005914 <HAL_TIM_ConfigClockSource+0x96>
  switch (sClockSourceConfig->ClockSource)
 80058ee:	2b20      	cmp	r3, #32
 80058f0:	d002      	beq.n	80058f8 <HAL_TIM_ConfigClockSource+0x7a>
 80058f2:	d90b      	bls.n	800590c <HAL_TIM_ConfigClockSource+0x8e>
 80058f4:	2b30      	cmp	r3, #48	@ 0x30
 80058f6:	d114      	bne.n	8005922 <HAL_TIM_ConfigClockSource+0xa4>
      TIM_ITRx_SetConfig(htim->Instance, sClockSourceConfig->ClockSource);
 80058f8:	6821      	ldr	r1, [r4, #0]
  tmpsmcr = TIMx->SMCR;
 80058fa:	688a      	ldr	r2, [r1, #8]
  tmpsmcr &= ~TIM_SMCR_TS;
 80058fc:	f022 0270 	bic.w	r2, r2, #112	@ 0x70
  tmpsmcr |= (InputTriggerSource | TIM_SLAVEMODE_EXTERNAL1);
 8005900:	4313      	orrs	r3, r2
 8005902:	f043 0307 	orr.w	r3, r3, #7
  TIMx->SMCR = tmpsmcr;
 8005906:	608b      	str	r3, [r1, #8]
  HAL_StatusTypeDef status = HAL_OK;
 8005908:	2000      	movs	r0, #0
}
 800590a:	e003      	b.n	8005914 <HAL_TIM_ConfigClockSource+0x96>
  switch (sClockSourceConfig->ClockSource)
 800590c:	f033 0210 	bics.w	r2, r3, #16
 8005910:	d0f2      	beq.n	80058f8 <HAL_TIM_ConfigClockSource+0x7a>
 8005912:	2001      	movs	r0, #1
  htim->State = HAL_TIM_STATE_READY;
 8005914:	2301      	movs	r3, #1
 8005916:	f884 303d 	strb.w	r3, [r4, #61]	@ 0x3d
  __HAL_UNLOCK(htim);
 800591a:	2300      	movs	r3, #0
 800591c:	f884 303c 	strb.w	r3, [r4, #60]	@ 0x3c
}
 8005920:	bd38      	pop	{r3, r4, r5, pc}
  switch (sClockSourceConfig->ClockSource)
 8005922:	2001      	movs	r0, #1
 8005924:	e7f6      	b.n	8005914 <HAL_TIM_ConfigClockSource+0x96>
 8005926:	2001      	movs	r0, #1
 8005928:	e7f4      	b.n	8005914 <HAL_TIM_ConfigClockSource+0x96>
 800592a:	f5b3 5f80 	cmp.w	r3, #4096	@ 0x1000
 800592e:	d055      	beq.n	80059dc <HAL_TIM_ConfigClockSource+0x15e>
 8005930:	f5b3 5f00 	cmp.w	r3, #8192	@ 0x2000
 8005934:	d10c      	bne.n	8005950 <HAL_TIM_ConfigClockSource+0xd2>
      TIM_ETR_SetConfig(htim->Instance,
 8005936:	68cb      	ldr	r3, [r1, #12]
 8005938:	684a      	ldr	r2, [r1, #4]
 800593a:	6889      	ldr	r1, [r1, #8]
 800593c:	6800      	ldr	r0, [r0, #0]
 800593e:	f7ff ff92 	bl	8005866 <TIM_ETR_SetConfig>
      htim->Instance->SMCR |= TIM_SMCR_ECE;
 8005942:	6822      	ldr	r2, [r4, #0]
 8005944:	6893      	ldr	r3, [r2, #8]
 8005946:	f443 4380 	orr.w	r3, r3, #16384	@ 0x4000
 800594a:	6093      	str	r3, [r2, #8]
  HAL_StatusTypeDef status = HAL_OK;
 800594c:	2000      	movs	r0, #0
      break;
 800594e:	e7e1      	b.n	8005914 <HAL_TIM_ConfigClockSource+0x96>
  switch (sClockSourceConfig->ClockSource)
 8005950:	2b70      	cmp	r3, #112	@ 0x70
 8005952:	d145      	bne.n	80059e0 <HAL_TIM_ConfigClockSource+0x162>
      TIM_ETR_SetConfig(htim->Instance,
 8005954:	68cb      	ldr	r3, [r1, #12]
 8005956:	684a      	ldr	r2, [r1, #4]
 8005958:	6889      	ldr	r1, [r1, #8]
 800595a:	6800      	ldr	r0, [r0, #0]
 800595c:	f7ff ff83 	bl	8005866 <TIM_ETR_SetConfig>
      tmpsmcr = htim->Instance->SMCR;
 8005960:	6822      	ldr	r2, [r4, #0]
 8005962:	6893      	ldr	r3, [r2, #8]
      tmpsmcr |= (TIM_SLAVEMODE_EXTERNAL1 | TIM_CLOCKSOURCE_ETRMODE1);
 8005964:	f043 0377 	orr.w	r3, r3, #119	@ 0x77
      htim->Instance->SMCR = tmpsmcr;
 8005968:	6093      	str	r3, [r2, #8]
  HAL_StatusTypeDef status = HAL_OK;
 800596a:	2000      	movs	r0, #0
      break;
 800596c:	e7d2      	b.n	8005914 <HAL_TIM_ConfigClockSource+0x96>
      TIM_TI2_ConfigInputStage(htim->Instance,
 800596e:	6803      	ldr	r3, [r0, #0]
                               sClockSourceConfig->ClockPolarity,
 8005970:	6848      	ldr	r0, [r1, #4]
                               sClockSourceConfig->ClockFilter);
 8005972:	68cd      	ldr	r5, [r1, #12]
  tmpccer = TIMx->CCER;
 8005974:	6a1a      	ldr	r2, [r3, #32]
  TIMx->CCER &= ~TIM_CCER_CC2E;
 8005976:	6a19      	ldr	r1, [r3, #32]
 8005978:	f021 0110 	bic.w	r1, r1, #16
 800597c:	6219      	str	r1, [r3, #32]
  tmpccmr1 = TIMx->CCMR1;
 800597e:	6999      	ldr	r1, [r3, #24]
  tmpccmr1 &= ~TIM_CCMR1_IC2F;
 8005980:	f421 4170 	bic.w	r1, r1, #61440	@ 0xf000
  tmpccmr1 |= (TIM_ICFilter << 12U);
 8005984:	ea41 3105 	orr.w	r1, r1, r5, lsl #12
  tmpccer &= ~(TIM_CCER_CC2P | TIM_CCER_CC2NP);
 8005988:	f022 02a0 	bic.w	r2, r2, #160	@ 0xa0
  tmpccer |= (TIM_ICPolarity << 4U);
 800598c:	ea42 1200 	orr.w	r2, r2, r0, lsl #4
  TIMx->CCMR1 = tmpccmr1 ;
 8005990:	6199      	str	r1, [r3, #24]
  TIMx->CCER = tmpccer;
 8005992:	621a      	str	r2, [r3, #32]
      TIM_ITRx_SetConfig(htim->Instance, TIM_CLOCKSOURCE_TI2);
 8005994:	6822      	ldr	r2, [r4, #0]
  tmpsmcr = TIMx->SMCR;
 8005996:	6893      	ldr	r3, [r2, #8]
  tmpsmcr &= ~TIM_SMCR_TS;
 8005998:	f023 0370 	bic.w	r3, r3, #112	@ 0x70
  tmpsmcr |= (InputTriggerSource | TIM_SLAVEMODE_EXTERNAL1);
 800599c:	f043 0367 	orr.w	r3, r3, #103	@ 0x67
  TIMx->SMCR = tmpsmcr;
 80059a0:	6093      	str	r3, [r2, #8]
  HAL_StatusTypeDef status = HAL_OK;
 80059a2:	2000      	movs	r0, #0
}
 80059a4:	e7b6      	b.n	8005914 <HAL_TIM_ConfigClockSource+0x96>
      TIM_TI1_ConfigInputStage(htim->Instance,
 80059a6:	6803      	ldr	r3, [r0, #0]
                               sClockSourceConfig->ClockPolarity,
 80059a8:	6848      	ldr	r0, [r1, #4]
                               sClockSourceConfig->ClockFilter);
 80059aa:	68cd      	ldr	r5, [r1, #12]
  tmpccer = TIMx->CCER;
 80059ac:	6a19      	ldr	r1, [r3, #32]
  TIMx->CCER &= ~TIM_CCER_CC1E;
 80059ae:	6a1a      	ldr	r2, [r3, #32]
 80059b0:	f022 0201 	bic.w	r2, r2, #1
 80059b4:	621a      	str	r2, [r3, #32]
  tmpccmr1 = TIMx->CCMR1;
 80059b6:	699a      	ldr	r2, [r3, #24]
  tmpccmr1 &= ~TIM_CCMR1_IC1F;
 80059b8:	f022 02f0 	bic.w	r2, r2, #240	@ 0xf0
  tmpccmr1 |= (TIM_ICFilter << 4U);
 80059bc:	ea42 1205 	orr.w	r2, r2, r5, lsl #4
  tmpccer &= ~(TIM_CCER_CC1P | TIM_CCER_CC1NP);
 80059c0:	f021 010a 	bic.w	r1, r1, #10
  tmpccer |= TIM_ICPolarity;
 80059c4:	4301      	orrs	r1, r0
  TIMx->CCMR1 = tmpccmr1;
 80059c6:	619a      	str	r2, [r3, #24]
  TIMx->CCER = tmpccer;
 80059c8:	6219      	str	r1, [r3, #32]
      TIM_ITRx_SetConfig(htim->Instance, TIM_CLOCKSOURCE_TI1ED);
 80059ca:	6822      	ldr	r2, [r4, #0]
  tmpsmcr = TIMx->SMCR;
 80059cc:	6893      	ldr	r3, [r2, #8]
  tmpsmcr &= ~TIM_SMCR_TS;
 80059ce:	f023 0370 	bic.w	r3, r3, #112	@ 0x70
  tmpsmcr |= (InputTriggerSource | TIM_SLAVEMODE_EXTERNAL1);
 80059d2:	f043 0347 	orr.w	r3, r3, #71	@ 0x47
  TIMx->SMCR = tmpsmcr;
 80059d6:	6093      	str	r3, [r2, #8]
  HAL_StatusTypeDef status = HAL_OK;
 80059d8:	2000      	movs	r0, #0
}
 80059da:	e79b      	b.n	8005914 <HAL_TIM_ConfigClockSource+0x96>
  HAL_StatusTypeDef status = HAL_OK;
 80059dc:	2000      	movs	r0, #0
 80059de:	e799      	b.n	8005914 <HAL_TIM_ConfigClockSource+0x96>
  switch (sClockSourceConfig->ClockSource)
 80059e0:	2001      	movs	r0, #1
 80059e2:	e797      	b.n	8005914 <HAL_TIM_ConfigClockSource+0x96>
  __HAL_LOCK(htim);
 80059e4:	2002      	movs	r0, #2
 80059e6:	e79b      	b.n	8005920 <HAL_TIM_ConfigClockSource+0xa2>

080059e8 <TIM_CCxChannelCmd>:

  /* Check the parameters */
  assert_param(IS_TIM_CC1_INSTANCE(TIMx));
  assert_param(IS_TIM_CHANNELS(Channel));

  tmp = TIM_CCER_CC1E << (Channel & 0x1FU); /* 0x1FU = 31 bits max shift */
 80059e8:	f001 011f 	and.w	r1, r1, #31

  /* Reset the CCxE Bit */
  TIMx->CCER &= ~tmp;
 80059ec:	6a03      	ldr	r3, [r0, #32]
  tmp = TIM_CCER_CC1E << (Channel & 0x1FU); /* 0x1FU = 31 bits max shift */
 80059ee:	f04f 0c01 	mov.w	ip, #1
 80059f2:	fa0c fc01 	lsl.w	ip, ip, r1
  TIMx->CCER &= ~tmp;
 80059f6:	ea23 030c 	bic.w	r3, r3, ip
 80059fa:	6203      	str	r3, [r0, #32]

  /* Set or reset the CCxE Bit */
  TIMx->CCER |= (uint32_t)(ChannelState << (Channel & 0x1FU)); /* 0x1FU = 31 bits max shift */
 80059fc:	6a03      	ldr	r3, [r0, #32]
 80059fe:	408a      	lsls	r2, r1
 8005a00:	431a      	orrs	r2, r3
 8005a02:	6202      	str	r2, [r0, #32]
}
 8005a04:	4770      	bx	lr
	...

08005a08 <HAL_TIM_PWM_Start>:
{
 8005a08:	b510      	push	{r4, lr}
 8005a0a:	4604      	mov	r4, r0
  if (TIM_CHANNEL_STATE_GET(htim, Channel) != HAL_TIM_CHANNEL_STATE_READY)
 8005a0c:	4608      	mov	r0, r1
 8005a0e:	bb01      	cbnz	r1, 8005a52 <HAL_TIM_PWM_Start+0x4a>
 8005a10:	f894 303e 	ldrb.w	r3, [r4, #62]	@ 0x3e
 8005a14:	b2db      	uxtb	r3, r3
 8005a16:	2b01      	cmp	r3, #1
 8005a18:	d152      	bne.n	8005ac0 <HAL_TIM_PWM_Start+0xb8>
  TIM_CHANNEL_STATE_SET(htim, Channel, HAL_TIM_CHANNEL_STATE_BUSY);
 8005a1a:	2302      	movs	r3, #2
 8005a1c:	f884 303e 	strb.w	r3, [r4, #62]	@ 0x3e
  TIM_CCxChannelCmd(htim->Instance, Channel, TIM_CCx_ENABLE);
 8005a20:	2201      	movs	r2, #1
 8005a22:	4601      	mov	r1, r0
 8005a24:	6820      	ldr	r0, [r4, #0]
 8005a26:	f7ff ffdf 	bl	80059e8 <TIM_CCxChannelCmd>
  if (IS_TIM_BREAK_INSTANCE(htim->Instance) != RESET)
 8005a2a:	6823      	ldr	r3, [r4, #0]
 8005a2c:	4a26      	ldr	r2, [pc, #152]	@ (8005ac8 <HAL_TIM_PWM_Start+0xc0>)
 8005a2e:	4293      	cmp	r3, r2
 8005a30:	d034      	beq.n	8005a9c <HAL_TIM_PWM_Start+0x94>
  if (IS_TIM_SLAVE_INSTANCE(htim->Instance))
 8005a32:	f1b3 4f80 	cmp.w	r3, #1073741824	@ 0x40000000
 8005a36:	d038      	beq.n	8005aaa <HAL_TIM_PWM_Start+0xa2>
 8005a38:	4a24      	ldr	r2, [pc, #144]	@ (8005acc <HAL_TIM_PWM_Start+0xc4>)
 8005a3a:	4293      	cmp	r3, r2
 8005a3c:	d035      	beq.n	8005aaa <HAL_TIM_PWM_Start+0xa2>
 8005a3e:	f502 6280 	add.w	r2, r2, #1024	@ 0x400
 8005a42:	4293      	cmp	r3, r2
 8005a44:	d031      	beq.n	8005aaa <HAL_TIM_PWM_Start+0xa2>
    __HAL_TIM_ENABLE(htim);
 8005a46:	681a      	ldr	r2, [r3, #0]
 8005a48:	f042 0201 	orr.w	r2, r2, #1
 8005a4c:	601a      	str	r2, [r3, #0]
  return HAL_OK;
 8005a4e:	2000      	movs	r0, #0
 8005a50:	e035      	b.n	8005abe <HAL_TIM_PWM_Start+0xb6>
  if (TIM_CHANNEL_STATE_GET(htim, Channel) != HAL_TIM_CHANNEL_STATE_READY)
 8005a52:	2904      	cmp	r1, #4
 8005a54:	d00c      	beq.n	8005a70 <HAL_TIM_PWM_Start+0x68>
 8005a56:	2908      	cmp	r1, #8
 8005a58:	bf0c      	ite	eq
 8005a5a:	f894 3040 	ldrbeq.w	r3, [r4, #64]	@ 0x40
 8005a5e:	f894 3041 	ldrbne.w	r3, [r4, #65]	@ 0x41
 8005a62:	b2db      	uxtb	r3, r3
 8005a64:	3b01      	subs	r3, #1
 8005a66:	bf18      	it	ne
 8005a68:	2301      	movne	r3, #1
 8005a6a:	b143      	cbz	r3, 8005a7e <HAL_TIM_PWM_Start+0x76>
    return HAL_ERROR;
 8005a6c:	2001      	movs	r0, #1
 8005a6e:	e026      	b.n	8005abe <HAL_TIM_PWM_Start+0xb6>
  if (TIM_CHANNEL_STATE_GET(htim, Channel) != HAL_TIM_CHANNEL_STATE_READY)
 8005a70:	f894 303f 	ldrb.w	r3, [r4, #63]	@ 0x3f
 8005a74:	b2db      	uxtb	r3, r3
 8005a76:	3b01      	subs	r3, #1
 8005a78:	bf18      	it	ne
 8005a7a:	2301      	movne	r3, #1
 8005a7c:	e7f5      	b.n	8005a6a <HAL_TIM_PWM_Start+0x62>
  TIM_CHANNEL_STATE_SET(htim, Channel, HAL_TIM_CHANNEL_STATE_BUSY);
 8005a7e:	2804      	cmp	r0, #4
 8005a80:	d008      	beq.n	8005a94 <HAL_TIM_PWM_Start+0x8c>
 8005a82:	2808      	cmp	r0, #8
 8005a84:	f04f 0302 	mov.w	r3, #2
 8005a88:	bf0c      	ite	eq
 8005a8a:	f884 3040 	strbeq.w	r3, [r4, #64]	@ 0x40
 8005a8e:	f884 3041 	strbne.w	r3, [r4, #65]	@ 0x41
 8005a92:	e7c5      	b.n	8005a20 <HAL_TIM_PWM_Start+0x18>
 8005a94:	2302      	movs	r3, #2
 8005a96:	f884 303f 	strb.w	r3, [r4, #63]	@ 0x3f
 8005a9a:	e7c1      	b.n	8005a20 <HAL_TIM_PWM_Start+0x18>
    __HAL_TIM_MOE_ENABLE(htim);
 8005a9c:	6c53      	ldr	r3, [r2, #68]	@ 0x44
 8005a9e:	f443 4300 	orr.w	r3, r3, #32768	@ 0x8000
 8005aa2:	6453      	str	r3, [r2, #68]	@ 0x44
  if (IS_TIM_SLAVE_INSTANCE(htim->Instance))
 8005aa4:	6823      	ldr	r3, [r4, #0]
 8005aa6:	4293      	cmp	r3, r2
 8005aa8:	d1c3      	bne.n	8005a32 <HAL_TIM_PWM_Start+0x2a>
    tmpsmcr = htim->Instance->SMCR & TIM_SMCR_SMS;
 8005aaa:	689a      	ldr	r2, [r3, #8]
 8005aac:	f002 0207 	and.w	r2, r2, #7
    if (!IS_TIM_SLAVEMODE_TRIGGER_ENABLED(tmpsmcr))
 8005ab0:	2a06      	cmp	r2, #6
 8005ab2:	d007      	beq.n	8005ac4 <HAL_TIM_PWM_Start+0xbc>
      __HAL_TIM_ENABLE(htim);
 8005ab4:	681a      	ldr	r2, [r3, #0]
 8005ab6:	f042 0201 	orr.w	r2, r2, #1
 8005aba:	601a      	str	r2, [r3, #0]
  return HAL_OK;
 8005abc:	2000      	movs	r0, #0
}
 8005abe:	bd10      	pop	{r4, pc}
    return HAL_ERROR;
 8005ac0:	2001      	movs	r0, #1
 8005ac2:	e7fc      	b.n	8005abe <HAL_TIM_PWM_Start+0xb6>
  return HAL_OK;
 8005ac4:	2000      	movs	r0, #0
 8005ac6:	e7fa      	b.n	8005abe <HAL_TIM_PWM_Start+0xb6>
 8005ac8:	40012c00 	.word	0x40012c00
 8005acc:	40000400 	.word	0x40000400

08005ad0 <HAL_TIMEx_MasterConfigSynchronization>:
  assert_param(IS_TIM_MASTER_INSTANCE(htim->Instance));
  assert_param(IS_TIM_TRGO_SOURCE(sMasterConfig->MasterOutputTrigger));
  assert_param(IS_TIM_MSM_STATE(sMasterConfig->MasterSlaveMode));

  /* Check input state */
  __HAL_LOCK(htim);
 8005ad0:	f890 203c 	ldrb.w	r2, [r0, #60]	@ 0x3c
 8005ad4:	2a01      	cmp	r2, #1
 8005ad6:	d02b      	beq.n	8005b30 <HAL_TIMEx_MasterConfigSynchronization+0x60>
{
 8005ad8:	b430      	push	{r4, r5}
 8005ada:	4603      	mov	r3, r0
  __HAL_LOCK(htim);
 8005adc:	2201      	movs	r2, #1
 8005ade:	f880 203c 	strb.w	r2, [r0, #60]	@ 0x3c

  /* Change the handler state */
  htim->State = HAL_TIM_STATE_BUSY;
 8005ae2:	2202      	movs	r2, #2
 8005ae4:	f880 203d 	strb.w	r2, [r0, #61]	@ 0x3d

  /* Get the TIMx CR2 register value */
  tmpcr2 = htim->Instance->CR2;
 8005ae8:	6804      	ldr	r4, [r0, #0]
 8005aea:	6862      	ldr	r2, [r4, #4]

  /* Get the TIMx SMCR register value */
  tmpsmcr = htim->Instance->SMCR;
 8005aec:	68a0      	ldr	r0, [r4, #8]

  /* Reset the MMS Bits */
  tmpcr2 &= ~TIM_CR2_MMS;
 8005aee:	f022 0270 	bic.w	r2, r2, #112	@ 0x70
  /* Select the TRGO source */
  tmpcr2 |=  sMasterConfig->MasterOutputTrigger;
 8005af2:	680d      	ldr	r5, [r1, #0]
 8005af4:	432a      	orrs	r2, r5

  /* Update TIMx CR2 */
  htim->Instance->CR2 = tmpcr2;
 8005af6:	6062      	str	r2, [r4, #4]

  if (IS_TIM_SLAVE_INSTANCE(htim->Instance))
 8005af8:	681a      	ldr	r2, [r3, #0]
 8005afa:	4c0e      	ldr	r4, [pc, #56]	@ (8005b34 <HAL_TIMEx_MasterConfigSynchronization+0x64>)
 8005afc:	42a2      	cmp	r2, r4
 8005afe:	d00a      	beq.n	8005b16 <HAL_TIMEx_MasterConfigSynchronization+0x46>
 8005b00:	f1b2 4f80 	cmp.w	r2, #1073741824	@ 0x40000000
 8005b04:	d007      	beq.n	8005b16 <HAL_TIMEx_MasterConfigSynchronization+0x46>
 8005b06:	f5a4 3494 	sub.w	r4, r4, #75776	@ 0x12800
 8005b0a:	42a2      	cmp	r2, r4
 8005b0c:	d003      	beq.n	8005b16 <HAL_TIMEx_MasterConfigSynchronization+0x46>
 8005b0e:	f504 6480 	add.w	r4, r4, #1024	@ 0x400
 8005b12:	42a2      	cmp	r2, r4
 8005b14:	d104      	bne.n	8005b20 <HAL_TIMEx_MasterConfigSynchronization+0x50>
  {
    /* Reset the MSM Bit */
    tmpsmcr &= ~TIM_SMCR_MSM;
 8005b16:	f020 0080 	bic.w	r0, r0, #128	@ 0x80
    /* Set master mode */
    tmpsmcr |= sMasterConfig->MasterSlaveMode;
 8005b1a:	6849      	ldr	r1, [r1, #4]
 8005b1c:	4308      	orrs	r0, r1

    /* Update TIMx SMCR */
    htim->Instance->SMCR = tmpsmcr;
 8005b1e:	6090      	str	r0, [r2, #8]
  }

  /* Change the htim state */
  htim->State = HAL_TIM_STATE_READY;
 8005b20:	2201      	movs	r2, #1
 8005b22:	f883 203d 	strb.w	r2, [r3, #61]	@ 0x3d

  __HAL_UNLOCK(htim);
 8005b26:	2000      	movs	r0, #0
 8005b28:	f883 003c 	strb.w	r0, [r3, #60]	@ 0x3c

  return HAL_OK;
}
 8005b2c:	bc30      	pop	{r4, r5}
 8005b2e:	4770      	bx	lr
  __HAL_LOCK(htim);
 8005b30:	2002      	movs	r0, #2
}
 8005b32:	4770      	bx	lr
 8005b34:	40012c00 	.word	0x40012c00

08005b38 <HAL_TIMEx_ConfigBreakDeadTime>:
  *         interrupt can be enabled by calling the @ref __HAL_TIM_ENABLE_IT macro.
  * @retval HAL status
  */
HAL_StatusTypeDef HAL_TIMEx_ConfigBreakDeadTime(TIM_HandleTypeDef *htim,
                                                const TIM_BreakDeadTimeConfigTypeDef *sBreakDeadTimeConfig)
{
 8005b38:	4602      	mov	r2, r0
  assert_param(IS_TIM_BREAK_STATE(sBreakDeadTimeConfig->BreakState));
  assert_param(IS_TIM_BREAK_POLARITY(sBreakDeadTimeConfig->BreakPolarity));
  assert_param(IS_TIM_AUTOMATIC_OUTPUT_STATE(sBreakDeadTimeConfig->AutomaticOutput));

  /* Check input state */
  __HAL_LOCK(htim);
 8005b3a:	f890 303c 	ldrb.w	r3, [r0, #60]	@ 0x3c
 8005b3e:	2b01      	cmp	r3, #1
 8005b40:	d021      	beq.n	8005b86 <HAL_TIMEx_ConfigBreakDeadTime+0x4e>
 8005b42:	2301      	movs	r3, #1
 8005b44:	f880 303c 	strb.w	r3, [r0, #60]	@ 0x3c
  /* Set the Lock level, the Break enable Bit and the Polarity, the OSSR State,
     the OSSI State, the dead time value and the Automatic Output Enable Bit */

  /* Set the BDTR bits */
  MODIFY_REG(tmpbdtr, TIM_BDTR_DTG, sBreakDeadTimeConfig->DeadTime);
  MODIFY_REG(tmpbdtr, TIM_BDTR_LOCK, sBreakDeadTimeConfig->LockLevel);
 8005b48:	68cb      	ldr	r3, [r1, #12]
 8005b4a:	f423 7340 	bic.w	r3, r3, #768	@ 0x300
 8005b4e:	6888      	ldr	r0, [r1, #8]
 8005b50:	4303      	orrs	r3, r0
  MODIFY_REG(tmpbdtr, TIM_BDTR_OSSI, sBreakDeadTimeConfig->OffStateIDLEMode);
 8005b52:	f423 6380 	bic.w	r3, r3, #1024	@ 0x400
 8005b56:	6848      	ldr	r0, [r1, #4]
 8005b58:	4303      	orrs	r3, r0
  MODIFY_REG(tmpbdtr, TIM_BDTR_OSSR, sBreakDeadTimeConfig->OffStateRunMode);
 8005b5a:	f423 6300 	bic.w	r3, r3, #2048	@ 0x800
 8005b5e:	6808      	ldr	r0, [r1, #0]
 8005b60:	4303      	orrs	r3, r0
  MODIFY_REG(tmpbdtr, TIM_BDTR_BKE, sBreakDeadTimeConfig->BreakState);
 8005b62:	f423 5380 	bic.w	r3, r3, #4096	@ 0x1000
 8005b66:	6908      	ldr	r0, [r1, #16]
 8005b68:	4303      	orrs	r3, r0
  MODIFY_REG(tmpbdtr, TIM_BDTR_BKP, sBreakDeadTimeConfig->BreakPolarity);
 8005b6a:	f423 5300 	bic.w	r3, r3, #8192	@ 0x2000
 8005b6e:	6948      	ldr	r0, [r1, #20]
 8005b70:	4303      	orrs	r3, r0
  MODIFY_REG(tmpbdtr, TIM_BDTR_AOE, sBreakDeadTimeConfig->AutomaticOutput);
 8005b72:	f423 4380 	bic.w	r3, r3, #16384	@ 0x4000
 8005b76:	69c9      	ldr	r1, [r1, #28]
 8005b78:	430b      	orrs	r3, r1


  /* Set TIMx_BDTR */
  htim->Instance->BDTR = tmpbdtr;
 8005b7a:	6811      	ldr	r1, [r2, #0]
 8005b7c:	644b      	str	r3, [r1, #68]	@ 0x44

  __HAL_UNLOCK(htim);
 8005b7e:	2000      	movs	r0, #0
 8005b80:	f882 003c 	strb.w	r0, [r2, #60]	@ 0x3c

  return HAL_OK;
 8005b84:	4770      	bx	lr
  __HAL_LOCK(htim);
 8005b86:	2002      	movs	r0, #2
}
 8005b88:	4770      	bx	lr

08005b8a <HAL_TIMEx_CommutCallback>:
  UNUSED(htim);

  /* NOTE : This function should not be modified, when the callback is needed,
            the HAL_TIMEx_CommutCallback could be implemented in the user file
   */
}
 8005b8a:	4770      	bx	lr

08005b8c <HAL_TIMEx_BreakCallback>:
  UNUSED(htim);

  /* NOTE : This function should not be modified, when the callback is needed,
            the HAL_TIMEx_BreakCallback could be implemented in the user file
   */
}
 8005b8c:	4770      	bx	lr

08005b8e <UART_EndRxTransfer>:
  * @retval None
  */
static void UART_EndRxTransfer(UART_HandleTypeDef *huart)
{
  /* Disable RXNE, PE and ERR (Frame error, noise error, overrun error) interrupts */
  ATOMIC_CLEAR_BIT(huart->Instance->CR1, (USART_CR1_RXNEIE | USART_CR1_PEIE));
 8005b8e:	6802      	ldr	r2, [r0, #0]
 */
__STATIC_FORCEINLINE uint32_t __LDREXW(volatile uint32_t *addr)
{
    uint32_t result;

   __ASM volatile ("ldrex %0, %1" : "=r" (result) : "Q" (*addr) );
 8005b90:	f102 030c 	add.w	r3, r2, #12
 8005b94:	e853 3f00 	ldrex	r3, [r3]
 8005b98:	f423 7390 	bic.w	r3, r3, #288	@ 0x120
 */
__STATIC_FORCEINLINE uint32_t __STREXW(uint32_t value, volatile uint32_t *addr)
{
   uint32_t result;

   __ASM volatile ("strex %0, %2, %1" : "=&r" (result), "=Q" (*addr) : "r" (value) );
 8005b9c:	320c      	adds	r2, #12
 8005b9e:	e842 3100 	strex	r1, r3, [r2]
 8005ba2:	2900      	cmp	r1, #0
 8005ba4:	d1f3      	bne.n	8005b8e <UART_EndRxTransfer>
  ATOMIC_CLEAR_BIT(huart->Instance->CR3, USART_CR3_EIE);
 8005ba6:	6802      	ldr	r2, [r0, #0]
   __ASM volatile ("ldrex %0, %1" : "=r" (result) : "Q" (*addr) );
 8005ba8:	f102 0314 	add.w	r3, r2, #20
 8005bac:	e853 3f00 	ldrex	r3, [r3]
 8005bb0:	f023 0301 	bic.w	r3, r3, #1
   __ASM volatile ("strex %0, %2, %1" : "=&r" (result), "=Q" (*addr) : "r" (value) );
 8005bb4:	3214      	adds	r2, #20
 8005bb6:	e842 3100 	strex	r1, r3, [r2]
 8005bba:	2900      	cmp	r1, #0
 8005bbc:	d1f3      	bne.n	8005ba6 <UART_EndRxTransfer+0x18>

  /* In case of reception waiting for IDLE event, disable also the IDLE IE interrupt source */
  if (huart->ReceptionType == HAL_UART_RECEPTION_TOIDLE)
 8005bbe:	6b03      	ldr	r3, [r0, #48]	@ 0x30
 8005bc0:	2b01      	cmp	r3, #1
 8005bc2:	d005      	beq.n	8005bd0 <UART_EndRxTransfer+0x42>
  {
    ATOMIC_CLEAR_BIT(huart->Instance->CR1, USART_CR1_IDLEIE);
  }

  /* At end of Rx process, restore huart->RxState to Ready */
  huart->RxState = HAL_UART_STATE_READY;
 8005bc4:	2320      	movs	r3, #32
 8005bc6:	f880 3042 	strb.w	r3, [r0, #66]	@ 0x42
  huart->ReceptionType = HAL_UART_RECEPTION_STANDARD;
 8005bca:	2300      	movs	r3, #0
 8005bcc:	6303      	str	r3, [r0, #48]	@ 0x30
}
 8005bce:	4770      	bx	lr
    ATOMIC_CLEAR_BIT(huart->Instance->CR1, USART_CR1_IDLEIE);
 8005bd0:	6802      	ldr	r2, [r0, #0]
   __ASM volatile ("ldrex %0, %1" : "=r" (result) : "Q" (*addr) );
 8005bd2:	f102 030c 	add.w	r3, r2, #12
 8005bd6:	e853 3f00 	ldrex	r3, [r3]
 8005bda:	f023 0310 	bic.w	r3, r3, #16
   __ASM volatile ("strex %0, %2, %1" : "=&r" (result), "=Q" (*addr) : "r" (value) );
 8005bde:	320c      	adds	r2, #12
 8005be0:	e842 3100 	strex	r1, r3, [r2]
 8005be4:	2900      	cmp	r1, #0
 8005be6:	d1f3      	bne.n	8005bd0 <UART_EndRxTransfer+0x42>
 8005be8:	e7ec      	b.n	8005bc4 <UART_EndRxTransfer+0x36>
	...

08005bec <UART_SetConfig>:
  * @param  huart  Pointer to a UART_HandleTypeDef structure that contains
  *                the configuration information for the specified UART module.
  * @retval None
  */
static void UART_SetConfig(UART_HandleTypeDef *huart)
{
 8005bec:	b510      	push	{r4, lr}
 8005bee:	4604      	mov	r4, r0
  assert_param(IS_UART_MODE(huart->Init.Mode));

  /*-------------------------- USART CR2 Configuration -----------------------*/
  /* Configure the UART Stop Bits: Set STOP[13:12] bits
     according to huart->Init.StopBits value */
  MODIFY_REG(huart->Instance->CR2, USART_CR2_STOP, huart->Init.StopBits);
 8005bf0:	6802      	ldr	r2, [r0, #0]
 8005bf2:	6913      	ldr	r3, [r2, #16]
 8005bf4:	f423 5340 	bic.w	r3, r3, #12288	@ 0x3000
 8005bf8:	68c1      	ldr	r1, [r0, #12]
 8005bfa:	430b      	orrs	r3, r1
 8005bfc:	6113      	str	r3, [r2, #16]
  MODIFY_REG(huart->Instance->CR1,
             (uint32_t)(USART_CR1_M | USART_CR1_PCE | USART_CR1_PS | USART_CR1_TE | USART_CR1_RE | USART_CR1_OVER8),
             tmpreg);
#else
  tmpreg = (uint32_t)huart->Init.WordLength | huart->Init.Parity | huart->Init.Mode;
  MODIFY_REG(huart->Instance->CR1,
 8005bfe:	6801      	ldr	r1, [r0, #0]
 8005c00:	68ca      	ldr	r2, [r1, #12]
  tmpreg = (uint32_t)huart->Init.WordLength | huart->Init.Parity | huart->Init.Mode;
 8005c02:	6883      	ldr	r3, [r0, #8]
 8005c04:	6900      	ldr	r0, [r0, #16]
 8005c06:	4303      	orrs	r3, r0
 8005c08:	6960      	ldr	r0, [r4, #20]
 8005c0a:	4303      	orrs	r3, r0
  MODIFY_REG(huart->Instance->CR1,
 8005c0c:	f422 52b0 	bic.w	r2, r2, #5632	@ 0x1600
 8005c10:	f022 020c 	bic.w	r2, r2, #12
 8005c14:	4313      	orrs	r3, r2
 8005c16:	60cb      	str	r3, [r1, #12]
             tmpreg);
#endif /* USART_CR1_OVER8 */

  /*-------------------------- USART CR3 Configuration -----------------------*/
  /* Configure the UART HFC: Set CTSE and RTSE bits according to huart->Init.HwFlowCtl value */
  MODIFY_REG(huart->Instance->CR3, (USART_CR3_RTSE | USART_CR3_CTSE), huart->Init.HwFlowCtl);
 8005c18:	6822      	ldr	r2, [r4, #0]
 8005c1a:	6953      	ldr	r3, [r2, #20]
 8005c1c:	f423 7340 	bic.w	r3, r3, #768	@ 0x300
 8005c20:	69a1      	ldr	r1, [r4, #24]
 8005c22:	430b      	orrs	r3, r1
 8005c24:	6153      	str	r3, [r2, #20]


  if(huart->Instance == USART1)
 8005c26:	6822      	ldr	r2, [r4, #0]
 8005c28:	4b11      	ldr	r3, [pc, #68]	@ (8005c70 <UART_SetConfig+0x84>)
 8005c2a:	429a      	cmp	r2, r3
 8005c2c:	d01b      	beq.n	8005c66 <UART_SetConfig+0x7a>
  {
    pclk = HAL_RCC_GetPCLK2Freq();
  }
  else
  {
    pclk = HAL_RCC_GetPCLK1Freq();
 8005c2e:	f7ff fa2f 	bl	8005090 <HAL_RCC_GetPCLK1Freq>
 8005c32:	4603      	mov	r3, r0
  else
  {
    huart->Instance->BRR = UART_BRR_SAMPLING16(pclk, huart->Init.BaudRate);
  }
#else
  huart->Instance->BRR = UART_BRR_SAMPLING16(pclk, huart->Init.BaudRate);
 8005c34:	eb03 0383 	add.w	r3, r3, r3, lsl #2
 8005c38:	eb03 0383 	add.w	r3, r3, r3, lsl #2
 8005c3c:	6862      	ldr	r2, [r4, #4]
 8005c3e:	0092      	lsls	r2, r2, #2
 8005c40:	fbb3 f3f2 	udiv	r3, r3, r2
 8005c44:	6820      	ldr	r0, [r4, #0]
 8005c46:	490b      	ldr	r1, [pc, #44]	@ (8005c74 <UART_SetConfig+0x88>)
 8005c48:	fba1 4203 	umull	r4, r2, r1, r3
 8005c4c:	0952      	lsrs	r2, r2, #5
 8005c4e:	2464      	movs	r4, #100	@ 0x64
 8005c50:	fb04 3312 	mls	r3, r4, r2, r3
 8005c54:	011b      	lsls	r3, r3, #4
 8005c56:	3332      	adds	r3, #50	@ 0x32
 8005c58:	fba1 1303 	umull	r1, r3, r1, r3
 8005c5c:	0112      	lsls	r2, r2, #4
 8005c5e:	eb02 1253 	add.w	r2, r2, r3, lsr #5
 8005c62:	6082      	str	r2, [r0, #8]
#endif /* USART_CR1_OVER8 */
}
 8005c64:	bd10      	pop	{r4, pc}
    pclk = HAL_RCC_GetPCLK2Freq();
 8005c66:	f7ff fa23 	bl	80050b0 <HAL_RCC_GetPCLK2Freq>
 8005c6a:	4603      	mov	r3, r0
 8005c6c:	e7e2      	b.n	8005c34 <UART_SetConfig+0x48>
 8005c6e:	bf00      	nop
 8005c70:	40013800 	.word	0x40013800
 8005c74:	51eb851f 	.word	0x51eb851f

08005c78 <UART_WaitOnFlagUntilTimeout>:
{
 8005c78:	e92d 43f8 	stmdb	sp!, {r3, r4, r5, r6, r7, r8, r9, lr}
 8005c7c:	4680      	mov	r8, r0
 8005c7e:	460e      	mov	r6, r1
 8005c80:	4615      	mov	r5, r2
 8005c82:	4699      	mov	r9, r3
 8005c84:	9f08      	ldr	r7, [sp, #32]
  while ((__HAL_UART_GET_FLAG(huart, Flag) ? SET : RESET) == Status)
 8005c86:	f8d8 3000 	ldr.w	r3, [r8]
 8005c8a:	681c      	ldr	r4, [r3, #0]
 8005c8c:	ea36 0404 	bics.w	r4, r6, r4
 8005c90:	bf0c      	ite	eq
 8005c92:	2401      	moveq	r4, #1
 8005c94:	2400      	movne	r4, #0
 8005c96:	42ac      	cmp	r4, r5
 8005c98:	d12d      	bne.n	8005cf6 <UART_WaitOnFlagUntilTimeout+0x7e>
    if (Timeout != HAL_MAX_DELAY)
 8005c9a:	f1b7 3fff 	cmp.w	r7, #4294967295
 8005c9e:	d0f4      	beq.n	8005c8a <UART_WaitOnFlagUntilTimeout+0x12>
      if ((Timeout == 0U) || ((HAL_GetTick() - Tickstart) > Timeout))
 8005ca0:	b12f      	cbz	r7, 8005cae <UART_WaitOnFlagUntilTimeout+0x36>
 8005ca2:	f7fd fd1d 	bl	80036e0 <HAL_GetTick>
 8005ca6:	eba0 0009 	sub.w	r0, r0, r9
 8005caa:	42b8      	cmp	r0, r7
 8005cac:	d9eb      	bls.n	8005c86 <UART_WaitOnFlagUntilTimeout+0xe>
        ATOMIC_CLEAR_BIT(huart->Instance->CR1, (USART_CR1_RXNEIE | USART_CR1_PEIE | USART_CR1_TXEIE));
 8005cae:	f8d8 2000 	ldr.w	r2, [r8]
   __ASM volatile ("ldrex %0, %1" : "=r" (result) : "Q" (*addr) );
 8005cb2:	f102 030c 	add.w	r3, r2, #12
 8005cb6:	e853 3f00 	ldrex	r3, [r3]
 8005cba:	f423 73d0 	bic.w	r3, r3, #416	@ 0x1a0
   __ASM volatile ("strex %0, %2, %1" : "=&r" (result), "=Q" (*addr) : "r" (value) );
 8005cbe:	320c      	adds	r2, #12
 8005cc0:	e842 3100 	strex	r1, r3, [r2]
 8005cc4:	2900      	cmp	r1, #0
 8005cc6:	d1f2      	bne.n	8005cae <UART_WaitOnFlagUntilTimeout+0x36>
        ATOMIC_CLEAR_BIT(huart->Instance->CR3, USART_CR3_EIE);
 8005cc8:	f8d8 2000 	ldr.w	r2, [r8]
   __ASM volatile ("ldrex %0, %1" : "=r" (result) : "Q" (*addr) );
 8005ccc:	f102 0314 	add.w	r3, r2, #20
 8005cd0:	e853 3f00 	ldrex	r3, [r3]
 8005cd4:	f023 0301 	bic.w	r3, r3, #1
   __ASM volatile ("strex %0, %2, %1" : "=&r" (result), "=Q" (*addr) : "r" (value) );
 8005cd8:	3214      	adds	r2, #20
 8005cda:	e842 3100 	strex	r1, r3, [r2]
 8005cde:	2900      	cmp	r1, #0
 8005ce0:	d1f2      	bne.n	8005cc8 <UART_WaitOnFlagUntilTimeout+0x50>
        huart->gState  = HAL_UART_STATE_READY;
 8005ce2:	2320      	movs	r3, #32
 8005ce4:	f888 3041 	strb.w	r3, [r8, #65]	@ 0x41
        huart->RxState = HAL_UART_STATE_READY;
 8005ce8:	f888 3042 	strb.w	r3, [r8, #66]	@ 0x42
        __HAL_UNLOCK(huart);
 8005cec:	2300      	movs	r3, #0
 8005cee:	f888 3040 	strb.w	r3, [r8, #64]	@ 0x40
        return HAL_TIMEOUT;
 8005cf2:	2003      	movs	r0, #3
 8005cf4:	e000      	b.n	8005cf8 <UART_WaitOnFlagUntilTimeout+0x80>
  return HAL_OK;
 8005cf6:	2000      	movs	r0, #0
}
 8005cf8:	e8bd 83f8 	ldmia.w	sp!, {r3, r4, r5, r6, r7, r8, r9, pc}

08005cfc <HAL_UART_Init>:
  if (huart == NULL)
 8005cfc:	b360      	cbz	r0, 8005d58 <HAL_UART_Init+0x5c>
{
 8005cfe:	b510      	push	{r4, lr}
 8005d00:	4604      	mov	r4, r0
  if (huart->gState == HAL_UART_STATE_RESET)
 8005d02:	f890 3041 	ldrb.w	r3, [r0, #65]	@ 0x41
 8005d06:	b313      	cbz	r3, 8005d4e <HAL_UART_Init+0x52>
  huart->gState = HAL_UART_STATE_BUSY;
 8005d08:	2324      	movs	r3, #36	@ 0x24
 8005d0a:	f884 3041 	strb.w	r3, [r4, #65]	@ 0x41
  __HAL_UART_DISABLE(huart);
 8005d0e:	6822      	ldr	r2, [r4, #0]
 8005d10:	68d3      	ldr	r3, [r2, #12]
 8005d12:	f423 5300 	bic.w	r3, r3, #8192	@ 0x2000
 8005d16:	60d3      	str	r3, [r2, #12]
  UART_SetConfig(huart);
 8005d18:	4620      	mov	r0, r4
 8005d1a:	f7ff ff67 	bl	8005bec <UART_SetConfig>
  CLEAR_BIT(huart->Instance->CR2, (USART_CR2_LINEN | USART_CR2_CLKEN));
 8005d1e:	6822      	ldr	r2, [r4, #0]
 8005d20:	6913      	ldr	r3, [r2, #16]
 8005d22:	f423 4390 	bic.w	r3, r3, #18432	@ 0x4800
 8005d26:	6113      	str	r3, [r2, #16]
  CLEAR_BIT(huart->Instance->CR3, (USART_CR3_SCEN | USART_CR3_HDSEL | USART_CR3_IREN));
 8005d28:	6822      	ldr	r2, [r4, #0]
 8005d2a:	6953      	ldr	r3, [r2, #20]
 8005d2c:	f023 032a 	bic.w	r3, r3, #42	@ 0x2a
 8005d30:	6153      	str	r3, [r2, #20]
  __HAL_UART_ENABLE(huart);
 8005d32:	6822      	ldr	r2, [r4, #0]
 8005d34:	68d3      	ldr	r3, [r2, #12]
 8005d36:	f443 5300 	orr.w	r3, r3, #8192	@ 0x2000
 8005d3a:	60d3      	str	r3, [r2, #12]
  huart->ErrorCode = HAL_UART_ERROR_NONE;
 8005d3c:	2000      	movs	r0, #0
 8005d3e:	6460      	str	r0, [r4, #68]	@ 0x44
  huart->gState = HAL_UART_STATE_READY;
 8005d40:	2320      	movs	r3, #32
 8005d42:	f884 3041 	strb.w	r3, [r4, #65]	@ 0x41
  huart->RxState = HAL_UART_STATE_READY;
 8005d46:	f884 3042 	strb.w	r3, [r4, #66]	@ 0x42
  huart->RxEventType = HAL_UART_RXEVENT_TC;
 8005d4a:	6360      	str	r0, [r4, #52]	@ 0x34
}
 8005d4c:	bd10      	pop	{r4, pc}
    huart->Lock = HAL_UNLOCKED;
 8005d4e:	f880 3040 	strb.w	r3, [r0, #64]	@ 0x40
    HAL_UART_MspInit(huart);
 8005d52:	f7fd fab9 	bl	80032c8 <HAL_UART_MspInit>
 8005d56:	e7d7      	b.n	8005d08 <HAL_UART_Init+0xc>
    return HAL_ERROR;
 8005d58:	2001      	movs	r0, #1
}
 8005d5a:	4770      	bx	lr

08005d5c <HAL_UART_Transmit>:
{
 8005d5c:	e92d 47f0 	stmdb	sp!, {r4, r5, r6, r7, r8, r9, sl, lr}
 8005d60:	b082      	sub	sp, #8
 8005d62:	461e      	mov	r6, r3
  if (huart->gState == HAL_UART_STATE_READY)
 8005d64:	f890 3041 	ldrb.w	r3, [r0, #65]	@ 0x41
 8005d68:	b2db      	uxtb	r3, r3
 8005d6a:	2b20      	cmp	r3, #32
 8005d6c:	d151      	bne.n	8005e12 <HAL_UART_Transmit+0xb6>
 8005d6e:	4604      	mov	r4, r0
 8005d70:	460d      	mov	r5, r1
 8005d72:	4690      	mov	r8, r2
    if ((pData == NULL) || (Size == 0U))
 8005d74:	2900      	cmp	r1, #0
 8005d76:	d050      	beq.n	8005e1a <HAL_UART_Transmit+0xbe>
 8005d78:	b90a      	cbnz	r2, 8005d7e <HAL_UART_Transmit+0x22>
      return  HAL_ERROR;
 8005d7a:	2001      	movs	r0, #1
 8005d7c:	e04a      	b.n	8005e14 <HAL_UART_Transmit+0xb8>
    huart->ErrorCode = HAL_UART_ERROR_NONE;
 8005d7e:	2300      	movs	r3, #0
 8005d80:	6443      	str	r3, [r0, #68]	@ 0x44
    huart->gState = HAL_UART_STATE_BUSY_TX;
 8005d82:	2321      	movs	r3, #33	@ 0x21
 8005d84:	f880 3041 	strb.w	r3, [r0, #65]	@ 0x41
    tickstart = HAL_GetTick();
 8005d88:	f7fd fcaa 	bl	80036e0 <HAL_GetTick>
 8005d8c:	4607      	mov	r7, r0
    huart->TxXferSize = Size;
 8005d8e:	f8a4 8024 	strh.w	r8, [r4, #36]	@ 0x24
    huart->TxXferCount = Size;
 8005d92:	f8a4 8026 	strh.w	r8, [r4, #38]	@ 0x26
    if ((huart->Init.WordLength == UART_WORDLENGTH_9B) && (huart->Init.Parity == UART_PARITY_NONE))
 8005d96:	68a3      	ldr	r3, [r4, #8]
 8005d98:	f5b3 5f80 	cmp.w	r3, #4096	@ 0x1000
 8005d9c:	d009      	beq.n	8005db2 <HAL_UART_Transmit+0x56>
      pdata16bits = NULL;
 8005d9e:	f04f 0a00 	mov.w	sl, #0
    while (huart->TxXferCount > 0U)
 8005da2:	8ce3      	ldrh	r3, [r4, #38]	@ 0x26
 8005da4:	b29b      	uxth	r3, r3
 8005da6:	b343      	cbz	r3, 8005dfa <HAL_UART_Transmit+0x9e>
      if (UART_WaitOnFlagUntilTimeout(huart, UART_FLAG_TXE, RESET, tickstart, Timeout) != HAL_OK)
 8005da8:	f04f 0900 	mov.w	r9, #0
 8005dac:	f04f 0880 	mov.w	r8, #128	@ 0x80
 8005db0:	e014      	b.n	8005ddc <HAL_UART_Transmit+0x80>
    if ((huart->Init.WordLength == UART_WORDLENGTH_9B) && (huart->Init.Parity == UART_PARITY_NONE))
 8005db2:	6923      	ldr	r3, [r4, #16]
 8005db4:	b113      	cbz	r3, 8005dbc <HAL_UART_Transmit+0x60>
      pdata16bits = NULL;
 8005db6:	f04f 0a00 	mov.w	sl, #0
 8005dba:	e7f2      	b.n	8005da2 <HAL_UART_Transmit+0x46>
      pdata16bits = (const uint16_t *) pData;
 8005dbc:	46aa      	mov	sl, r5
      pdata8bits  = NULL;
 8005dbe:	2500      	movs	r5, #0
 8005dc0:	e7ef      	b.n	8005da2 <HAL_UART_Transmit+0x46>
        huart->Instance->DR = (uint16_t)(*pdata16bits & 0x01FFU);
 8005dc2:	6822      	ldr	r2, [r4, #0]
 8005dc4:	f83a 3b02 	ldrh.w	r3, [sl], #2
 8005dc8:	f3c3 0308 	ubfx	r3, r3, #0, #9
 8005dcc:	6053      	str	r3, [r2, #4]
      huart->TxXferCount--;
 8005dce:	8ce2      	ldrh	r2, [r4, #38]	@ 0x26
 8005dd0:	3a01      	subs	r2, #1
 8005dd2:	b292      	uxth	r2, r2
 8005dd4:	84e2      	strh	r2, [r4, #38]	@ 0x26
    while (huart->TxXferCount > 0U)
 8005dd6:	8ce3      	ldrh	r3, [r4, #38]	@ 0x26
 8005dd8:	b29b      	uxth	r3, r3
 8005dda:	b173      	cbz	r3, 8005dfa <HAL_UART_Transmit+0x9e>
      if (UART_WaitOnFlagUntilTimeout(huart, UART_FLAG_TXE, RESET, tickstart, Timeout) != HAL_OK)
 8005ddc:	9600      	str	r6, [sp, #0]
 8005dde:	463b      	mov	r3, r7
 8005de0:	464a      	mov	r2, r9
 8005de2:	4641      	mov	r1, r8
 8005de4:	4620      	mov	r0, r4
 8005de6:	f7ff ff47 	bl	8005c78 <UART_WaitOnFlagUntilTimeout>
 8005dea:	b9c0      	cbnz	r0, 8005e1e <HAL_UART_Transmit+0xc2>
      if (pdata8bits == NULL)
 8005dec:	2d00      	cmp	r5, #0
 8005dee:	d0e8      	beq.n	8005dc2 <HAL_UART_Transmit+0x66>
        huart->Instance->DR = (uint8_t)(*pdata8bits & 0xFFU);
 8005df0:	6823      	ldr	r3, [r4, #0]
 8005df2:	f815 2b01 	ldrb.w	r2, [r5], #1
 8005df6:	605a      	str	r2, [r3, #4]
        pdata8bits++;
 8005df8:	e7e9      	b.n	8005dce <HAL_UART_Transmit+0x72>
    if (UART_WaitOnFlagUntilTimeout(huart, UART_FLAG_TC, RESET, tickstart, Timeout) != HAL_OK)
 8005dfa:	9600      	str	r6, [sp, #0]
 8005dfc:	463b      	mov	r3, r7
 8005dfe:	2200      	movs	r2, #0
 8005e00:	2140      	movs	r1, #64	@ 0x40
 8005e02:	4620      	mov	r0, r4
 8005e04:	f7ff ff38 	bl	8005c78 <UART_WaitOnFlagUntilTimeout>
 8005e08:	b958      	cbnz	r0, 8005e22 <HAL_UART_Transmit+0xc6>
    huart->gState = HAL_UART_STATE_READY;
 8005e0a:	2320      	movs	r3, #32
 8005e0c:	f884 3041 	strb.w	r3, [r4, #65]	@ 0x41
    return HAL_OK;
 8005e10:	e000      	b.n	8005e14 <HAL_UART_Transmit+0xb8>
    return HAL_BUSY;
 8005e12:	2002      	movs	r0, #2
}
 8005e14:	b002      	add	sp, #8
 8005e16:	e8bd 87f0 	ldmia.w	sp!, {r4, r5, r6, r7, r8, r9, sl, pc}
      return  HAL_ERROR;
 8005e1a:	2001      	movs	r0, #1
 8005e1c:	e7fa      	b.n	8005e14 <HAL_UART_Transmit+0xb8>
        return HAL_TIMEOUT;
 8005e1e:	2003      	movs	r0, #3
 8005e20:	e7f8      	b.n	8005e14 <HAL_UART_Transmit+0xb8>
      return HAL_TIMEOUT;
 8005e22:	2003      	movs	r0, #3
 8005e24:	e7f6      	b.n	8005e14 <HAL_UART_Transmit+0xb8>

08005e26 <HAL_UART_Receive>:
{
 8005e26:	e92d 47f0 	stmdb	sp!, {r4, r5, r6, r7, r8, r9, sl, lr}
 8005e2a:	b082      	sub	sp, #8
 8005e2c:	461e      	mov	r6, r3
  if (huart->RxState == HAL_UART_STATE_READY)
 8005e2e:	f890 3042 	ldrb.w	r3, [r0, #66]	@ 0x42
 8005e32:	b2db      	uxtb	r3, r3
 8005e34:	2b20      	cmp	r3, #32
 8005e36:	d15a      	bne.n	8005eee <HAL_UART_Receive+0xc8>
 8005e38:	4604      	mov	r4, r0
 8005e3a:	460d      	mov	r5, r1
 8005e3c:	4690      	mov	r8, r2
    if ((pData == NULL) || (Size == 0U))
 8005e3e:	2900      	cmp	r1, #0
 8005e40:	d059      	beq.n	8005ef6 <HAL_UART_Receive+0xd0>
 8005e42:	b90a      	cbnz	r2, 8005e48 <HAL_UART_Receive+0x22>
      return  HAL_ERROR;
 8005e44:	2001      	movs	r0, #1
 8005e46:	e053      	b.n	8005ef0 <HAL_UART_Receive+0xca>
    huart->ErrorCode = HAL_UART_ERROR_NONE;
 8005e48:	2300      	movs	r3, #0
 8005e4a:	6443      	str	r3, [r0, #68]	@ 0x44
    huart->RxState = HAL_UART_STATE_BUSY_RX;
 8005e4c:	2222      	movs	r2, #34	@ 0x22
 8005e4e:	f880 2042 	strb.w	r2, [r0, #66]	@ 0x42
    huart->ReceptionType = HAL_UART_RECEPTION_STANDARD;
 8005e52:	6303      	str	r3, [r0, #48]	@ 0x30
    tickstart = HAL_GetTick();
 8005e54:	f7fd fc44 	bl	80036e0 <HAL_GetTick>
 8005e58:	4607      	mov	r7, r0
    huart->RxXferSize = Size;
 8005e5a:	f8a4 802c 	strh.w	r8, [r4, #44]	@ 0x2c
    huart->RxXferCount = Size;
 8005e5e:	f8a4 802e 	strh.w	r8, [r4, #46]	@ 0x2e
    if ((huart->Init.WordLength == UART_WORDLENGTH_9B) && (huart->Init.Parity == UART_PARITY_NONE))
 8005e62:	68a3      	ldr	r3, [r4, #8]
 8005e64:	f5b3 5f80 	cmp.w	r3, #4096	@ 0x1000
 8005e68:	d00a      	beq.n	8005e80 <HAL_UART_Receive+0x5a>
      pdata16bits = NULL;
 8005e6a:	f04f 0a00 	mov.w	sl, #0
    while (huart->RxXferCount > 0U)
 8005e6e:	8de3      	ldrh	r3, [r4, #46]	@ 0x2e
 8005e70:	b29b      	uxth	r3, r3
 8005e72:	2b00      	cmp	r3, #0
 8005e74:	d036      	beq.n	8005ee4 <HAL_UART_Receive+0xbe>
      if (UART_WaitOnFlagUntilTimeout(huart, UART_FLAG_RXNE, RESET, tickstart, Timeout) != HAL_OK)
 8005e76:	f04f 0900 	mov.w	r9, #0
 8005e7a:	f04f 0820 	mov.w	r8, #32
 8005e7e:	e01a      	b.n	8005eb6 <HAL_UART_Receive+0x90>
    if ((huart->Init.WordLength == UART_WORDLENGTH_9B) && (huart->Init.Parity == UART_PARITY_NONE))
 8005e80:	6923      	ldr	r3, [r4, #16]
 8005e82:	b113      	cbz	r3, 8005e8a <HAL_UART_Receive+0x64>
      pdata16bits = NULL;
 8005e84:	f04f 0a00 	mov.w	sl, #0
 8005e88:	e7f1      	b.n	8005e6e <HAL_UART_Receive+0x48>
      pdata16bits = (uint16_t *) pData;
 8005e8a:	46aa      	mov	sl, r5
      pdata8bits  = NULL;
 8005e8c:	2500      	movs	r5, #0
 8005e8e:	e7ee      	b.n	8005e6e <HAL_UART_Receive+0x48>
        *pdata16bits = (uint16_t)(huart->Instance->DR & 0x01FF);
 8005e90:	6823      	ldr	r3, [r4, #0]
 8005e92:	685b      	ldr	r3, [r3, #4]
 8005e94:	f3c3 0308 	ubfx	r3, r3, #0, #9
 8005e98:	f82a 3b02 	strh.w	r3, [sl], #2
        pdata16bits++;
 8005e9c:	e004      	b.n	8005ea8 <HAL_UART_Receive+0x82>
          *pdata8bits = (uint8_t)(huart->Instance->DR & (uint8_t)0x00FF);
 8005e9e:	6823      	ldr	r3, [r4, #0]
 8005ea0:	685b      	ldr	r3, [r3, #4]
 8005ea2:	b2db      	uxtb	r3, r3
 8005ea4:	f805 3b01 	strb.w	r3, [r5], #1
      huart->RxXferCount--;
 8005ea8:	8de2      	ldrh	r2, [r4, #46]	@ 0x2e
 8005eaa:	3a01      	subs	r2, #1
 8005eac:	b292      	uxth	r2, r2
 8005eae:	85e2      	strh	r2, [r4, #46]	@ 0x2e
    while (huart->RxXferCount > 0U)
 8005eb0:	8de3      	ldrh	r3, [r4, #46]	@ 0x2e
 8005eb2:	b29b      	uxth	r3, r3
 8005eb4:	b1b3      	cbz	r3, 8005ee4 <HAL_UART_Receive+0xbe>
      if (UART_WaitOnFlagUntilTimeout(huart, UART_FLAG_RXNE, RESET, tickstart, Timeout) != HAL_OK)
 8005eb6:	9600      	str	r6, [sp, #0]
 8005eb8:	463b      	mov	r3, r7
 8005eba:	464a      	mov	r2, r9
 8005ebc:	4641      	mov	r1, r8
 8005ebe:	4620      	mov	r0, r4
 8005ec0:	f7ff feda 	bl	8005c78 <UART_WaitOnFlagUntilTimeout>
 8005ec4:	b9c8      	cbnz	r0, 8005efa <HAL_UART_Receive+0xd4>
      if (pdata8bits == NULL)
 8005ec6:	2d00      	cmp	r5, #0
 8005ec8:	d0e2      	beq.n	8005e90 <HAL_UART_Receive+0x6a>
        if ((huart->Init.WordLength == UART_WORDLENGTH_9B) || ((huart->Init.WordLength == UART_WORDLENGTH_8B) && (huart->Init.Parity == UART_PARITY_NONE)))
 8005eca:	68a3      	ldr	r3, [r4, #8]
 8005ecc:	f5b3 5f80 	cmp.w	r3, #4096	@ 0x1000
 8005ed0:	d0e5      	beq.n	8005e9e <HAL_UART_Receive+0x78>
 8005ed2:	b913      	cbnz	r3, 8005eda <HAL_UART_Receive+0xb4>
 8005ed4:	6923      	ldr	r3, [r4, #16]
 8005ed6:	2b00      	cmp	r3, #0
 8005ed8:	d0e1      	beq.n	8005e9e <HAL_UART_Receive+0x78>
          *pdata8bits = (uint8_t)(huart->Instance->DR & (uint8_t)0x007F);
 8005eda:	6823      	ldr	r3, [r4, #0]
 8005edc:	685b      	ldr	r3, [r3, #4]
 8005ede:	f003 037f 	and.w	r3, r3, #127	@ 0x7f
 8005ee2:	e7df      	b.n	8005ea4 <HAL_UART_Receive+0x7e>
    huart->RxState = HAL_UART_STATE_READY;
 8005ee4:	2320      	movs	r3, #32
 8005ee6:	f884 3042 	strb.w	r3, [r4, #66]	@ 0x42
    return HAL_OK;
 8005eea:	2000      	movs	r0, #0
 8005eec:	e000      	b.n	8005ef0 <HAL_UART_Receive+0xca>
    return HAL_BUSY;
 8005eee:	2002      	movs	r0, #2
}
 8005ef0:	b002      	add	sp, #8
 8005ef2:	e8bd 87f0 	ldmia.w	sp!, {r4, r5, r6, r7, r8, r9, sl, pc}
      return  HAL_ERROR;
 8005ef6:	2001      	movs	r0, #1
 8005ef8:	e7fa      	b.n	8005ef0 <HAL_UART_Receive+0xca>
        return HAL_TIMEOUT;
 8005efa:	2003      	movs	r0, #3
 8005efc:	e7f8      	b.n	8005ef0 <HAL_UART_Receive+0xca>

08005efe <HAL_UART_TxCpltCallback>:
}
 8005efe:	4770      	bx	lr

08005f00 <HAL_UART_RxCpltCallback>:
}
 8005f00:	4770      	bx	lr

08005f02 <HAL_UART_ErrorCallback>:
}
 8005f02:	4770      	bx	lr

08005f04 <UART_DMAAbortOnError>:
{
 8005f04:	b508      	push	{r3, lr}
  UART_HandleTypeDef *huart = (UART_HandleTypeDef *)((DMA_HandleTypeDef *)hdma)->Parent;
 8005f06:	6a40      	ldr	r0, [r0, #36]	@ 0x24
  huart->RxXferCount = 0x00U;
 8005f08:	2300      	movs	r3, #0
 8005f0a:	85c3      	strh	r3, [r0, #46]	@ 0x2e
  huart->TxXferCount = 0x00U;
 8005f0c:	84c3      	strh	r3, [r0, #38]	@ 0x26
  HAL_UART_ErrorCallback(huart);
 8005f0e:	f7ff fff8 	bl	8005f02 <HAL_UART_ErrorCallback>
}
 8005f12:	bd08      	pop	{r3, pc}

08005f14 <HAL_UARTEx_RxEventCallback>:
}
 8005f14:	4770      	bx	lr

08005f16 <UART_Receive_IT>:
  if (huart->RxState == HAL_UART_STATE_BUSY_RX)
 8005f16:	f890 3042 	ldrb.w	r3, [r0, #66]	@ 0x42
 8005f1a:	b2db      	uxtb	r3, r3
 8005f1c:	2b22      	cmp	r3, #34	@ 0x22
 8005f1e:	d11d      	bne.n	8005f5c <UART_Receive_IT+0x46>
    if ((huart->Init.WordLength == UART_WORDLENGTH_9B) && (huart->Init.Parity == UART_PARITY_NONE))
 8005f20:	6883      	ldr	r3, [r0, #8]
 8005f22:	f5b3 5f80 	cmp.w	r3, #4096	@ 0x1000
 8005f26:	d006      	beq.n	8005f36 <UART_Receive_IT+0x20>
      pdata8bits = (uint8_t *) huart->pRxBuffPtr;
 8005f28:	6a82      	ldr	r2, [r0, #40]	@ 0x28
      if ((huart->Init.WordLength == UART_WORDLENGTH_9B) || ((huart->Init.WordLength == UART_WORDLENGTH_8B) && (huart->Init.Parity == UART_PARITY_NONE)))
 8005f2a:	b17b      	cbz	r3, 8005f4c <UART_Receive_IT+0x36>
        *pdata8bits = (uint8_t)(huart->Instance->DR & (uint8_t)0x007F);
 8005f2c:	6803      	ldr	r3, [r0, #0]
 8005f2e:	685b      	ldr	r3, [r3, #4]
 8005f30:	f003 037f 	and.w	r3, r3, #127	@ 0x7f
 8005f34:	e01a      	b.n	8005f6c <UART_Receive_IT+0x56>
    if ((huart->Init.WordLength == UART_WORDLENGTH_9B) && (huart->Init.Parity == UART_PARITY_NONE))
 8005f36:	6903      	ldr	r3, [r0, #16]
 8005f38:	b9a3      	cbnz	r3, 8005f64 <UART_Receive_IT+0x4e>
      pdata16bits = (uint16_t *) huart->pRxBuffPtr;
 8005f3a:	6a82      	ldr	r2, [r0, #40]	@ 0x28
      *pdata16bits = (uint16_t)(huart->Instance->DR & (uint16_t)0x01FF);
 8005f3c:	6803      	ldr	r3, [r0, #0]
 8005f3e:	685b      	ldr	r3, [r3, #4]
 8005f40:	f3c3 0308 	ubfx	r3, r3, #0, #9
 8005f44:	8013      	strh	r3, [r2, #0]
      huart->pRxBuffPtr += 2U;
 8005f46:	6a83      	ldr	r3, [r0, #40]	@ 0x28
 8005f48:	3302      	adds	r3, #2
 8005f4a:	e012      	b.n	8005f72 <UART_Receive_IT+0x5c>
      if ((huart->Init.WordLength == UART_WORDLENGTH_9B) || ((huart->Init.WordLength == UART_WORDLENGTH_8B) && (huart->Init.Parity == UART_PARITY_NONE)))
 8005f4c:	6903      	ldr	r3, [r0, #16]
 8005f4e:	2b00      	cmp	r3, #0
 8005f50:	d1ec      	bne.n	8005f2c <UART_Receive_IT+0x16>
 8005f52:	e008      	b.n	8005f66 <UART_Receive_IT+0x50>
        HAL_UART_RxCpltCallback(huart);
 8005f54:	f7ff ffd4 	bl	8005f00 <HAL_UART_RxCpltCallback>
      return HAL_OK;
 8005f58:	2000      	movs	r0, #0
 8005f5a:	e048      	b.n	8005fee <UART_Receive_IT+0xd8>
    return HAL_BUSY;
 8005f5c:	2002      	movs	r0, #2
 8005f5e:	4770      	bx	lr
    return HAL_OK;
 8005f60:	2000      	movs	r0, #0
}
 8005f62:	4770      	bx	lr
      pdata8bits = (uint8_t *) huart->pRxBuffPtr;
 8005f64:	6a82      	ldr	r2, [r0, #40]	@ 0x28
        *pdata8bits = (uint8_t)(huart->Instance->DR & (uint8_t)0x00FF);
 8005f66:	6803      	ldr	r3, [r0, #0]
 8005f68:	685b      	ldr	r3, [r3, #4]
 8005f6a:	b2db      	uxtb	r3, r3
 8005f6c:	7013      	strb	r3, [r2, #0]
      huart->pRxBuffPtr += 1U;
 8005f6e:	6a83      	ldr	r3, [r0, #40]	@ 0x28
 8005f70:	3301      	adds	r3, #1
      huart->pRxBuffPtr += 2U;
 8005f72:	6283      	str	r3, [r0, #40]	@ 0x28
    if (--huart->RxXferCount == 0U)
 8005f74:	8dc3      	ldrh	r3, [r0, #46]	@ 0x2e
 8005f76:	3b01      	subs	r3, #1
 8005f78:	b29b      	uxth	r3, r3
 8005f7a:	85c3      	strh	r3, [r0, #46]	@ 0x2e
 8005f7c:	2b00      	cmp	r3, #0
 8005f7e:	d1ef      	bne.n	8005f60 <UART_Receive_IT+0x4a>
{
 8005f80:	b500      	push	{lr}
 8005f82:	b083      	sub	sp, #12
      __HAL_UART_DISABLE_IT(huart, UART_IT_RXNE);
 8005f84:	6802      	ldr	r2, [r0, #0]
 8005f86:	68d3      	ldr	r3, [r2, #12]
 8005f88:	f023 0320 	bic.w	r3, r3, #32
 8005f8c:	60d3      	str	r3, [r2, #12]
      __HAL_UART_DISABLE_IT(huart, UART_IT_PE);
 8005f8e:	6802      	ldr	r2, [r0, #0]
 8005f90:	68d3      	ldr	r3, [r2, #12]
 8005f92:	f423 7380 	bic.w	r3, r3, #256	@ 0x100
 8005f96:	60d3      	str	r3, [r2, #12]
      __HAL_UART_DISABLE_IT(huart, UART_IT_ERR);
 8005f98:	6802      	ldr	r2, [r0, #0]
 8005f9a:	6953      	ldr	r3, [r2, #20]
 8005f9c:	f023 0301 	bic.w	r3, r3, #1
 8005fa0:	6153      	str	r3, [r2, #20]
      huart->RxState = HAL_UART_STATE_READY;
 8005fa2:	2320      	movs	r3, #32
 8005fa4:	f880 3042 	strb.w	r3, [r0, #66]	@ 0x42
      huart->RxEventType = HAL_UART_RXEVENT_TC;
 8005fa8:	2300      	movs	r3, #0
 8005faa:	6343      	str	r3, [r0, #52]	@ 0x34
      if (huart->ReceptionType == HAL_UART_RECEPTION_TOIDLE)
 8005fac:	6b03      	ldr	r3, [r0, #48]	@ 0x30
 8005fae:	2b01      	cmp	r3, #1
 8005fb0:	d1d0      	bne.n	8005f54 <UART_Receive_IT+0x3e>
        huart->ReceptionType = HAL_UART_RECEPTION_STANDARD;
 8005fb2:	2300      	movs	r3, #0
 8005fb4:	6303      	str	r3, [r0, #48]	@ 0x30
        ATOMIC_CLEAR_BIT(huart->Instance->CR1, USART_CR1_IDLEIE);
 8005fb6:	6802      	ldr	r2, [r0, #0]
   __ASM volatile ("ldrex %0, %1" : "=r" (result) : "Q" (*addr) );
 8005fb8:	f102 030c 	add.w	r3, r2, #12
 8005fbc:	e853 3f00 	ldrex	r3, [r3]
 8005fc0:	f023 0310 	bic.w	r3, r3, #16
   __ASM volatile ("strex %0, %2, %1" : "=&r" (result), "=Q" (*addr) : "r" (value) );
 8005fc4:	320c      	adds	r2, #12
 8005fc6:	e842 3100 	strex	r1, r3, [r2]
 8005fca:	2900      	cmp	r1, #0
 8005fcc:	d1f3      	bne.n	8005fb6 <UART_Receive_IT+0xa0>
        if (__HAL_UART_GET_FLAG(huart, UART_FLAG_IDLE))
 8005fce:	6803      	ldr	r3, [r0, #0]
 8005fd0:	681a      	ldr	r2, [r3, #0]
 8005fd2:	f012 0f10 	tst.w	r2, #16
 8005fd6:	d006      	beq.n	8005fe6 <UART_Receive_IT+0xd0>
          __HAL_UART_CLEAR_IDLEFLAG(huart);
 8005fd8:	2200      	movs	r2, #0
 8005fda:	9201      	str	r2, [sp, #4]
 8005fdc:	681a      	ldr	r2, [r3, #0]
 8005fde:	9201      	str	r2, [sp, #4]
 8005fe0:	685b      	ldr	r3, [r3, #4]
 8005fe2:	9301      	str	r3, [sp, #4]
 8005fe4:	9b01      	ldr	r3, [sp, #4]
        HAL_UARTEx_RxEventCallback(huart, huart->RxXferSize);
 8005fe6:	8d81      	ldrh	r1, [r0, #44]	@ 0x2c
 8005fe8:	f7ff ff94 	bl	8005f14 <HAL_UARTEx_RxEventCallback>
      return HAL_OK;
 8005fec:	2000      	movs	r0, #0
}
 8005fee:	b003      	add	sp, #12
 8005ff0:	f85d fb04 	ldr.w	pc, [sp], #4

08005ff4 <HAL_UART_IRQHandler>:
{
 8005ff4:	b510      	push	{r4, lr}
 8005ff6:	b082      	sub	sp, #8
 8005ff8:	4604      	mov	r4, r0
  uint32_t isrflags   = READ_REG(huart->Instance->SR);
 8005ffa:	6802      	ldr	r2, [r0, #0]
 8005ffc:	6813      	ldr	r3, [r2, #0]
  uint32_t cr1its     = READ_REG(huart->Instance->CR1);
 8005ffe:	68d0      	ldr	r0, [r2, #12]
  uint32_t cr3its     = READ_REG(huart->Instance->CR3);
 8006000:	6951      	ldr	r1, [r2, #20]
  if (errorflags == RESET)
 8006002:	f013 0f0f 	tst.w	r3, #15
 8006006:	d109      	bne.n	800601c <HAL_UART_IRQHandler+0x28>
    if (((isrflags & USART_SR_RXNE) != RESET) && ((cr1its & USART_CR1_RXNEIE) != RESET))
 8006008:	f013 0f20 	tst.w	r3, #32
 800600c:	d00d      	beq.n	800602a <HAL_UART_IRQHandler+0x36>
 800600e:	f010 0f20 	tst.w	r0, #32
 8006012:	d00a      	beq.n	800602a <HAL_UART_IRQHandler+0x36>
      UART_Receive_IT(huart);
 8006014:	4620      	mov	r0, r4
 8006016:	f7ff ff7e 	bl	8005f16 <UART_Receive_IT>
      return;
 800601a:	e018      	b.n	800604e <HAL_UART_IRQHandler+0x5a>
  if ((errorflags != RESET) && (((cr3its & USART_CR3_EIE) != RESET)
 800601c:	f001 0101 	and.w	r1, r1, #1
                                || ((cr1its & (USART_CR1_RXNEIE | USART_CR1_PEIE)) != RESET)))
 8006020:	f400 7c90 	and.w	ip, r0, #288	@ 0x120
 8006024:	ea5c 0c01 	orrs.w	ip, ip, r1
 8006028:	d113      	bne.n	8006052 <HAL_UART_IRQHandler+0x5e>
  if ((huart->ReceptionType == HAL_UART_RECEPTION_TOIDLE)
 800602a:	6b21      	ldr	r1, [r4, #48]	@ 0x30
 800602c:	2901      	cmp	r1, #1
 800602e:	f000 8081 	beq.w	8006134 <HAL_UART_IRQHandler+0x140>
  if (((isrflags & USART_SR_TXE) != RESET) && ((cr1its & USART_CR1_TXEIE) != RESET))
 8006032:	f013 0f80 	tst.w	r3, #128	@ 0x80
 8006036:	d003      	beq.n	8006040 <HAL_UART_IRQHandler+0x4c>
 8006038:	f010 0f80 	tst.w	r0, #128	@ 0x80
 800603c:	f040 811a 	bne.w	8006274 <HAL_UART_IRQHandler+0x280>
  if (((isrflags & USART_SR_TC) != RESET) && ((cr1its & USART_CR1_TCIE) != RESET))
 8006040:	f013 0f40 	tst.w	r3, #64	@ 0x40
 8006044:	d003      	beq.n	800604e <HAL_UART_IRQHandler+0x5a>
 8006046:	f010 0f40 	tst.w	r0, #64	@ 0x40
 800604a:	f040 8140 	bne.w	80062ce <HAL_UART_IRQHandler+0x2da>
}
 800604e:	b002      	add	sp, #8
 8006050:	bd10      	pop	{r4, pc}
    if (((isrflags & USART_SR_PE) != RESET) && ((cr1its & USART_CR1_PEIE) != RESET))
 8006052:	f013 0f01 	tst.w	r3, #1
 8006056:	d006      	beq.n	8006066 <HAL_UART_IRQHandler+0x72>
 8006058:	f410 7f80 	tst.w	r0, #256	@ 0x100
 800605c:	d003      	beq.n	8006066 <HAL_UART_IRQHandler+0x72>
      huart->ErrorCode |= HAL_UART_ERROR_PE;
 800605e:	6c62      	ldr	r2, [r4, #68]	@ 0x44
 8006060:	f042 0201 	orr.w	r2, r2, #1
 8006064:	6462      	str	r2, [r4, #68]	@ 0x44
    if (((isrflags & USART_SR_NE) != RESET) && ((cr3its & USART_CR3_EIE) != RESET))
 8006066:	f013 0f04 	tst.w	r3, #4
 800606a:	d00b      	beq.n	8006084 <HAL_UART_IRQHandler+0x90>
 800606c:	b191      	cbz	r1, 8006094 <HAL_UART_IRQHandler+0xa0>
      huart->ErrorCode |= HAL_UART_ERROR_NE;
 800606e:	6c62      	ldr	r2, [r4, #68]	@ 0x44
 8006070:	f042 0202 	orr.w	r2, r2, #2
 8006074:	6462      	str	r2, [r4, #68]	@ 0x44
    if (((isrflags & USART_SR_FE) != RESET) && ((cr3its & USART_CR3_EIE) != RESET))
 8006076:	f013 0f02 	tst.w	r3, #2
 800607a:	d107      	bne.n	800608c <HAL_UART_IRQHandler+0x98>
    if (((isrflags & USART_SR_ORE) != RESET) && (((cr1its & USART_CR1_RXNEIE) != RESET)
 800607c:	f013 0f08 	tst.w	r3, #8
 8006080:	d10f      	bne.n	80060a2 <HAL_UART_IRQHandler+0xae>
 8006082:	e012      	b.n	80060aa <HAL_UART_IRQHandler+0xb6>
    if (((isrflags & USART_SR_FE) != RESET) && ((cr3its & USART_CR3_EIE) != RESET))
 8006084:	f013 0f02 	tst.w	r3, #2
 8006088:	d004      	beq.n	8006094 <HAL_UART_IRQHandler+0xa0>
 800608a:	b119      	cbz	r1, 8006094 <HAL_UART_IRQHandler+0xa0>
      huart->ErrorCode |= HAL_UART_ERROR_FE;
 800608c:	6c62      	ldr	r2, [r4, #68]	@ 0x44
 800608e:	f042 0204 	orr.w	r2, r2, #4
 8006092:	6462      	str	r2, [r4, #68]	@ 0x44
    if (((isrflags & USART_SR_ORE) != RESET) && (((cr1its & USART_CR1_RXNEIE) != RESET)
 8006094:	f013 0f08 	tst.w	r3, #8
 8006098:	d007      	beq.n	80060aa <HAL_UART_IRQHandler+0xb6>
 800609a:	f000 0220 	and.w	r2, r0, #32
 800609e:	430a      	orrs	r2, r1
 80060a0:	d003      	beq.n	80060aa <HAL_UART_IRQHandler+0xb6>
      huart->ErrorCode |= HAL_UART_ERROR_ORE;
 80060a2:	6c62      	ldr	r2, [r4, #68]	@ 0x44
 80060a4:	f042 0208 	orr.w	r2, r2, #8
 80060a8:	6462      	str	r2, [r4, #68]	@ 0x44
    if (huart->ErrorCode != HAL_UART_ERROR_NONE)
 80060aa:	6c62      	ldr	r2, [r4, #68]	@ 0x44
 80060ac:	2a00      	cmp	r2, #0
 80060ae:	d0ce      	beq.n	800604e <HAL_UART_IRQHandler+0x5a>
      if (((isrflags & USART_SR_RXNE) != RESET) && ((cr1its & USART_CR1_RXNEIE) != RESET))
 80060b0:	f013 0f20 	tst.w	r3, #32
 80060b4:	d002      	beq.n	80060bc <HAL_UART_IRQHandler+0xc8>
 80060b6:	f010 0f20 	tst.w	r0, #32
 80060ba:	d10e      	bne.n	80060da <HAL_UART_IRQHandler+0xe6>
      dmarequest = HAL_IS_BIT_SET(huart->Instance->CR3, USART_CR3_DMAR);
 80060bc:	6823      	ldr	r3, [r4, #0]
 80060be:	695b      	ldr	r3, [r3, #20]
      if (((huart->ErrorCode & HAL_UART_ERROR_ORE) != RESET) || dmarequest)
 80060c0:	6c62      	ldr	r2, [r4, #68]	@ 0x44
      dmarequest = HAL_IS_BIT_SET(huart->Instance->CR3, USART_CR3_DMAR);
 80060c2:	f003 0340 	and.w	r3, r3, #64	@ 0x40
      if (((huart->ErrorCode & HAL_UART_ERROR_ORE) != RESET) || dmarequest)
 80060c6:	f002 0208 	and.w	r2, r2, #8
 80060ca:	4313      	orrs	r3, r2
 80060cc:	d109      	bne.n	80060e2 <HAL_UART_IRQHandler+0xee>
        HAL_UART_ErrorCallback(huart);
 80060ce:	4620      	mov	r0, r4
 80060d0:	f7ff ff17 	bl	8005f02 <HAL_UART_ErrorCallback>
        huart->ErrorCode = HAL_UART_ERROR_NONE;
 80060d4:	2300      	movs	r3, #0
 80060d6:	6463      	str	r3, [r4, #68]	@ 0x44
 80060d8:	e7b9      	b.n	800604e <HAL_UART_IRQHandler+0x5a>
        UART_Receive_IT(huart);
 80060da:	4620      	mov	r0, r4
 80060dc:	f7ff ff1b 	bl	8005f16 <UART_Receive_IT>
 80060e0:	e7ec      	b.n	80060bc <HAL_UART_IRQHandler+0xc8>
        UART_EndRxTransfer(huart);
 80060e2:	4620      	mov	r0, r4
 80060e4:	f7ff fd53 	bl	8005b8e <UART_EndRxTransfer>
        if (HAL_IS_BIT_SET(huart->Instance->CR3, USART_CR3_DMAR))
 80060e8:	6823      	ldr	r3, [r4, #0]
 80060ea:	695b      	ldr	r3, [r3, #20]
 80060ec:	f013 0f40 	tst.w	r3, #64	@ 0x40
 80060f0:	d01c      	beq.n	800612c <HAL_UART_IRQHandler+0x138>
          ATOMIC_CLEAR_BIT(huart->Instance->CR3, USART_CR3_DMAR);
 80060f2:	6822      	ldr	r2, [r4, #0]
   __ASM volatile ("ldrex %0, %1" : "=r" (result) : "Q" (*addr) );
 80060f4:	f102 0314 	add.w	r3, r2, #20
 80060f8:	e853 3f00 	ldrex	r3, [r3]
 80060fc:	f023 0340 	bic.w	r3, r3, #64	@ 0x40
   __ASM volatile ("strex %0, %2, %1" : "=&r" (result), "=Q" (*addr) : "r" (value) );
 8006100:	3214      	adds	r2, #20
 8006102:	e842 3100 	strex	r1, r3, [r2]
 8006106:	2900      	cmp	r1, #0
 8006108:	d1f3      	bne.n	80060f2 <HAL_UART_IRQHandler+0xfe>
          if (huart->hdmarx != NULL)
 800610a:	6be3      	ldr	r3, [r4, #60]	@ 0x3c
 800610c:	b153      	cbz	r3, 8006124 <HAL_UART_IRQHandler+0x130>
            huart->hdmarx->XferAbortCallback = UART_DMAAbortOnError;
 800610e:	4a75      	ldr	r2, [pc, #468]	@ (80062e4 <HAL_UART_IRQHandler+0x2f0>)
 8006110:	635a      	str	r2, [r3, #52]	@ 0x34
            if (HAL_DMA_Abort_IT(huart->hdmarx) != HAL_OK)
 8006112:	6be0      	ldr	r0, [r4, #60]	@ 0x3c
 8006114:	f7fd ff7c 	bl	8004010 <HAL_DMA_Abort_IT>
 8006118:	2800      	cmp	r0, #0
 800611a:	d098      	beq.n	800604e <HAL_UART_IRQHandler+0x5a>
              huart->hdmarx->XferAbortCallback(huart->hdmarx);
 800611c:	6be0      	ldr	r0, [r4, #60]	@ 0x3c
 800611e:	6b43      	ldr	r3, [r0, #52]	@ 0x34
 8006120:	4798      	blx	r3
 8006122:	e794      	b.n	800604e <HAL_UART_IRQHandler+0x5a>
            HAL_UART_ErrorCallback(huart);
 8006124:	4620      	mov	r0, r4
 8006126:	f7ff feec 	bl	8005f02 <HAL_UART_ErrorCallback>
 800612a:	e790      	b.n	800604e <HAL_UART_IRQHandler+0x5a>
          HAL_UART_ErrorCallback(huart);
 800612c:	4620      	mov	r0, r4
 800612e:	f7ff fee8 	bl	8005f02 <HAL_UART_ErrorCallback>
 8006132:	e78c      	b.n	800604e <HAL_UART_IRQHandler+0x5a>
      && ((isrflags & USART_SR_IDLE) != 0U)
 8006134:	f013 0f10 	tst.w	r3, #16
 8006138:	f43f af7b 	beq.w	8006032 <HAL_UART_IRQHandler+0x3e>
      && ((cr1its & USART_SR_IDLE) != 0U))
 800613c:	f010 0f10 	tst.w	r0, #16
 8006140:	f43f af77 	beq.w	8006032 <HAL_UART_IRQHandler+0x3e>
    __HAL_UART_CLEAR_IDLEFLAG(huart);
 8006144:	2300      	movs	r3, #0
 8006146:	9301      	str	r3, [sp, #4]
 8006148:	6813      	ldr	r3, [r2, #0]
 800614a:	9301      	str	r3, [sp, #4]
 800614c:	6853      	ldr	r3, [r2, #4]
 800614e:	9301      	str	r3, [sp, #4]
 8006150:	9b01      	ldr	r3, [sp, #4]
    if (HAL_IS_BIT_SET(huart->Instance->CR3, USART_CR3_DMAR))
 8006152:	6953      	ldr	r3, [r2, #20]
 8006154:	f013 0f40 	tst.w	r3, #64	@ 0x40
 8006158:	d050      	beq.n	80061fc <HAL_UART_IRQHandler+0x208>
      uint16_t nb_remaining_rx_data = (uint16_t) __HAL_DMA_GET_COUNTER(huart->hdmarx);
 800615a:	6be2      	ldr	r2, [r4, #60]	@ 0x3c
 800615c:	6813      	ldr	r3, [r2, #0]
 800615e:	685b      	ldr	r3, [r3, #4]
 8006160:	b29b      	uxth	r3, r3
      if ((nb_remaining_rx_data > 0U)
 8006162:	2b00      	cmp	r3, #0
 8006164:	f43f af73 	beq.w	800604e <HAL_UART_IRQHandler+0x5a>
          && (nb_remaining_rx_data < huart->RxXferSize))
 8006168:	8da1      	ldrh	r1, [r4, #44]	@ 0x2c
 800616a:	4299      	cmp	r1, r3
 800616c:	f67f af6f 	bls.w	800604e <HAL_UART_IRQHandler+0x5a>
        huart->RxXferCount = nb_remaining_rx_data;
 8006170:	85e3      	strh	r3, [r4, #46]	@ 0x2e
        if (huart->hdmarx->Init.Mode != DMA_CIRCULAR)
 8006172:	6993      	ldr	r3, [r2, #24]
 8006174:	2b20      	cmp	r3, #32
 8006176:	d037      	beq.n	80061e8 <HAL_UART_IRQHandler+0x1f4>
          ATOMIC_CLEAR_BIT(huart->Instance->CR1, USART_CR1_PEIE);
 8006178:	6822      	ldr	r2, [r4, #0]
   __ASM volatile ("ldrex %0, %1" : "=r" (result) : "Q" (*addr) );
 800617a:	f102 030c 	add.w	r3, r2, #12
 800617e:	e853 3f00 	ldrex	r3, [r3]
 8006182:	f423 7380 	bic.w	r3, r3, #256	@ 0x100
   __ASM volatile ("strex %0, %2, %1" : "=&r" (result), "=Q" (*addr) : "r" (value) );
 8006186:	320c      	adds	r2, #12
 8006188:	e842 3100 	strex	r1, r3, [r2]
 800618c:	2900      	cmp	r1, #0
 800618e:	d1f3      	bne.n	8006178 <HAL_UART_IRQHandler+0x184>
          ATOMIC_CLEAR_BIT(huart->Instance->CR3, USART_CR3_EIE);
 8006190:	6822      	ldr	r2, [r4, #0]
   __ASM volatile ("ldrex %0, %1" : "=r" (result) : "Q" (*addr) );
 8006192:	f102 0314 	add.w	r3, r2, #20
 8006196:	e853 3f00 	ldrex	r3, [r3]
 800619a:	f023 0301 	bic.w	r3, r3, #1
   __ASM volatile ("strex %0, %2, %1" : "=&r" (result), "=Q" (*addr) : "r" (value) );
 800619e:	3214      	adds	r2, #20
 80061a0:	e842 3100 	strex	r1, r3, [r2]
 80061a4:	2900      	cmp	r1, #0
 80061a6:	d1f3      	bne.n	8006190 <HAL_UART_IRQHandler+0x19c>
          ATOMIC_CLEAR_BIT(huart->Instance->CR3, USART_CR3_DMAR);
 80061a8:	6822      	ldr	r2, [r4, #0]
   __ASM volatile ("ldrex %0, %1" : "=r" (result) : "Q" (*addr) );
 80061aa:	f102 0314 	add.w	r3, r2, #20
 80061ae:	e853 3f00 	ldrex	r3, [r3]
 80061b2:	f023 0340 	bic.w	r3, r3, #64	@ 0x40
   __ASM volatile ("strex %0, %2, %1" : "=&r" (result), "=Q" (*addr) : "r" (value) );
 80061b6:	3214      	adds	r2, #20
 80061b8:	e842 3100 	strex	r1, r3, [r2]
 80061bc:	2900      	cmp	r1, #0
 80061be:	d1f3      	bne.n	80061a8 <HAL_UART_IRQHandler+0x1b4>
          huart->RxState = HAL_UART_STATE_READY;
 80061c0:	2320      	movs	r3, #32
 80061c2:	f884 3042 	strb.w	r3, [r4, #66]	@ 0x42
          huart->ReceptionType = HAL_UART_RECEPTION_STANDARD;
 80061c6:	2300      	movs	r3, #0
 80061c8:	6323      	str	r3, [r4, #48]	@ 0x30
          ATOMIC_CLEAR_BIT(huart->Instance->CR1, USART_CR1_IDLEIE);
 80061ca:	6822      	ldr	r2, [r4, #0]
   __ASM volatile ("ldrex %0, %1" : "=r" (result) : "Q" (*addr) );
 80061cc:	f102 030c 	add.w	r3, r2, #12
 80061d0:	e853 3f00 	ldrex	r3, [r3]
 80061d4:	f023 0310 	bic.w	r3, r3, #16
   __ASM volatile ("strex %0, %2, %1" : "=&r" (result), "=Q" (*addr) : "r" (value) );
 80061d8:	320c      	adds	r2, #12
 80061da:	e842 3100 	strex	r1, r3, [r2]
 80061de:	2900      	cmp	r1, #0
 80061e0:	d1f3      	bne.n	80061ca <HAL_UART_IRQHandler+0x1d6>
          (void)HAL_DMA_Abort(huart->hdmarx);
 80061e2:	6be0      	ldr	r0, [r4, #60]	@ 0x3c
 80061e4:	f7fd fef3 	bl	8003fce <HAL_DMA_Abort>
        huart->RxEventType = HAL_UART_RXEVENT_IDLE;
 80061e8:	2302      	movs	r3, #2
 80061ea:	6363      	str	r3, [r4, #52]	@ 0x34
        HAL_UARTEx_RxEventCallback(huart, (huart->RxXferSize - huart->RxXferCount));
 80061ec:	8de3      	ldrh	r3, [r4, #46]	@ 0x2e
 80061ee:	8da1      	ldrh	r1, [r4, #44]	@ 0x2c
 80061f0:	1ac9      	subs	r1, r1, r3
 80061f2:	b289      	uxth	r1, r1
 80061f4:	4620      	mov	r0, r4
 80061f6:	f7ff fe8d 	bl	8005f14 <HAL_UARTEx_RxEventCallback>
 80061fa:	e728      	b.n	800604e <HAL_UART_IRQHandler+0x5a>
      uint16_t nb_rx_data = huart->RxXferSize - huart->RxXferCount;
 80061fc:	8de3      	ldrh	r3, [r4, #46]	@ 0x2e
 80061fe:	b29a      	uxth	r2, r3
      if ((huart->RxXferCount > 0U)
 8006200:	8de3      	ldrh	r3, [r4, #46]	@ 0x2e
 8006202:	b29b      	uxth	r3, r3
 8006204:	2b00      	cmp	r3, #0
 8006206:	f43f af22 	beq.w	800604e <HAL_UART_IRQHandler+0x5a>
      uint16_t nb_rx_data = huart->RxXferSize - huart->RxXferCount;
 800620a:	8da1      	ldrh	r1, [r4, #44]	@ 0x2c
 800620c:	1a89      	subs	r1, r1, r2
 800620e:	b289      	uxth	r1, r1
          && (nb_rx_data > 0U))
 8006210:	2900      	cmp	r1, #0
 8006212:	f43f af1c 	beq.w	800604e <HAL_UART_IRQHandler+0x5a>
        ATOMIC_CLEAR_BIT(huart->Instance->CR1, (USART_CR1_RXNEIE | USART_CR1_PEIE));
 8006216:	6822      	ldr	r2, [r4, #0]
   __ASM volatile ("ldrex %0, %1" : "=r" (result) : "Q" (*addr) );
 8006218:	f102 030c 	add.w	r3, r2, #12
 800621c:	e853 3f00 	ldrex	r3, [r3]
 8006220:	f423 7390 	bic.w	r3, r3, #288	@ 0x120
   __ASM volatile ("strex %0, %2, %1" : "=&r" (result), "=Q" (*addr) : "r" (value) );
 8006224:	320c      	adds	r2, #12
 8006226:	e842 3000 	strex	r0, r3, [r2]
 800622a:	2800      	cmp	r0, #0
 800622c:	d1f3      	bne.n	8006216 <HAL_UART_IRQHandler+0x222>
        ATOMIC_CLEAR_BIT(huart->Instance->CR3, USART_CR3_EIE);
 800622e:	6822      	ldr	r2, [r4, #0]
   __ASM volatile ("ldrex %0, %1" : "=r" (result) : "Q" (*addr) );
 8006230:	f102 0314 	add.w	r3, r2, #20
 8006234:	e853 3f00 	ldrex	r3, [r3]
 8006238:	f023 0301 	bic.w	r3, r3, #1
   __ASM volatile ("strex %0, %2, %1" : "=&r" (result), "=Q" (*addr) : "r" (value) );
 800623c:	3214      	adds	r2, #20
 800623e:	e842 3000 	strex	r0, r3, [r2]
 8006242:	2800      	cmp	r0, #0
 8006244:	d1f3      	bne.n	800622e <HAL_UART_IRQHandler+0x23a>
        huart->RxState = HAL_UART_STATE_READY;
 8006246:	2320      	movs	r3, #32
 8006248:	f884 3042 	strb.w	r3, [r4, #66]	@ 0x42
        huart->ReceptionType = HAL_UART_RECEPTION_STANDARD;
 800624c:	2300      	movs	r3, #0
 800624e:	6323      	str	r3, [r4, #48]	@ 0x30
        ATOMIC_CLEAR_BIT(huart->Instance->CR1, USART_CR1_IDLEIE);
 8006250:	6822      	ldr	r2, [r4, #0]
   __ASM volatile ("ldrex %0, %1" : "=r" (result) : "Q" (*addr) );
 8006252:	f102 030c 	add.w	r3, r2, #12
 8006256:	e853 3f00 	ldrex	r3, [r3]
 800625a:	f023 0310 	bic.w	r3, r3, #16
   __ASM volatile ("strex %0, %2, %1" : "=&r" (result), "=Q" (*addr) : "r" (value) );
 800625e:	320c      	adds	r2, #12
 8006260:	e842 3000 	strex	r0, r3, [r2]
 8006264:	2800      	cmp	r0, #0
 8006266:	d1f3      	bne.n	8006250 <HAL_UART_IRQHandler+0x25c>
        huart->RxEventType = HAL_UART_RXEVENT_IDLE;
 8006268:	2302      	movs	r3, #2
 800626a:	6363      	str	r3, [r4, #52]	@ 0x34
        HAL_UARTEx_RxEventCallback(huart, nb_rx_data);
 800626c:	4620      	mov	r0, r4
 800626e:	f7ff fe51 	bl	8005f14 <HAL_UARTEx_RxEventCallback>
 8006272:	e6ec      	b.n	800604e <HAL_UART_IRQHandler+0x5a>
  if (huart->gState == HAL_UART_STATE_BUSY_TX)
 8006274:	f894 3041 	ldrb.w	r3, [r4, #65]	@ 0x41
 8006278:	b2db      	uxtb	r3, r3
 800627a:	2b21      	cmp	r3, #33	@ 0x21
 800627c:	f47f aee7 	bne.w	800604e <HAL_UART_IRQHandler+0x5a>
    if ((huart->Init.WordLength == UART_WORDLENGTH_9B) && (huart->Init.Parity == UART_PARITY_NONE))
 8006280:	68a3      	ldr	r3, [r4, #8]
 8006282:	f5b3 5f80 	cmp.w	r3, #4096	@ 0x1000
 8006286:	d016      	beq.n	80062b6 <HAL_UART_IRQHandler+0x2c2>
      huart->Instance->DR = (uint8_t)(*huart->pTxBuffPtr++ & (uint8_t)0x00FF);
 8006288:	6a23      	ldr	r3, [r4, #32]
 800628a:	1c59      	adds	r1, r3, #1
 800628c:	6221      	str	r1, [r4, #32]
 800628e:	781b      	ldrb	r3, [r3, #0]
 8006290:	6053      	str	r3, [r2, #4]
    if (--huart->TxXferCount == 0U)
 8006292:	8ce3      	ldrh	r3, [r4, #38]	@ 0x26
 8006294:	3b01      	subs	r3, #1
 8006296:	b29b      	uxth	r3, r3
 8006298:	84e3      	strh	r3, [r4, #38]	@ 0x26
 800629a:	2b00      	cmp	r3, #0
 800629c:	f47f aed7 	bne.w	800604e <HAL_UART_IRQHandler+0x5a>
      __HAL_UART_DISABLE_IT(huart, UART_IT_TXE);
 80062a0:	6822      	ldr	r2, [r4, #0]
 80062a2:	68d3      	ldr	r3, [r2, #12]
 80062a4:	f023 0380 	bic.w	r3, r3, #128	@ 0x80
 80062a8:	60d3      	str	r3, [r2, #12]
      __HAL_UART_ENABLE_IT(huart, UART_IT_TC);
 80062aa:	6822      	ldr	r2, [r4, #0]
 80062ac:	68d3      	ldr	r3, [r2, #12]
 80062ae:	f043 0340 	orr.w	r3, r3, #64	@ 0x40
 80062b2:	60d3      	str	r3, [r2, #12]
 80062b4:	e6cb      	b.n	800604e <HAL_UART_IRQHandler+0x5a>
    if ((huart->Init.WordLength == UART_WORDLENGTH_9B) && (huart->Init.Parity == UART_PARITY_NONE))
 80062b6:	6923      	ldr	r3, [r4, #16]
 80062b8:	2b00      	cmp	r3, #0
 80062ba:	d1e5      	bne.n	8006288 <HAL_UART_IRQHandler+0x294>
      huart->Instance->DR = (uint16_t)(*tmp & (uint16_t)0x01FF);
 80062bc:	6a23      	ldr	r3, [r4, #32]
 80062be:	881b      	ldrh	r3, [r3, #0]
 80062c0:	f3c3 0308 	ubfx	r3, r3, #0, #9
 80062c4:	6053      	str	r3, [r2, #4]
      huart->pTxBuffPtr += 2U;
 80062c6:	6a23      	ldr	r3, [r4, #32]
 80062c8:	3302      	adds	r3, #2
 80062ca:	6223      	str	r3, [r4, #32]
 80062cc:	e7e1      	b.n	8006292 <HAL_UART_IRQHandler+0x29e>
  __HAL_UART_DISABLE_IT(huart, UART_IT_TC);
 80062ce:	68d3      	ldr	r3, [r2, #12]
 80062d0:	f023 0340 	bic.w	r3, r3, #64	@ 0x40
 80062d4:	60d3      	str	r3, [r2, #12]
  huart->gState = HAL_UART_STATE_READY;
 80062d6:	2320      	movs	r3, #32
 80062d8:	f884 3041 	strb.w	r3, [r4, #65]	@ 0x41
  HAL_UART_TxCpltCallback(huart);
 80062dc:	4620      	mov	r0, r4
 80062de:	f7ff fe0e 	bl	8005efe <HAL_UART_TxCpltCallback>
  return HAL_OK;
 80062e2:	e6b4      	b.n	800604e <HAL_UART_IRQHandler+0x5a>
 80062e4:	08005f05 	.word	0x08005f05

080062e8 <atoi>:
 80062e8:	220a      	movs	r2, #10
 80062ea:	2100      	movs	r1, #0
 80062ec:	f000 b87c 	b.w	80063e8 <strtol>

080062f0 <_strtol_l.constprop.0>:
 80062f0:	2b24      	cmp	r3, #36	@ 0x24
 80062f2:	e92d 47f0 	stmdb	sp!, {r4, r5, r6, r7, r8, r9, sl, lr}
 80062f6:	4686      	mov	lr, r0
 80062f8:	4690      	mov	r8, r2
 80062fa:	d801      	bhi.n	8006300 <_strtol_l.constprop.0+0x10>
 80062fc:	2b01      	cmp	r3, #1
 80062fe:	d106      	bne.n	800630e <_strtol_l.constprop.0+0x1e>
 8006300:	f001 f8f6 	bl	80074f0 <__errno>
 8006304:	2316      	movs	r3, #22
 8006306:	6003      	str	r3, [r0, #0]
 8006308:	2000      	movs	r0, #0
 800630a:	e8bd 87f0 	ldmia.w	sp!, {r4, r5, r6, r7, r8, r9, sl, pc}
 800630e:	460d      	mov	r5, r1
 8006310:	4833      	ldr	r0, [pc, #204]	@ (80063e0 <_strtol_l.constprop.0+0xf0>)
 8006312:	462a      	mov	r2, r5
 8006314:	f815 4b01 	ldrb.w	r4, [r5], #1
 8006318:	5d06      	ldrb	r6, [r0, r4]
 800631a:	f016 0608 	ands.w	r6, r6, #8
 800631e:	d1f8      	bne.n	8006312 <_strtol_l.constprop.0+0x22>
 8006320:	2c2d      	cmp	r4, #45	@ 0x2d
 8006322:	d12d      	bne.n	8006380 <_strtol_l.constprop.0+0x90>
 8006324:	2601      	movs	r6, #1
 8006326:	782c      	ldrb	r4, [r5, #0]
 8006328:	1c95      	adds	r5, r2, #2
 800632a:	f033 0210 	bics.w	r2, r3, #16
 800632e:	d109      	bne.n	8006344 <_strtol_l.constprop.0+0x54>
 8006330:	2c30      	cmp	r4, #48	@ 0x30
 8006332:	d12a      	bne.n	800638a <_strtol_l.constprop.0+0x9a>
 8006334:	782a      	ldrb	r2, [r5, #0]
 8006336:	f002 02df 	and.w	r2, r2, #223	@ 0xdf
 800633a:	2a58      	cmp	r2, #88	@ 0x58
 800633c:	d125      	bne.n	800638a <_strtol_l.constprop.0+0x9a>
 800633e:	2310      	movs	r3, #16
 8006340:	786c      	ldrb	r4, [r5, #1]
 8006342:	3502      	adds	r5, #2
 8006344:	2200      	movs	r2, #0
 8006346:	f106 4c00 	add.w	ip, r6, #2147483648	@ 0x80000000
 800634a:	f10c 3cff 	add.w	ip, ip, #4294967295
 800634e:	fbbc f9f3 	udiv	r9, ip, r3
 8006352:	4610      	mov	r0, r2
 8006354:	fb03 ca19 	mls	sl, r3, r9, ip
 8006358:	f1a4 0730 	sub.w	r7, r4, #48	@ 0x30
 800635c:	2f09      	cmp	r7, #9
 800635e:	d81b      	bhi.n	8006398 <_strtol_l.constprop.0+0xa8>
 8006360:	463c      	mov	r4, r7
 8006362:	42a3      	cmp	r3, r4
 8006364:	dd27      	ble.n	80063b6 <_strtol_l.constprop.0+0xc6>
 8006366:	1c57      	adds	r7, r2, #1
 8006368:	d007      	beq.n	800637a <_strtol_l.constprop.0+0x8a>
 800636a:	4581      	cmp	r9, r0
 800636c:	d320      	bcc.n	80063b0 <_strtol_l.constprop.0+0xc0>
 800636e:	d101      	bne.n	8006374 <_strtol_l.constprop.0+0x84>
 8006370:	45a2      	cmp	sl, r4
 8006372:	db1d      	blt.n	80063b0 <_strtol_l.constprop.0+0xc0>
 8006374:	2201      	movs	r2, #1
 8006376:	fb00 4003 	mla	r0, r0, r3, r4
 800637a:	f815 4b01 	ldrb.w	r4, [r5], #1
 800637e:	e7eb      	b.n	8006358 <_strtol_l.constprop.0+0x68>
 8006380:	2c2b      	cmp	r4, #43	@ 0x2b
 8006382:	bf04      	itt	eq
 8006384:	782c      	ldrbeq	r4, [r5, #0]
 8006386:	1c95      	addeq	r5, r2, #2
 8006388:	e7cf      	b.n	800632a <_strtol_l.constprop.0+0x3a>
 800638a:	2b00      	cmp	r3, #0
 800638c:	d1da      	bne.n	8006344 <_strtol_l.constprop.0+0x54>
 800638e:	2c30      	cmp	r4, #48	@ 0x30
 8006390:	bf0c      	ite	eq
 8006392:	2308      	moveq	r3, #8
 8006394:	230a      	movne	r3, #10
 8006396:	e7d5      	b.n	8006344 <_strtol_l.constprop.0+0x54>
 8006398:	f1a4 0741 	sub.w	r7, r4, #65	@ 0x41
 800639c:	2f19      	cmp	r7, #25
 800639e:	d801      	bhi.n	80063a4 <_strtol_l.constprop.0+0xb4>
 80063a0:	3c37      	subs	r4, #55	@ 0x37
 80063a2:	e7de      	b.n	8006362 <_strtol_l.constprop.0+0x72>
 80063a4:	f1a4 0761 	sub.w	r7, r4, #97	@ 0x61
 80063a8:	2f19      	cmp	r7, #25
 80063aa:	d804      	bhi.n	80063b6 <_strtol_l.constprop.0+0xc6>
 80063ac:	3c57      	subs	r4, #87	@ 0x57
 80063ae:	e7d8      	b.n	8006362 <_strtol_l.constprop.0+0x72>
 80063b0:	f04f 32ff 	mov.w	r2, #4294967295
 80063b4:	e7e1      	b.n	800637a <_strtol_l.constprop.0+0x8a>
 80063b6:	1c53      	adds	r3, r2, #1
 80063b8:	d108      	bne.n	80063cc <_strtol_l.constprop.0+0xdc>
 80063ba:	2322      	movs	r3, #34	@ 0x22
 80063bc:	4660      	mov	r0, ip
 80063be:	f8ce 3000 	str.w	r3, [lr]
 80063c2:	f1b8 0f00 	cmp.w	r8, #0
 80063c6:	d0a0      	beq.n	800630a <_strtol_l.constprop.0+0x1a>
 80063c8:	1e69      	subs	r1, r5, #1
 80063ca:	e006      	b.n	80063da <_strtol_l.constprop.0+0xea>
 80063cc:	b106      	cbz	r6, 80063d0 <_strtol_l.constprop.0+0xe0>
 80063ce:	4240      	negs	r0, r0
 80063d0:	f1b8 0f00 	cmp.w	r8, #0
 80063d4:	d099      	beq.n	800630a <_strtol_l.constprop.0+0x1a>
 80063d6:	2a00      	cmp	r2, #0
 80063d8:	d1f6      	bne.n	80063c8 <_strtol_l.constprop.0+0xd8>
 80063da:	f8c8 1000 	str.w	r1, [r8]
 80063de:	e794      	b.n	800630a <_strtol_l.constprop.0+0x1a>
 80063e0:	0800c8ad 	.word	0x0800c8ad

080063e4 <_strtol_r>:
 80063e4:	f7ff bf84 	b.w	80062f0 <_strtol_l.constprop.0>

080063e8 <strtol>:
 80063e8:	4613      	mov	r3, r2
 80063ea:	460a      	mov	r2, r1
 80063ec:	4601      	mov	r1, r0
 80063ee:	4802      	ldr	r0, [pc, #8]	@ (80063f8 <strtol+0x10>)
 80063f0:	6800      	ldr	r0, [r0, #0]
 80063f2:	f7ff bf7d 	b.w	80062f0 <_strtol_l.constprop.0>
 80063f6:	bf00      	nop
 80063f8:	20000114 	.word	0x20000114

080063fc <__cvt>:
 80063fc:	2b00      	cmp	r3, #0
 80063fe:	e92d 47f0 	stmdb	sp!, {r4, r5, r6, r7, r8, r9, sl, lr}
 8006402:	461d      	mov	r5, r3
 8006404:	bfbb      	ittet	lt
 8006406:	f103 4300 	addlt.w	r3, r3, #2147483648	@ 0x80000000
 800640a:	461d      	movlt	r5, r3
 800640c:	2300      	movge	r3, #0
 800640e:	232d      	movlt	r3, #45	@ 0x2d
 8006410:	b088      	sub	sp, #32
 8006412:	4614      	mov	r4, r2
 8006414:	bfb8      	it	lt
 8006416:	4614      	movlt	r4, r2
 8006418:	9a12      	ldr	r2, [sp, #72]	@ 0x48
 800641a:	9e10      	ldr	r6, [sp, #64]	@ 0x40
 800641c:	7013      	strb	r3, [r2, #0]
 800641e:	9b14      	ldr	r3, [sp, #80]	@ 0x50
 8006420:	f8dd a04c 	ldr.w	sl, [sp, #76]	@ 0x4c
 8006424:	f023 0820 	bic.w	r8, r3, #32
 8006428:	f1b8 0f46 	cmp.w	r8, #70	@ 0x46
 800642c:	d005      	beq.n	800643a <__cvt+0x3e>
 800642e:	f1b8 0f45 	cmp.w	r8, #69	@ 0x45
 8006432:	d100      	bne.n	8006436 <__cvt+0x3a>
 8006434:	3601      	adds	r6, #1
 8006436:	2302      	movs	r3, #2
 8006438:	e000      	b.n	800643c <__cvt+0x40>
 800643a:	2303      	movs	r3, #3
 800643c:	aa07      	add	r2, sp, #28
 800643e:	9204      	str	r2, [sp, #16]
 8006440:	aa06      	add	r2, sp, #24
 8006442:	e9cd a202 	strd	sl, r2, [sp, #8]
 8006446:	e9cd 3600 	strd	r3, r6, [sp]
 800644a:	4622      	mov	r2, r4
 800644c:	462b      	mov	r3, r5
 800644e:	f001 f94b 	bl	80076e8 <_dtoa_r>
 8006452:	f1b8 0f47 	cmp.w	r8, #71	@ 0x47
 8006456:	4607      	mov	r7, r0
 8006458:	d119      	bne.n	800648e <__cvt+0x92>
 800645a:	9b11      	ldr	r3, [sp, #68]	@ 0x44
 800645c:	07db      	lsls	r3, r3, #31
 800645e:	d50e      	bpl.n	800647e <__cvt+0x82>
 8006460:	eb00 0906 	add.w	r9, r0, r6
 8006464:	2200      	movs	r2, #0
 8006466:	2300      	movs	r3, #0
 8006468:	4620      	mov	r0, r4
 800646a:	4629      	mov	r1, r5
 800646c:	f7fa fb50 	bl	8000b10 <__aeabi_dcmpeq>
 8006470:	b108      	cbz	r0, 8006476 <__cvt+0x7a>
 8006472:	f8cd 901c 	str.w	r9, [sp, #28]
 8006476:	2230      	movs	r2, #48	@ 0x30
 8006478:	9b07      	ldr	r3, [sp, #28]
 800647a:	454b      	cmp	r3, r9
 800647c:	d31e      	bcc.n	80064bc <__cvt+0xc0>
 800647e:	4638      	mov	r0, r7
 8006480:	9b07      	ldr	r3, [sp, #28]
 8006482:	9a15      	ldr	r2, [sp, #84]	@ 0x54
 8006484:	1bdb      	subs	r3, r3, r7
 8006486:	6013      	str	r3, [r2, #0]
 8006488:	b008      	add	sp, #32
 800648a:	e8bd 87f0 	ldmia.w	sp!, {r4, r5, r6, r7, r8, r9, sl, pc}
 800648e:	f1b8 0f46 	cmp.w	r8, #70	@ 0x46
 8006492:	eb00 0906 	add.w	r9, r0, r6
 8006496:	d1e5      	bne.n	8006464 <__cvt+0x68>
 8006498:	7803      	ldrb	r3, [r0, #0]
 800649a:	2b30      	cmp	r3, #48	@ 0x30
 800649c:	d10a      	bne.n	80064b4 <__cvt+0xb8>
 800649e:	2200      	movs	r2, #0
 80064a0:	2300      	movs	r3, #0
 80064a2:	4620      	mov	r0, r4
 80064a4:	4629      	mov	r1, r5
 80064a6:	f7fa fb33 	bl	8000b10 <__aeabi_dcmpeq>
 80064aa:	b918      	cbnz	r0, 80064b4 <__cvt+0xb8>
 80064ac:	f1c6 0601 	rsb	r6, r6, #1
 80064b0:	f8ca 6000 	str.w	r6, [sl]
 80064b4:	f8da 3000 	ldr.w	r3, [sl]
 80064b8:	4499      	add	r9, r3
 80064ba:	e7d3      	b.n	8006464 <__cvt+0x68>
 80064bc:	1c59      	adds	r1, r3, #1
 80064be:	9107      	str	r1, [sp, #28]
 80064c0:	701a      	strb	r2, [r3, #0]
 80064c2:	e7d9      	b.n	8006478 <__cvt+0x7c>

080064c4 <__exponent>:
 80064c4:	b5f7      	push	{r0, r1, r2, r4, r5, r6, r7, lr}
 80064c6:	2900      	cmp	r1, #0
 80064c8:	bfb6      	itet	lt
 80064ca:	232d      	movlt	r3, #45	@ 0x2d
 80064cc:	232b      	movge	r3, #43	@ 0x2b
 80064ce:	4249      	neglt	r1, r1
 80064d0:	2909      	cmp	r1, #9
 80064d2:	7002      	strb	r2, [r0, #0]
 80064d4:	7043      	strb	r3, [r0, #1]
 80064d6:	dd29      	ble.n	800652c <__exponent+0x68>
 80064d8:	f10d 0307 	add.w	r3, sp, #7
 80064dc:	461d      	mov	r5, r3
 80064de:	270a      	movs	r7, #10
 80064e0:	fbb1 f6f7 	udiv	r6, r1, r7
 80064e4:	461a      	mov	r2, r3
 80064e6:	fb07 1416 	mls	r4, r7, r6, r1
 80064ea:	3430      	adds	r4, #48	@ 0x30
 80064ec:	f802 4c01 	strb.w	r4, [r2, #-1]
 80064f0:	460c      	mov	r4, r1
 80064f2:	2c63      	cmp	r4, #99	@ 0x63
 80064f4:	4631      	mov	r1, r6
 80064f6:	f103 33ff 	add.w	r3, r3, #4294967295
 80064fa:	dcf1      	bgt.n	80064e0 <__exponent+0x1c>
 80064fc:	3130      	adds	r1, #48	@ 0x30
 80064fe:	1e94      	subs	r4, r2, #2
 8006500:	f803 1c01 	strb.w	r1, [r3, #-1]
 8006504:	4623      	mov	r3, r4
 8006506:	1c41      	adds	r1, r0, #1
 8006508:	42ab      	cmp	r3, r5
 800650a:	d30a      	bcc.n	8006522 <__exponent+0x5e>
 800650c:	f10d 0309 	add.w	r3, sp, #9
 8006510:	1a9b      	subs	r3, r3, r2
 8006512:	42ac      	cmp	r4, r5
 8006514:	bf88      	it	hi
 8006516:	2300      	movhi	r3, #0
 8006518:	3302      	adds	r3, #2
 800651a:	4403      	add	r3, r0
 800651c:	1a18      	subs	r0, r3, r0
 800651e:	b003      	add	sp, #12
 8006520:	bdf0      	pop	{r4, r5, r6, r7, pc}
 8006522:	f813 6b01 	ldrb.w	r6, [r3], #1
 8006526:	f801 6f01 	strb.w	r6, [r1, #1]!
 800652a:	e7ed      	b.n	8006508 <__exponent+0x44>
 800652c:	2330      	movs	r3, #48	@ 0x30
 800652e:	3130      	adds	r1, #48	@ 0x30
 8006530:	7083      	strb	r3, [r0, #2]
 8006532:	70c1      	strb	r1, [r0, #3]
 8006534:	1d03      	adds	r3, r0, #4
 8006536:	e7f1      	b.n	800651c <__exponent+0x58>

08006538 <_printf_float>:
 8006538:	e92d 4ff0 	stmdb	sp!, {r4, r5, r6, r7, r8, r9, sl, fp, lr}
 800653c:	b091      	sub	sp, #68	@ 0x44
 800653e:	460c      	mov	r4, r1
 8006540:	f8dd 8068 	ldr.w	r8, [sp, #104]	@ 0x68
 8006544:	4616      	mov	r6, r2
 8006546:	461f      	mov	r7, r3
 8006548:	4605      	mov	r5, r0
 800654a:	f000 ff87 	bl	800745c <_localeconv_r>
 800654e:	6803      	ldr	r3, [r0, #0]
 8006550:	4618      	mov	r0, r3
 8006552:	9308      	str	r3, [sp, #32]
 8006554:	f7f9 fdfc 	bl	8000150 <strlen>
 8006558:	2300      	movs	r3, #0
 800655a:	930e      	str	r3, [sp, #56]	@ 0x38
 800655c:	f8d8 3000 	ldr.w	r3, [r8]
 8006560:	9009      	str	r0, [sp, #36]	@ 0x24
 8006562:	3307      	adds	r3, #7
 8006564:	f023 0307 	bic.w	r3, r3, #7
 8006568:	f103 0208 	add.w	r2, r3, #8
 800656c:	f894 a018 	ldrb.w	sl, [r4, #24]
 8006570:	f8d4 b000 	ldr.w	fp, [r4]
 8006574:	f8c8 2000 	str.w	r2, [r8]
 8006578:	e9d3 8900 	ldrd	r8, r9, [r3]
 800657c:	f029 4300 	bic.w	r3, r9, #2147483648	@ 0x80000000
 8006580:	930b      	str	r3, [sp, #44]	@ 0x2c
 8006582:	f8cd 8028 	str.w	r8, [sp, #40]	@ 0x28
 8006586:	f04f 32ff 	mov.w	r2, #4294967295
 800658a:	e9dd 010a 	ldrd	r0, r1, [sp, #40]	@ 0x28
 800658e:	e9c4 8912 	strd	r8, r9, [r4, #72]	@ 0x48
 8006592:	4b9c      	ldr	r3, [pc, #624]	@ (8006804 <_printf_float+0x2cc>)
 8006594:	f7fa faee 	bl	8000b74 <__aeabi_dcmpun>
 8006598:	bb70      	cbnz	r0, 80065f8 <_printf_float+0xc0>
 800659a:	e9dd 010a 	ldrd	r0, r1, [sp, #40]	@ 0x28
 800659e:	f04f 32ff 	mov.w	r2, #4294967295
 80065a2:	4b98      	ldr	r3, [pc, #608]	@ (8006804 <_printf_float+0x2cc>)
 80065a4:	f7fa fac8 	bl	8000b38 <__aeabi_dcmple>
 80065a8:	bb30      	cbnz	r0, 80065f8 <_printf_float+0xc0>
 80065aa:	2200      	movs	r2, #0
 80065ac:	2300      	movs	r3, #0
 80065ae:	4640      	mov	r0, r8
 80065b0:	4649      	mov	r1, r9
 80065b2:	f7fa fab7 	bl	8000b24 <__aeabi_dcmplt>
 80065b6:	b110      	cbz	r0, 80065be <_printf_float+0x86>
 80065b8:	232d      	movs	r3, #45	@ 0x2d
 80065ba:	f884 3043 	strb.w	r3, [r4, #67]	@ 0x43
 80065be:	4a92      	ldr	r2, [pc, #584]	@ (8006808 <_printf_float+0x2d0>)
 80065c0:	4b92      	ldr	r3, [pc, #584]	@ (800680c <_printf_float+0x2d4>)
 80065c2:	f1ba 0f47 	cmp.w	sl, #71	@ 0x47
 80065c6:	bf94      	ite	ls
 80065c8:	4690      	movls	r8, r2
 80065ca:	4698      	movhi	r8, r3
 80065cc:	2303      	movs	r3, #3
 80065ce:	f04f 0900 	mov.w	r9, #0
 80065d2:	6123      	str	r3, [r4, #16]
 80065d4:	f02b 0304 	bic.w	r3, fp, #4
 80065d8:	6023      	str	r3, [r4, #0]
 80065da:	4633      	mov	r3, r6
 80065dc:	4621      	mov	r1, r4
 80065de:	4628      	mov	r0, r5
 80065e0:	9700      	str	r7, [sp, #0]
 80065e2:	aa0f      	add	r2, sp, #60	@ 0x3c
 80065e4:	f000 f9d4 	bl	8006990 <_printf_common>
 80065e8:	3001      	adds	r0, #1
 80065ea:	f040 8090 	bne.w	800670e <_printf_float+0x1d6>
 80065ee:	f04f 30ff 	mov.w	r0, #4294967295
 80065f2:	b011      	add	sp, #68	@ 0x44
 80065f4:	e8bd 8ff0 	ldmia.w	sp!, {r4, r5, r6, r7, r8, r9, sl, fp, pc}
 80065f8:	4642      	mov	r2, r8
 80065fa:	464b      	mov	r3, r9
 80065fc:	4640      	mov	r0, r8
 80065fe:	4649      	mov	r1, r9
 8006600:	f7fa fab8 	bl	8000b74 <__aeabi_dcmpun>
 8006604:	b148      	cbz	r0, 800661a <_printf_float+0xe2>
 8006606:	464b      	mov	r3, r9
 8006608:	2b00      	cmp	r3, #0
 800660a:	bfb8      	it	lt
 800660c:	232d      	movlt	r3, #45	@ 0x2d
 800660e:	4a80      	ldr	r2, [pc, #512]	@ (8006810 <_printf_float+0x2d8>)
 8006610:	bfb8      	it	lt
 8006612:	f884 3043 	strblt.w	r3, [r4, #67]	@ 0x43
 8006616:	4b7f      	ldr	r3, [pc, #508]	@ (8006814 <_printf_float+0x2dc>)
 8006618:	e7d3      	b.n	80065c2 <_printf_float+0x8a>
 800661a:	6863      	ldr	r3, [r4, #4]
 800661c:	f00a 01df 	and.w	r1, sl, #223	@ 0xdf
 8006620:	1c5a      	adds	r2, r3, #1
 8006622:	d13f      	bne.n	80066a4 <_printf_float+0x16c>
 8006624:	2306      	movs	r3, #6
 8006626:	6063      	str	r3, [r4, #4]
 8006628:	2200      	movs	r2, #0
 800662a:	f44b 6380 	orr.w	r3, fp, #1024	@ 0x400
 800662e:	6023      	str	r3, [r4, #0]
 8006630:	9206      	str	r2, [sp, #24]
 8006632:	aa0e      	add	r2, sp, #56	@ 0x38
 8006634:	e9cd a204 	strd	sl, r2, [sp, #16]
 8006638:	aa0d      	add	r2, sp, #52	@ 0x34
 800663a:	9203      	str	r2, [sp, #12]
 800663c:	f10d 0233 	add.w	r2, sp, #51	@ 0x33
 8006640:	e9cd 3201 	strd	r3, r2, [sp, #4]
 8006644:	6863      	ldr	r3, [r4, #4]
 8006646:	4642      	mov	r2, r8
 8006648:	9300      	str	r3, [sp, #0]
 800664a:	4628      	mov	r0, r5
 800664c:	464b      	mov	r3, r9
 800664e:	910a      	str	r1, [sp, #40]	@ 0x28
 8006650:	f7ff fed4 	bl	80063fc <__cvt>
 8006654:	990a      	ldr	r1, [sp, #40]	@ 0x28
 8006656:	4680      	mov	r8, r0
 8006658:	2947      	cmp	r1, #71	@ 0x47
 800665a:	990d      	ldr	r1, [sp, #52]	@ 0x34
 800665c:	d128      	bne.n	80066b0 <_printf_float+0x178>
 800665e:	1cc8      	adds	r0, r1, #3
 8006660:	db02      	blt.n	8006668 <_printf_float+0x130>
 8006662:	6863      	ldr	r3, [r4, #4]
 8006664:	4299      	cmp	r1, r3
 8006666:	dd40      	ble.n	80066ea <_printf_float+0x1b2>
 8006668:	f1aa 0a02 	sub.w	sl, sl, #2
 800666c:	fa5f fa8a 	uxtb.w	sl, sl
 8006670:	4652      	mov	r2, sl
 8006672:	3901      	subs	r1, #1
 8006674:	f104 0050 	add.w	r0, r4, #80	@ 0x50
 8006678:	910d      	str	r1, [sp, #52]	@ 0x34
 800667a:	f7ff ff23 	bl	80064c4 <__exponent>
 800667e:	9a0e      	ldr	r2, [sp, #56]	@ 0x38
 8006680:	4681      	mov	r9, r0
 8006682:	1813      	adds	r3, r2, r0
 8006684:	2a01      	cmp	r2, #1
 8006686:	6123      	str	r3, [r4, #16]
 8006688:	dc02      	bgt.n	8006690 <_printf_float+0x158>
 800668a:	6822      	ldr	r2, [r4, #0]
 800668c:	07d2      	lsls	r2, r2, #31
 800668e:	d501      	bpl.n	8006694 <_printf_float+0x15c>
 8006690:	3301      	adds	r3, #1
 8006692:	6123      	str	r3, [r4, #16]
 8006694:	f89d 3033 	ldrb.w	r3, [sp, #51]	@ 0x33
 8006698:	2b00      	cmp	r3, #0
 800669a:	d09e      	beq.n	80065da <_printf_float+0xa2>
 800669c:	232d      	movs	r3, #45	@ 0x2d
 800669e:	f884 3043 	strb.w	r3, [r4, #67]	@ 0x43
 80066a2:	e79a      	b.n	80065da <_printf_float+0xa2>
 80066a4:	2947      	cmp	r1, #71	@ 0x47
 80066a6:	d1bf      	bne.n	8006628 <_printf_float+0xf0>
 80066a8:	2b00      	cmp	r3, #0
 80066aa:	d1bd      	bne.n	8006628 <_printf_float+0xf0>
 80066ac:	2301      	movs	r3, #1
 80066ae:	e7ba      	b.n	8006626 <_printf_float+0xee>
 80066b0:	f1ba 0f65 	cmp.w	sl, #101	@ 0x65
 80066b4:	d9dc      	bls.n	8006670 <_printf_float+0x138>
 80066b6:	f1ba 0f66 	cmp.w	sl, #102	@ 0x66
 80066ba:	d118      	bne.n	80066ee <_printf_float+0x1b6>
 80066bc:	2900      	cmp	r1, #0
 80066be:	6863      	ldr	r3, [r4, #4]
 80066c0:	dd0b      	ble.n	80066da <_printf_float+0x1a2>
 80066c2:	6121      	str	r1, [r4, #16]
 80066c4:	b913      	cbnz	r3, 80066cc <_printf_float+0x194>
 80066c6:	6822      	ldr	r2, [r4, #0]
 80066c8:	07d0      	lsls	r0, r2, #31
 80066ca:	d502      	bpl.n	80066d2 <_printf_float+0x19a>
 80066cc:	3301      	adds	r3, #1
 80066ce:	440b      	add	r3, r1
 80066d0:	6123      	str	r3, [r4, #16]
 80066d2:	f04f 0900 	mov.w	r9, #0
 80066d6:	65a1      	str	r1, [r4, #88]	@ 0x58
 80066d8:	e7dc      	b.n	8006694 <_printf_float+0x15c>
 80066da:	b913      	cbnz	r3, 80066e2 <_printf_float+0x1aa>
 80066dc:	6822      	ldr	r2, [r4, #0]
 80066de:	07d2      	lsls	r2, r2, #31
 80066e0:	d501      	bpl.n	80066e6 <_printf_float+0x1ae>
 80066e2:	3302      	adds	r3, #2
 80066e4:	e7f4      	b.n	80066d0 <_printf_float+0x198>
 80066e6:	2301      	movs	r3, #1
 80066e8:	e7f2      	b.n	80066d0 <_printf_float+0x198>
 80066ea:	f04f 0a67 	mov.w	sl, #103	@ 0x67
 80066ee:	9b0e      	ldr	r3, [sp, #56]	@ 0x38
 80066f0:	4299      	cmp	r1, r3
 80066f2:	db05      	blt.n	8006700 <_printf_float+0x1c8>
 80066f4:	6823      	ldr	r3, [r4, #0]
 80066f6:	6121      	str	r1, [r4, #16]
 80066f8:	07d8      	lsls	r0, r3, #31
 80066fa:	d5ea      	bpl.n	80066d2 <_printf_float+0x19a>
 80066fc:	1c4b      	adds	r3, r1, #1
 80066fe:	e7e7      	b.n	80066d0 <_printf_float+0x198>
 8006700:	2900      	cmp	r1, #0
 8006702:	bfcc      	ite	gt
 8006704:	2201      	movgt	r2, #1
 8006706:	f1c1 0202 	rsble	r2, r1, #2
 800670a:	4413      	add	r3, r2
 800670c:	e7e0      	b.n	80066d0 <_printf_float+0x198>
 800670e:	6823      	ldr	r3, [r4, #0]
 8006710:	055a      	lsls	r2, r3, #21
 8006712:	d407      	bmi.n	8006724 <_printf_float+0x1ec>
 8006714:	6923      	ldr	r3, [r4, #16]
 8006716:	4642      	mov	r2, r8
 8006718:	4631      	mov	r1, r6
 800671a:	4628      	mov	r0, r5
 800671c:	47b8      	blx	r7
 800671e:	3001      	adds	r0, #1
 8006720:	d12b      	bne.n	800677a <_printf_float+0x242>
 8006722:	e764      	b.n	80065ee <_printf_float+0xb6>
 8006724:	f1ba 0f65 	cmp.w	sl, #101	@ 0x65
 8006728:	f240 80dc 	bls.w	80068e4 <_printf_float+0x3ac>
 800672c:	e9d4 0112 	ldrd	r0, r1, [r4, #72]	@ 0x48
 8006730:	2200      	movs	r2, #0
 8006732:	2300      	movs	r3, #0
 8006734:	f7fa f9ec 	bl	8000b10 <__aeabi_dcmpeq>
 8006738:	2800      	cmp	r0, #0
 800673a:	d033      	beq.n	80067a4 <_printf_float+0x26c>
 800673c:	2301      	movs	r3, #1
 800673e:	4631      	mov	r1, r6
 8006740:	4628      	mov	r0, r5
 8006742:	4a35      	ldr	r2, [pc, #212]	@ (8006818 <_printf_float+0x2e0>)
 8006744:	47b8      	blx	r7
 8006746:	3001      	adds	r0, #1
 8006748:	f43f af51 	beq.w	80065ee <_printf_float+0xb6>
 800674c:	e9dd 380d 	ldrd	r3, r8, [sp, #52]	@ 0x34
 8006750:	4543      	cmp	r3, r8
 8006752:	db02      	blt.n	800675a <_printf_float+0x222>
 8006754:	6823      	ldr	r3, [r4, #0]
 8006756:	07d8      	lsls	r0, r3, #31
 8006758:	d50f      	bpl.n	800677a <_printf_float+0x242>
 800675a:	e9dd 2308 	ldrd	r2, r3, [sp, #32]
 800675e:	4631      	mov	r1, r6
 8006760:	4628      	mov	r0, r5
 8006762:	47b8      	blx	r7
 8006764:	3001      	adds	r0, #1
 8006766:	f43f af42 	beq.w	80065ee <_printf_float+0xb6>
 800676a:	f04f 0900 	mov.w	r9, #0
 800676e:	f108 38ff 	add.w	r8, r8, #4294967295
 8006772:	f104 0a1a 	add.w	sl, r4, #26
 8006776:	45c8      	cmp	r8, r9
 8006778:	dc09      	bgt.n	800678e <_printf_float+0x256>
 800677a:	6823      	ldr	r3, [r4, #0]
 800677c:	079b      	lsls	r3, r3, #30
 800677e:	f100 8102 	bmi.w	8006986 <_printf_float+0x44e>
 8006782:	68e0      	ldr	r0, [r4, #12]
 8006784:	9b0f      	ldr	r3, [sp, #60]	@ 0x3c
 8006786:	4298      	cmp	r0, r3
 8006788:	bfb8      	it	lt
 800678a:	4618      	movlt	r0, r3
 800678c:	e731      	b.n	80065f2 <_printf_float+0xba>
 800678e:	2301      	movs	r3, #1
 8006790:	4652      	mov	r2, sl
 8006792:	4631      	mov	r1, r6
 8006794:	4628      	mov	r0, r5
 8006796:	47b8      	blx	r7
 8006798:	3001      	adds	r0, #1
 800679a:	f43f af28 	beq.w	80065ee <_printf_float+0xb6>
 800679e:	f109 0901 	add.w	r9, r9, #1
 80067a2:	e7e8      	b.n	8006776 <_printf_float+0x23e>
 80067a4:	9b0d      	ldr	r3, [sp, #52]	@ 0x34
 80067a6:	2b00      	cmp	r3, #0
 80067a8:	dc38      	bgt.n	800681c <_printf_float+0x2e4>
 80067aa:	2301      	movs	r3, #1
 80067ac:	4631      	mov	r1, r6
 80067ae:	4628      	mov	r0, r5
 80067b0:	4a19      	ldr	r2, [pc, #100]	@ (8006818 <_printf_float+0x2e0>)
 80067b2:	47b8      	blx	r7
 80067b4:	3001      	adds	r0, #1
 80067b6:	f43f af1a 	beq.w	80065ee <_printf_float+0xb6>
 80067ba:	e9dd 390d 	ldrd	r3, r9, [sp, #52]	@ 0x34
 80067be:	ea59 0303 	orrs.w	r3, r9, r3
 80067c2:	d102      	bne.n	80067ca <_printf_float+0x292>
 80067c4:	6823      	ldr	r3, [r4, #0]
 80067c6:	07d9      	lsls	r1, r3, #31
 80067c8:	d5d7      	bpl.n	800677a <_printf_float+0x242>
 80067ca:	e9dd 2308 	ldrd	r2, r3, [sp, #32]
 80067ce:	4631      	mov	r1, r6
 80067d0:	4628      	mov	r0, r5
 80067d2:	47b8      	blx	r7
 80067d4:	3001      	adds	r0, #1
 80067d6:	f43f af0a 	beq.w	80065ee <_printf_float+0xb6>
 80067da:	f04f 0a00 	mov.w	sl, #0
 80067de:	f104 0b1a 	add.w	fp, r4, #26
 80067e2:	9b0d      	ldr	r3, [sp, #52]	@ 0x34
 80067e4:	425b      	negs	r3, r3
 80067e6:	4553      	cmp	r3, sl
 80067e8:	dc01      	bgt.n	80067ee <_printf_float+0x2b6>
 80067ea:	464b      	mov	r3, r9
 80067ec:	e793      	b.n	8006716 <_printf_float+0x1de>
 80067ee:	2301      	movs	r3, #1
 80067f0:	465a      	mov	r2, fp
 80067f2:	4631      	mov	r1, r6
 80067f4:	4628      	mov	r0, r5
 80067f6:	47b8      	blx	r7
 80067f8:	3001      	adds	r0, #1
 80067fa:	f43f aef8 	beq.w	80065ee <_printf_float+0xb6>
 80067fe:	f10a 0a01 	add.w	sl, sl, #1
 8006802:	e7ee      	b.n	80067e2 <_printf_float+0x2aa>
 8006804:	7fefffff 	.word	0x7fefffff
 8006808:	0800c9ad 	.word	0x0800c9ad
 800680c:	0800c9b1 	.word	0x0800c9b1
 8006810:	0800c9b5 	.word	0x0800c9b5
 8006814:	0800c9b9 	.word	0x0800c9b9
 8006818:	0800c9bd 	.word	0x0800c9bd
 800681c:	6da3      	ldr	r3, [r4, #88]	@ 0x58
 800681e:	f8dd a038 	ldr.w	sl, [sp, #56]	@ 0x38
 8006822:	4553      	cmp	r3, sl
 8006824:	bfa8      	it	ge
 8006826:	4653      	movge	r3, sl
 8006828:	2b00      	cmp	r3, #0
 800682a:	4699      	mov	r9, r3
 800682c:	dc36      	bgt.n	800689c <_printf_float+0x364>
 800682e:	f04f 0b00 	mov.w	fp, #0
 8006832:	ea29 79e9 	bic.w	r9, r9, r9, asr #31
 8006836:	f104 021a 	add.w	r2, r4, #26
 800683a:	6da3      	ldr	r3, [r4, #88]	@ 0x58
 800683c:	930a      	str	r3, [sp, #40]	@ 0x28
 800683e:	eba3 0309 	sub.w	r3, r3, r9
 8006842:	455b      	cmp	r3, fp
 8006844:	dc31      	bgt.n	80068aa <_printf_float+0x372>
 8006846:	9b0d      	ldr	r3, [sp, #52]	@ 0x34
 8006848:	459a      	cmp	sl, r3
 800684a:	dc3a      	bgt.n	80068c2 <_printf_float+0x38a>
 800684c:	6823      	ldr	r3, [r4, #0]
 800684e:	07da      	lsls	r2, r3, #31
 8006850:	d437      	bmi.n	80068c2 <_printf_float+0x38a>
 8006852:	9b0d      	ldr	r3, [sp, #52]	@ 0x34
 8006854:	ebaa 0903 	sub.w	r9, sl, r3
 8006858:	9b0a      	ldr	r3, [sp, #40]	@ 0x28
 800685a:	ebaa 0303 	sub.w	r3, sl, r3
 800685e:	4599      	cmp	r9, r3
 8006860:	bfa8      	it	ge
 8006862:	4699      	movge	r9, r3
 8006864:	f1b9 0f00 	cmp.w	r9, #0
 8006868:	dc33      	bgt.n	80068d2 <_printf_float+0x39a>
 800686a:	f04f 0800 	mov.w	r8, #0
 800686e:	ea29 79e9 	bic.w	r9, r9, r9, asr #31
 8006872:	f104 0b1a 	add.w	fp, r4, #26
 8006876:	9b0d      	ldr	r3, [sp, #52]	@ 0x34
 8006878:	ebaa 0303 	sub.w	r3, sl, r3
 800687c:	eba3 0309 	sub.w	r3, r3, r9
 8006880:	4543      	cmp	r3, r8
 8006882:	f77f af7a 	ble.w	800677a <_printf_float+0x242>
 8006886:	2301      	movs	r3, #1
 8006888:	465a      	mov	r2, fp
 800688a:	4631      	mov	r1, r6
 800688c:	4628      	mov	r0, r5
 800688e:	47b8      	blx	r7
 8006890:	3001      	adds	r0, #1
 8006892:	f43f aeac 	beq.w	80065ee <_printf_float+0xb6>
 8006896:	f108 0801 	add.w	r8, r8, #1
 800689a:	e7ec      	b.n	8006876 <_printf_float+0x33e>
 800689c:	4642      	mov	r2, r8
 800689e:	4631      	mov	r1, r6
 80068a0:	4628      	mov	r0, r5
 80068a2:	47b8      	blx	r7
 80068a4:	3001      	adds	r0, #1
 80068a6:	d1c2      	bne.n	800682e <_printf_float+0x2f6>
 80068a8:	e6a1      	b.n	80065ee <_printf_float+0xb6>
 80068aa:	2301      	movs	r3, #1
 80068ac:	4631      	mov	r1, r6
 80068ae:	4628      	mov	r0, r5
 80068b0:	920a      	str	r2, [sp, #40]	@ 0x28
 80068b2:	47b8      	blx	r7
 80068b4:	3001      	adds	r0, #1
 80068b6:	f43f ae9a 	beq.w	80065ee <_printf_float+0xb6>
 80068ba:	9a0a      	ldr	r2, [sp, #40]	@ 0x28
 80068bc:	f10b 0b01 	add.w	fp, fp, #1
 80068c0:	e7bb      	b.n	800683a <_printf_float+0x302>
 80068c2:	4631      	mov	r1, r6
 80068c4:	e9dd 2308 	ldrd	r2, r3, [sp, #32]
 80068c8:	4628      	mov	r0, r5
 80068ca:	47b8      	blx	r7
 80068cc:	3001      	adds	r0, #1
 80068ce:	d1c0      	bne.n	8006852 <_printf_float+0x31a>
 80068d0:	e68d      	b.n	80065ee <_printf_float+0xb6>
 80068d2:	9a0a      	ldr	r2, [sp, #40]	@ 0x28
 80068d4:	464b      	mov	r3, r9
 80068d6:	4631      	mov	r1, r6
 80068d8:	4628      	mov	r0, r5
 80068da:	4442      	add	r2, r8
 80068dc:	47b8      	blx	r7
 80068de:	3001      	adds	r0, #1
 80068e0:	d1c3      	bne.n	800686a <_printf_float+0x332>
 80068e2:	e684      	b.n	80065ee <_printf_float+0xb6>
 80068e4:	f8dd a038 	ldr.w	sl, [sp, #56]	@ 0x38
 80068e8:	f1ba 0f01 	cmp.w	sl, #1
 80068ec:	dc01      	bgt.n	80068f2 <_printf_float+0x3ba>
 80068ee:	07db      	lsls	r3, r3, #31
 80068f0:	d536      	bpl.n	8006960 <_printf_float+0x428>
 80068f2:	2301      	movs	r3, #1
 80068f4:	4642      	mov	r2, r8
 80068f6:	4631      	mov	r1, r6
 80068f8:	4628      	mov	r0, r5
 80068fa:	47b8      	blx	r7
 80068fc:	3001      	adds	r0, #1
 80068fe:	f43f ae76 	beq.w	80065ee <_printf_float+0xb6>
 8006902:	e9dd 2308 	ldrd	r2, r3, [sp, #32]
 8006906:	4631      	mov	r1, r6
 8006908:	4628      	mov	r0, r5
 800690a:	47b8      	blx	r7
 800690c:	3001      	adds	r0, #1
 800690e:	f43f ae6e 	beq.w	80065ee <_printf_float+0xb6>
 8006912:	e9d4 0112 	ldrd	r0, r1, [r4, #72]	@ 0x48
 8006916:	2200      	movs	r2, #0
 8006918:	2300      	movs	r3, #0
 800691a:	f10a 3aff 	add.w	sl, sl, #4294967295
 800691e:	f7fa f8f7 	bl	8000b10 <__aeabi_dcmpeq>
 8006922:	b9c0      	cbnz	r0, 8006956 <_printf_float+0x41e>
 8006924:	4653      	mov	r3, sl
 8006926:	f108 0201 	add.w	r2, r8, #1
 800692a:	4631      	mov	r1, r6
 800692c:	4628      	mov	r0, r5
 800692e:	47b8      	blx	r7
 8006930:	3001      	adds	r0, #1
 8006932:	d10c      	bne.n	800694e <_printf_float+0x416>
 8006934:	e65b      	b.n	80065ee <_printf_float+0xb6>
 8006936:	2301      	movs	r3, #1
 8006938:	465a      	mov	r2, fp
 800693a:	4631      	mov	r1, r6
 800693c:	4628      	mov	r0, r5
 800693e:	47b8      	blx	r7
 8006940:	3001      	adds	r0, #1
 8006942:	f43f ae54 	beq.w	80065ee <_printf_float+0xb6>
 8006946:	f108 0801 	add.w	r8, r8, #1
 800694a:	45d0      	cmp	r8, sl
 800694c:	dbf3      	blt.n	8006936 <_printf_float+0x3fe>
 800694e:	464b      	mov	r3, r9
 8006950:	f104 0250 	add.w	r2, r4, #80	@ 0x50
 8006954:	e6e0      	b.n	8006718 <_printf_float+0x1e0>
 8006956:	f04f 0800 	mov.w	r8, #0
 800695a:	f104 0b1a 	add.w	fp, r4, #26
 800695e:	e7f4      	b.n	800694a <_printf_float+0x412>
 8006960:	2301      	movs	r3, #1
 8006962:	4642      	mov	r2, r8
 8006964:	e7e1      	b.n	800692a <_printf_float+0x3f2>
 8006966:	2301      	movs	r3, #1
 8006968:	464a      	mov	r2, r9
 800696a:	4631      	mov	r1, r6
 800696c:	4628      	mov	r0, r5
 800696e:	47b8      	blx	r7
 8006970:	3001      	adds	r0, #1
 8006972:	f43f ae3c 	beq.w	80065ee <_printf_float+0xb6>
 8006976:	f108 0801 	add.w	r8, r8, #1
 800697a:	68e3      	ldr	r3, [r4, #12]
 800697c:	990f      	ldr	r1, [sp, #60]	@ 0x3c
 800697e:	1a5b      	subs	r3, r3, r1
 8006980:	4543      	cmp	r3, r8
 8006982:	dcf0      	bgt.n	8006966 <_printf_float+0x42e>
 8006984:	e6fd      	b.n	8006782 <_printf_float+0x24a>
 8006986:	f04f 0800 	mov.w	r8, #0
 800698a:	f104 0919 	add.w	r9, r4, #25
 800698e:	e7f4      	b.n	800697a <_printf_float+0x442>

08006990 <_printf_common>:
 8006990:	e92d 47f0 	stmdb	sp!, {r4, r5, r6, r7, r8, r9, sl, lr}
 8006994:	4616      	mov	r6, r2
 8006996:	4698      	mov	r8, r3
 8006998:	688a      	ldr	r2, [r1, #8]
 800699a:	690b      	ldr	r3, [r1, #16]
 800699c:	4607      	mov	r7, r0
 800699e:	4293      	cmp	r3, r2
 80069a0:	bfb8      	it	lt
 80069a2:	4613      	movlt	r3, r2
 80069a4:	6033      	str	r3, [r6, #0]
 80069a6:	f891 2043 	ldrb.w	r2, [r1, #67]	@ 0x43
 80069aa:	460c      	mov	r4, r1
 80069ac:	f8dd 9020 	ldr.w	r9, [sp, #32]
 80069b0:	b10a      	cbz	r2, 80069b6 <_printf_common+0x26>
 80069b2:	3301      	adds	r3, #1
 80069b4:	6033      	str	r3, [r6, #0]
 80069b6:	6823      	ldr	r3, [r4, #0]
 80069b8:	0699      	lsls	r1, r3, #26
 80069ba:	bf42      	ittt	mi
 80069bc:	6833      	ldrmi	r3, [r6, #0]
 80069be:	3302      	addmi	r3, #2
 80069c0:	6033      	strmi	r3, [r6, #0]
 80069c2:	6825      	ldr	r5, [r4, #0]
 80069c4:	f015 0506 	ands.w	r5, r5, #6
 80069c8:	d106      	bne.n	80069d8 <_printf_common+0x48>
 80069ca:	f104 0a19 	add.w	sl, r4, #25
 80069ce:	68e3      	ldr	r3, [r4, #12]
 80069d0:	6832      	ldr	r2, [r6, #0]
 80069d2:	1a9b      	subs	r3, r3, r2
 80069d4:	42ab      	cmp	r3, r5
 80069d6:	dc2b      	bgt.n	8006a30 <_printf_common+0xa0>
 80069d8:	f894 3043 	ldrb.w	r3, [r4, #67]	@ 0x43
 80069dc:	6822      	ldr	r2, [r4, #0]
 80069de:	3b00      	subs	r3, #0
 80069e0:	bf18      	it	ne
 80069e2:	2301      	movne	r3, #1
 80069e4:	0692      	lsls	r2, r2, #26
 80069e6:	d430      	bmi.n	8006a4a <_printf_common+0xba>
 80069e8:	4641      	mov	r1, r8
 80069ea:	4638      	mov	r0, r7
 80069ec:	f104 0243 	add.w	r2, r4, #67	@ 0x43
 80069f0:	47c8      	blx	r9
 80069f2:	3001      	adds	r0, #1
 80069f4:	d023      	beq.n	8006a3e <_printf_common+0xae>
 80069f6:	6823      	ldr	r3, [r4, #0]
 80069f8:	6922      	ldr	r2, [r4, #16]
 80069fa:	f003 0306 	and.w	r3, r3, #6
 80069fe:	2b04      	cmp	r3, #4
 8006a00:	bf14      	ite	ne
 8006a02:	2500      	movne	r5, #0
 8006a04:	6833      	ldreq	r3, [r6, #0]
 8006a06:	f04f 0600 	mov.w	r6, #0
 8006a0a:	bf08      	it	eq
 8006a0c:	68e5      	ldreq	r5, [r4, #12]
 8006a0e:	f104 041a 	add.w	r4, r4, #26
 8006a12:	bf08      	it	eq
 8006a14:	1aed      	subeq	r5, r5, r3
 8006a16:	f854 3c12 	ldr.w	r3, [r4, #-18]
 8006a1a:	bf08      	it	eq
 8006a1c:	ea25 75e5 	biceq.w	r5, r5, r5, asr #31
 8006a20:	4293      	cmp	r3, r2
 8006a22:	bfc4      	itt	gt
 8006a24:	1a9b      	subgt	r3, r3, r2
 8006a26:	18ed      	addgt	r5, r5, r3
 8006a28:	42b5      	cmp	r5, r6
 8006a2a:	d11a      	bne.n	8006a62 <_printf_common+0xd2>
 8006a2c:	2000      	movs	r0, #0
 8006a2e:	e008      	b.n	8006a42 <_printf_common+0xb2>
 8006a30:	2301      	movs	r3, #1
 8006a32:	4652      	mov	r2, sl
 8006a34:	4641      	mov	r1, r8
 8006a36:	4638      	mov	r0, r7
 8006a38:	47c8      	blx	r9
 8006a3a:	3001      	adds	r0, #1
 8006a3c:	d103      	bne.n	8006a46 <_printf_common+0xb6>
 8006a3e:	f04f 30ff 	mov.w	r0, #4294967295
 8006a42:	e8bd 87f0 	ldmia.w	sp!, {r4, r5, r6, r7, r8, r9, sl, pc}
 8006a46:	3501      	adds	r5, #1
 8006a48:	e7c1      	b.n	80069ce <_printf_common+0x3e>
 8006a4a:	2030      	movs	r0, #48	@ 0x30
 8006a4c:	18e1      	adds	r1, r4, r3
 8006a4e:	f881 0043 	strb.w	r0, [r1, #67]	@ 0x43
 8006a52:	1c5a      	adds	r2, r3, #1
 8006a54:	f894 1045 	ldrb.w	r1, [r4, #69]	@ 0x45
 8006a58:	4422      	add	r2, r4
 8006a5a:	3302      	adds	r3, #2
 8006a5c:	f882 1043 	strb.w	r1, [r2, #67]	@ 0x43
 8006a60:	e7c2      	b.n	80069e8 <_printf_common+0x58>
 8006a62:	2301      	movs	r3, #1
 8006a64:	4622      	mov	r2, r4
 8006a66:	4641      	mov	r1, r8
 8006a68:	4638      	mov	r0, r7
 8006a6a:	47c8      	blx	r9
 8006a6c:	3001      	adds	r0, #1
 8006a6e:	d0e6      	beq.n	8006a3e <_printf_common+0xae>
 8006a70:	3601      	adds	r6, #1
 8006a72:	e7d9      	b.n	8006a28 <_printf_common+0x98>

08006a74 <_printf_i>:
 8006a74:	e92d 47ff 	stmdb	sp!, {r0, r1, r2, r3, r4, r5, r6, r7, r8, r9, sl, lr}
 8006a78:	7e0f      	ldrb	r7, [r1, #24]
 8006a7a:	4691      	mov	r9, r2
 8006a7c:	2f78      	cmp	r7, #120	@ 0x78
 8006a7e:	4680      	mov	r8, r0
 8006a80:	460c      	mov	r4, r1
 8006a82:	469a      	mov	sl, r3
 8006a84:	9e0c      	ldr	r6, [sp, #48]	@ 0x30
 8006a86:	f101 0243 	add.w	r2, r1, #67	@ 0x43
 8006a8a:	d807      	bhi.n	8006a9c <_printf_i+0x28>
 8006a8c:	2f62      	cmp	r7, #98	@ 0x62
 8006a8e:	d80a      	bhi.n	8006aa6 <_printf_i+0x32>
 8006a90:	2f00      	cmp	r7, #0
 8006a92:	f000 80d3 	beq.w	8006c3c <_printf_i+0x1c8>
 8006a96:	2f58      	cmp	r7, #88	@ 0x58
 8006a98:	f000 80ba 	beq.w	8006c10 <_printf_i+0x19c>
 8006a9c:	f104 0642 	add.w	r6, r4, #66	@ 0x42
 8006aa0:	f884 7042 	strb.w	r7, [r4, #66]	@ 0x42
 8006aa4:	e03a      	b.n	8006b1c <_printf_i+0xa8>
 8006aa6:	f1a7 0363 	sub.w	r3, r7, #99	@ 0x63
 8006aaa:	2b15      	cmp	r3, #21
 8006aac:	d8f6      	bhi.n	8006a9c <_printf_i+0x28>
 8006aae:	a101      	add	r1, pc, #4	@ (adr r1, 8006ab4 <_printf_i+0x40>)
 8006ab0:	f851 f023 	ldr.w	pc, [r1, r3, lsl #2]
 8006ab4:	08006b0d 	.word	0x08006b0d
 8006ab8:	08006b21 	.word	0x08006b21
 8006abc:	08006a9d 	.word	0x08006a9d
 8006ac0:	08006a9d 	.word	0x08006a9d
 8006ac4:	08006a9d 	.word	0x08006a9d
 8006ac8:	08006a9d 	.word	0x08006a9d
 8006acc:	08006b21 	.word	0x08006b21
 8006ad0:	08006a9d 	.word	0x08006a9d
 8006ad4:	08006a9d 	.word	0x08006a9d
 8006ad8:	08006a9d 	.word	0x08006a9d
 8006adc:	08006a9d 	.word	0x08006a9d
 8006ae0:	08006c23 	.word	0x08006c23
 8006ae4:	08006b4b 	.word	0x08006b4b
 8006ae8:	08006bdd 	.word	0x08006bdd
 8006aec:	08006a9d 	.word	0x08006a9d
 8006af0:	08006a9d 	.word	0x08006a9d
 8006af4:	08006c45 	.word	0x08006c45
 8006af8:	08006a9d 	.word	0x08006a9d
 8006afc:	08006b4b 	.word	0x08006b4b
 8006b00:	08006a9d 	.word	0x08006a9d
 8006b04:	08006a9d 	.word	0x08006a9d
 8006b08:	08006be5 	.word	0x08006be5
 8006b0c:	6833      	ldr	r3, [r6, #0]
 8006b0e:	1d1a      	adds	r2, r3, #4
 8006b10:	681b      	ldr	r3, [r3, #0]
 8006b12:	6032      	str	r2, [r6, #0]
 8006b14:	f104 0642 	add.w	r6, r4, #66	@ 0x42
 8006b18:	f884 3042 	strb.w	r3, [r4, #66]	@ 0x42
 8006b1c:	2301      	movs	r3, #1
 8006b1e:	e09e      	b.n	8006c5e <_printf_i+0x1ea>
 8006b20:	6833      	ldr	r3, [r6, #0]
 8006b22:	6820      	ldr	r0, [r4, #0]
 8006b24:	1d19      	adds	r1, r3, #4
 8006b26:	6031      	str	r1, [r6, #0]
 8006b28:	0606      	lsls	r6, r0, #24
 8006b2a:	d501      	bpl.n	8006b30 <_printf_i+0xbc>
 8006b2c:	681d      	ldr	r5, [r3, #0]
 8006b2e:	e003      	b.n	8006b38 <_printf_i+0xc4>
 8006b30:	0645      	lsls	r5, r0, #25
 8006b32:	d5fb      	bpl.n	8006b2c <_printf_i+0xb8>
 8006b34:	f9b3 5000 	ldrsh.w	r5, [r3]
 8006b38:	2d00      	cmp	r5, #0
 8006b3a:	da03      	bge.n	8006b44 <_printf_i+0xd0>
 8006b3c:	232d      	movs	r3, #45	@ 0x2d
 8006b3e:	426d      	negs	r5, r5
 8006b40:	f884 3043 	strb.w	r3, [r4, #67]	@ 0x43
 8006b44:	230a      	movs	r3, #10
 8006b46:	4859      	ldr	r0, [pc, #356]	@ (8006cac <_printf_i+0x238>)
 8006b48:	e011      	b.n	8006b6e <_printf_i+0xfa>
 8006b4a:	6821      	ldr	r1, [r4, #0]
 8006b4c:	6833      	ldr	r3, [r6, #0]
 8006b4e:	0608      	lsls	r0, r1, #24
 8006b50:	f853 5b04 	ldr.w	r5, [r3], #4
 8006b54:	d402      	bmi.n	8006b5c <_printf_i+0xe8>
 8006b56:	0649      	lsls	r1, r1, #25
 8006b58:	bf48      	it	mi
 8006b5a:	b2ad      	uxthmi	r5, r5
 8006b5c:	2f6f      	cmp	r7, #111	@ 0x6f
 8006b5e:	6033      	str	r3, [r6, #0]
 8006b60:	bf14      	ite	ne
 8006b62:	230a      	movne	r3, #10
 8006b64:	2308      	moveq	r3, #8
 8006b66:	4851      	ldr	r0, [pc, #324]	@ (8006cac <_printf_i+0x238>)
 8006b68:	2100      	movs	r1, #0
 8006b6a:	f884 1043 	strb.w	r1, [r4, #67]	@ 0x43
 8006b6e:	6866      	ldr	r6, [r4, #4]
 8006b70:	2e00      	cmp	r6, #0
 8006b72:	bfa8      	it	ge
 8006b74:	6821      	ldrge	r1, [r4, #0]
 8006b76:	60a6      	str	r6, [r4, #8]
 8006b78:	bfa4      	itt	ge
 8006b7a:	f021 0104 	bicge.w	r1, r1, #4
 8006b7e:	6021      	strge	r1, [r4, #0]
 8006b80:	b90d      	cbnz	r5, 8006b86 <_printf_i+0x112>
 8006b82:	2e00      	cmp	r6, #0
 8006b84:	d04b      	beq.n	8006c1e <_printf_i+0x1aa>
 8006b86:	4616      	mov	r6, r2
 8006b88:	fbb5 f1f3 	udiv	r1, r5, r3
 8006b8c:	fb03 5711 	mls	r7, r3, r1, r5
 8006b90:	5dc7      	ldrb	r7, [r0, r7]
 8006b92:	f806 7d01 	strb.w	r7, [r6, #-1]!
 8006b96:	462f      	mov	r7, r5
 8006b98:	42bb      	cmp	r3, r7
 8006b9a:	460d      	mov	r5, r1
 8006b9c:	d9f4      	bls.n	8006b88 <_printf_i+0x114>
 8006b9e:	2b08      	cmp	r3, #8
 8006ba0:	d10b      	bne.n	8006bba <_printf_i+0x146>
 8006ba2:	6823      	ldr	r3, [r4, #0]
 8006ba4:	07df      	lsls	r7, r3, #31
 8006ba6:	d508      	bpl.n	8006bba <_printf_i+0x146>
 8006ba8:	6923      	ldr	r3, [r4, #16]
 8006baa:	6861      	ldr	r1, [r4, #4]
 8006bac:	4299      	cmp	r1, r3
 8006bae:	bfde      	ittt	le
 8006bb0:	2330      	movle	r3, #48	@ 0x30
 8006bb2:	f806 3c01 	strble.w	r3, [r6, #-1]
 8006bb6:	f106 36ff 	addle.w	r6, r6, #4294967295
 8006bba:	1b92      	subs	r2, r2, r6
 8006bbc:	6122      	str	r2, [r4, #16]
 8006bbe:	464b      	mov	r3, r9
 8006bc0:	4621      	mov	r1, r4
 8006bc2:	4640      	mov	r0, r8
 8006bc4:	f8cd a000 	str.w	sl, [sp]
 8006bc8:	aa03      	add	r2, sp, #12
 8006bca:	f7ff fee1 	bl	8006990 <_printf_common>
 8006bce:	3001      	adds	r0, #1
 8006bd0:	d14a      	bne.n	8006c68 <_printf_i+0x1f4>
 8006bd2:	f04f 30ff 	mov.w	r0, #4294967295
 8006bd6:	b004      	add	sp, #16
 8006bd8:	e8bd 87f0 	ldmia.w	sp!, {r4, r5, r6, r7, r8, r9, sl, pc}
 8006bdc:	6823      	ldr	r3, [r4, #0]
 8006bde:	f043 0320 	orr.w	r3, r3, #32
 8006be2:	6023      	str	r3, [r4, #0]
 8006be4:	2778      	movs	r7, #120	@ 0x78
 8006be6:	4832      	ldr	r0, [pc, #200]	@ (8006cb0 <_printf_i+0x23c>)
 8006be8:	f884 7045 	strb.w	r7, [r4, #69]	@ 0x45
 8006bec:	6823      	ldr	r3, [r4, #0]
 8006bee:	6831      	ldr	r1, [r6, #0]
 8006bf0:	061f      	lsls	r7, r3, #24
 8006bf2:	f851 5b04 	ldr.w	r5, [r1], #4
 8006bf6:	d402      	bmi.n	8006bfe <_printf_i+0x18a>
 8006bf8:	065f      	lsls	r7, r3, #25
 8006bfa:	bf48      	it	mi
 8006bfc:	b2ad      	uxthmi	r5, r5
 8006bfe:	6031      	str	r1, [r6, #0]
 8006c00:	07d9      	lsls	r1, r3, #31
 8006c02:	bf44      	itt	mi
 8006c04:	f043 0320 	orrmi.w	r3, r3, #32
 8006c08:	6023      	strmi	r3, [r4, #0]
 8006c0a:	b11d      	cbz	r5, 8006c14 <_printf_i+0x1a0>
 8006c0c:	2310      	movs	r3, #16
 8006c0e:	e7ab      	b.n	8006b68 <_printf_i+0xf4>
 8006c10:	4826      	ldr	r0, [pc, #152]	@ (8006cac <_printf_i+0x238>)
 8006c12:	e7e9      	b.n	8006be8 <_printf_i+0x174>
 8006c14:	6823      	ldr	r3, [r4, #0]
 8006c16:	f023 0320 	bic.w	r3, r3, #32
 8006c1a:	6023      	str	r3, [r4, #0]
 8006c1c:	e7f6      	b.n	8006c0c <_printf_i+0x198>
 8006c1e:	4616      	mov	r6, r2
 8006c20:	e7bd      	b.n	8006b9e <_printf_i+0x12a>
 8006c22:	6833      	ldr	r3, [r6, #0]
 8006c24:	6825      	ldr	r5, [r4, #0]
 8006c26:	1d18      	adds	r0, r3, #4
 8006c28:	6961      	ldr	r1, [r4, #20]
 8006c2a:	6030      	str	r0, [r6, #0]
 8006c2c:	062e      	lsls	r6, r5, #24
 8006c2e:	681b      	ldr	r3, [r3, #0]
 8006c30:	d501      	bpl.n	8006c36 <_printf_i+0x1c2>
 8006c32:	6019      	str	r1, [r3, #0]
 8006c34:	e002      	b.n	8006c3c <_printf_i+0x1c8>
 8006c36:	0668      	lsls	r0, r5, #25
 8006c38:	d5fb      	bpl.n	8006c32 <_printf_i+0x1be>
 8006c3a:	8019      	strh	r1, [r3, #0]
 8006c3c:	2300      	movs	r3, #0
 8006c3e:	4616      	mov	r6, r2
 8006c40:	6123      	str	r3, [r4, #16]
 8006c42:	e7bc      	b.n	8006bbe <_printf_i+0x14a>
 8006c44:	6833      	ldr	r3, [r6, #0]
 8006c46:	2100      	movs	r1, #0
 8006c48:	1d1a      	adds	r2, r3, #4
 8006c4a:	6032      	str	r2, [r6, #0]
 8006c4c:	681e      	ldr	r6, [r3, #0]
 8006c4e:	6862      	ldr	r2, [r4, #4]
 8006c50:	4630      	mov	r0, r6
 8006c52:	f000 fc82 	bl	800755a <memchr>
 8006c56:	b108      	cbz	r0, 8006c5c <_printf_i+0x1e8>
 8006c58:	1b80      	subs	r0, r0, r6
 8006c5a:	6060      	str	r0, [r4, #4]
 8006c5c:	6863      	ldr	r3, [r4, #4]
 8006c5e:	6123      	str	r3, [r4, #16]
 8006c60:	2300      	movs	r3, #0
 8006c62:	f884 3043 	strb.w	r3, [r4, #67]	@ 0x43
 8006c66:	e7aa      	b.n	8006bbe <_printf_i+0x14a>
 8006c68:	4632      	mov	r2, r6
 8006c6a:	4649      	mov	r1, r9
 8006c6c:	4640      	mov	r0, r8
 8006c6e:	6923      	ldr	r3, [r4, #16]
 8006c70:	47d0      	blx	sl
 8006c72:	3001      	adds	r0, #1
 8006c74:	d0ad      	beq.n	8006bd2 <_printf_i+0x15e>
 8006c76:	6823      	ldr	r3, [r4, #0]
 8006c78:	079b      	lsls	r3, r3, #30
 8006c7a:	d413      	bmi.n	8006ca4 <_printf_i+0x230>
 8006c7c:	68e0      	ldr	r0, [r4, #12]
 8006c7e:	9b03      	ldr	r3, [sp, #12]
 8006c80:	4298      	cmp	r0, r3
 8006c82:	bfb8      	it	lt
 8006c84:	4618      	movlt	r0, r3
 8006c86:	e7a6      	b.n	8006bd6 <_printf_i+0x162>
 8006c88:	2301      	movs	r3, #1
 8006c8a:	4632      	mov	r2, r6
 8006c8c:	4649      	mov	r1, r9
 8006c8e:	4640      	mov	r0, r8
 8006c90:	47d0      	blx	sl
 8006c92:	3001      	adds	r0, #1
 8006c94:	d09d      	beq.n	8006bd2 <_printf_i+0x15e>
 8006c96:	3501      	adds	r5, #1
 8006c98:	68e3      	ldr	r3, [r4, #12]
 8006c9a:	9903      	ldr	r1, [sp, #12]
 8006c9c:	1a5b      	subs	r3, r3, r1
 8006c9e:	42ab      	cmp	r3, r5
 8006ca0:	dcf2      	bgt.n	8006c88 <_printf_i+0x214>
 8006ca2:	e7eb      	b.n	8006c7c <_printf_i+0x208>
 8006ca4:	2500      	movs	r5, #0
 8006ca6:	f104 0619 	add.w	r6, r4, #25
 8006caa:	e7f5      	b.n	8006c98 <_printf_i+0x224>
 8006cac:	0800c9bf 	.word	0x0800c9bf
 8006cb0:	0800c9d0 	.word	0x0800c9d0

08006cb4 <_scanf_float>:
 8006cb4:	e92d 4ff0 	stmdb	sp!, {r4, r5, r6, r7, r8, r9, sl, fp, lr}
 8006cb8:	b087      	sub	sp, #28
 8006cba:	9303      	str	r3, [sp, #12]
 8006cbc:	688b      	ldr	r3, [r1, #8]
 8006cbe:	4617      	mov	r7, r2
 8006cc0:	1e5a      	subs	r2, r3, #1
 8006cc2:	f5b2 7fae 	cmp.w	r2, #348	@ 0x15c
 8006cc6:	bf82      	ittt	hi
 8006cc8:	f46f 75ae 	mvnhi.w	r5, #348	@ 0x15c
 8006ccc:	eb03 0b05 	addhi.w	fp, r3, r5
 8006cd0:	f240 135d 	movwhi	r3, #349	@ 0x15d
 8006cd4:	460a      	mov	r2, r1
 8006cd6:	f04f 0500 	mov.w	r5, #0
 8006cda:	bf88      	it	hi
 8006cdc:	608b      	strhi	r3, [r1, #8]
 8006cde:	680b      	ldr	r3, [r1, #0]
 8006ce0:	4680      	mov	r8, r0
 8006ce2:	f443 63f0 	orr.w	r3, r3, #1920	@ 0x780
 8006ce6:	f842 3b1c 	str.w	r3, [r2], #28
 8006cea:	460c      	mov	r4, r1
 8006cec:	bf98      	it	ls
 8006cee:	f04f 0b00 	movls.w	fp, #0
 8006cf2:	4616      	mov	r6, r2
 8006cf4:	46aa      	mov	sl, r5
 8006cf6:	46a9      	mov	r9, r5
 8006cf8:	e9cd 5504 	strd	r5, r5, [sp, #16]
 8006cfc:	9201      	str	r2, [sp, #4]
 8006cfe:	9502      	str	r5, [sp, #8]
 8006d00:	68a2      	ldr	r2, [r4, #8]
 8006d02:	b152      	cbz	r2, 8006d1a <_scanf_float+0x66>
 8006d04:	683b      	ldr	r3, [r7, #0]
 8006d06:	781b      	ldrb	r3, [r3, #0]
 8006d08:	2b4e      	cmp	r3, #78	@ 0x4e
 8006d0a:	d865      	bhi.n	8006dd8 <_scanf_float+0x124>
 8006d0c:	2b40      	cmp	r3, #64	@ 0x40
 8006d0e:	d83d      	bhi.n	8006d8c <_scanf_float+0xd8>
 8006d10:	f1a3 012b 	sub.w	r1, r3, #43	@ 0x2b
 8006d14:	b2c8      	uxtb	r0, r1
 8006d16:	280e      	cmp	r0, #14
 8006d18:	d93b      	bls.n	8006d92 <_scanf_float+0xde>
 8006d1a:	f1b9 0f00 	cmp.w	r9, #0
 8006d1e:	d003      	beq.n	8006d28 <_scanf_float+0x74>
 8006d20:	6823      	ldr	r3, [r4, #0]
 8006d22:	f423 7380 	bic.w	r3, r3, #256	@ 0x100
 8006d26:	6023      	str	r3, [r4, #0]
 8006d28:	f10a 3aff 	add.w	sl, sl, #4294967295
 8006d2c:	f1ba 0f01 	cmp.w	sl, #1
 8006d30:	f200 8118 	bhi.w	8006f64 <_scanf_float+0x2b0>
 8006d34:	9b01      	ldr	r3, [sp, #4]
 8006d36:	429e      	cmp	r6, r3
 8006d38:	f200 8109 	bhi.w	8006f4e <_scanf_float+0x29a>
 8006d3c:	2001      	movs	r0, #1
 8006d3e:	b007      	add	sp, #28
 8006d40:	e8bd 8ff0 	ldmia.w	sp!, {r4, r5, r6, r7, r8, r9, sl, fp, pc}
 8006d44:	f1a3 0261 	sub.w	r2, r3, #97	@ 0x61
 8006d48:	2a0d      	cmp	r2, #13
 8006d4a:	d8e6      	bhi.n	8006d1a <_scanf_float+0x66>
 8006d4c:	a101      	add	r1, pc, #4	@ (adr r1, 8006d54 <_scanf_float+0xa0>)
 8006d4e:	f851 f022 	ldr.w	pc, [r1, r2, lsl #2]
 8006d52:	bf00      	nop
 8006d54:	08006e9b 	.word	0x08006e9b
 8006d58:	08006d1b 	.word	0x08006d1b
 8006d5c:	08006d1b 	.word	0x08006d1b
 8006d60:	08006d1b 	.word	0x08006d1b
 8006d64:	08006efb 	.word	0x08006efb
 8006d68:	08006ed3 	.word	0x08006ed3
 8006d6c:	08006d1b 	.word	0x08006d1b
 8006d70:	08006d1b 	.word	0x08006d1b
 8006d74:	08006ea9 	.word	0x08006ea9
 8006d78:	08006d1b 	.word	0x08006d1b
 8006d7c:	08006d1b 	.word	0x08006d1b
 8006d80:	08006d1b 	.word	0x08006d1b
 8006d84:	08006d1b 	.word	0x08006d1b
 8006d88:	08006e61 	.word	0x08006e61
 8006d8c:	f1a3 0241 	sub.w	r2, r3, #65	@ 0x41
 8006d90:	e7da      	b.n	8006d48 <_scanf_float+0x94>
 8006d92:	290e      	cmp	r1, #14
 8006d94:	d8c1      	bhi.n	8006d1a <_scanf_float+0x66>
 8006d96:	a001      	add	r0, pc, #4	@ (adr r0, 8006d9c <_scanf_float+0xe8>)
 8006d98:	f850 f021 	ldr.w	pc, [r0, r1, lsl #2]
 8006d9c:	08006e51 	.word	0x08006e51
 8006da0:	08006d1b 	.word	0x08006d1b
 8006da4:	08006e51 	.word	0x08006e51
 8006da8:	08006ee7 	.word	0x08006ee7
 8006dac:	08006d1b 	.word	0x08006d1b
 8006db0:	08006df9 	.word	0x08006df9
 8006db4:	08006e37 	.word	0x08006e37
 8006db8:	08006e37 	.word	0x08006e37
 8006dbc:	08006e37 	.word	0x08006e37
 8006dc0:	08006e37 	.word	0x08006e37
 8006dc4:	08006e37 	.word	0x08006e37
 8006dc8:	08006e37 	.word	0x08006e37
 8006dcc:	08006e37 	.word	0x08006e37
 8006dd0:	08006e37 	.word	0x08006e37
 8006dd4:	08006e37 	.word	0x08006e37
 8006dd8:	2b6e      	cmp	r3, #110	@ 0x6e
 8006dda:	d809      	bhi.n	8006df0 <_scanf_float+0x13c>
 8006ddc:	2b60      	cmp	r3, #96	@ 0x60
 8006dde:	d8b1      	bhi.n	8006d44 <_scanf_float+0x90>
 8006de0:	2b54      	cmp	r3, #84	@ 0x54
 8006de2:	d07b      	beq.n	8006edc <_scanf_float+0x228>
 8006de4:	2b59      	cmp	r3, #89	@ 0x59
 8006de6:	d198      	bne.n	8006d1a <_scanf_float+0x66>
 8006de8:	2d07      	cmp	r5, #7
 8006dea:	d196      	bne.n	8006d1a <_scanf_float+0x66>
 8006dec:	2508      	movs	r5, #8
 8006dee:	e02c      	b.n	8006e4a <_scanf_float+0x196>
 8006df0:	2b74      	cmp	r3, #116	@ 0x74
 8006df2:	d073      	beq.n	8006edc <_scanf_float+0x228>
 8006df4:	2b79      	cmp	r3, #121	@ 0x79
 8006df6:	e7f6      	b.n	8006de6 <_scanf_float+0x132>
 8006df8:	6821      	ldr	r1, [r4, #0]
 8006dfa:	05c8      	lsls	r0, r1, #23
 8006dfc:	d51b      	bpl.n	8006e36 <_scanf_float+0x182>
 8006dfe:	f021 0180 	bic.w	r1, r1, #128	@ 0x80
 8006e02:	6021      	str	r1, [r4, #0]
 8006e04:	f109 0901 	add.w	r9, r9, #1
 8006e08:	f1bb 0f00 	cmp.w	fp, #0
 8006e0c:	d003      	beq.n	8006e16 <_scanf_float+0x162>
 8006e0e:	3201      	adds	r2, #1
 8006e10:	f10b 3bff 	add.w	fp, fp, #4294967295
 8006e14:	60a2      	str	r2, [r4, #8]
 8006e16:	68a3      	ldr	r3, [r4, #8]
 8006e18:	3b01      	subs	r3, #1
 8006e1a:	60a3      	str	r3, [r4, #8]
 8006e1c:	6923      	ldr	r3, [r4, #16]
 8006e1e:	3301      	adds	r3, #1
 8006e20:	6123      	str	r3, [r4, #16]
 8006e22:	687b      	ldr	r3, [r7, #4]
 8006e24:	3b01      	subs	r3, #1
 8006e26:	2b00      	cmp	r3, #0
 8006e28:	607b      	str	r3, [r7, #4]
 8006e2a:	f340 8087 	ble.w	8006f3c <_scanf_float+0x288>
 8006e2e:	683b      	ldr	r3, [r7, #0]
 8006e30:	3301      	adds	r3, #1
 8006e32:	603b      	str	r3, [r7, #0]
 8006e34:	e764      	b.n	8006d00 <_scanf_float+0x4c>
 8006e36:	eb1a 0105 	adds.w	r1, sl, r5
 8006e3a:	f47f af6e 	bne.w	8006d1a <_scanf_float+0x66>
 8006e3e:	460d      	mov	r5, r1
 8006e40:	468a      	mov	sl, r1
 8006e42:	6822      	ldr	r2, [r4, #0]
 8006e44:	f422 72c0 	bic.w	r2, r2, #384	@ 0x180
 8006e48:	6022      	str	r2, [r4, #0]
 8006e4a:	f806 3b01 	strb.w	r3, [r6], #1
 8006e4e:	e7e2      	b.n	8006e16 <_scanf_float+0x162>
 8006e50:	6822      	ldr	r2, [r4, #0]
 8006e52:	0610      	lsls	r0, r2, #24
 8006e54:	f57f af61 	bpl.w	8006d1a <_scanf_float+0x66>
 8006e58:	f022 0280 	bic.w	r2, r2, #128	@ 0x80
 8006e5c:	6022      	str	r2, [r4, #0]
 8006e5e:	e7f4      	b.n	8006e4a <_scanf_float+0x196>
 8006e60:	f1ba 0f00 	cmp.w	sl, #0
 8006e64:	d10e      	bne.n	8006e84 <_scanf_float+0x1d0>
 8006e66:	f1b9 0f00 	cmp.w	r9, #0
 8006e6a:	d10e      	bne.n	8006e8a <_scanf_float+0x1d6>
 8006e6c:	6822      	ldr	r2, [r4, #0]
 8006e6e:	f402 61e0 	and.w	r1, r2, #1792	@ 0x700
 8006e72:	f5b1 6fe0 	cmp.w	r1, #1792	@ 0x700
 8006e76:	d108      	bne.n	8006e8a <_scanf_float+0x1d6>
 8006e78:	f422 62f0 	bic.w	r2, r2, #1920	@ 0x780
 8006e7c:	f04f 0a01 	mov.w	sl, #1
 8006e80:	6022      	str	r2, [r4, #0]
 8006e82:	e7e2      	b.n	8006e4a <_scanf_float+0x196>
 8006e84:	f1ba 0f02 	cmp.w	sl, #2
 8006e88:	d055      	beq.n	8006f36 <_scanf_float+0x282>
 8006e8a:	2d01      	cmp	r5, #1
 8006e8c:	d002      	beq.n	8006e94 <_scanf_float+0x1e0>
 8006e8e:	2d04      	cmp	r5, #4
 8006e90:	f47f af43 	bne.w	8006d1a <_scanf_float+0x66>
 8006e94:	3501      	adds	r5, #1
 8006e96:	b2ed      	uxtb	r5, r5
 8006e98:	e7d7      	b.n	8006e4a <_scanf_float+0x196>
 8006e9a:	f1ba 0f01 	cmp.w	sl, #1
 8006e9e:	f47f af3c 	bne.w	8006d1a <_scanf_float+0x66>
 8006ea2:	f04f 0a02 	mov.w	sl, #2
 8006ea6:	e7d0      	b.n	8006e4a <_scanf_float+0x196>
 8006ea8:	b97d      	cbnz	r5, 8006eca <_scanf_float+0x216>
 8006eaa:	f1b9 0f00 	cmp.w	r9, #0
 8006eae:	f47f af37 	bne.w	8006d20 <_scanf_float+0x6c>
 8006eb2:	6822      	ldr	r2, [r4, #0]
 8006eb4:	f402 61e0 	and.w	r1, r2, #1792	@ 0x700
 8006eb8:	f5b1 6fe0 	cmp.w	r1, #1792	@ 0x700
 8006ebc:	f040 8103 	bne.w	80070c6 <_scanf_float+0x412>
 8006ec0:	f422 62f0 	bic.w	r2, r2, #1920	@ 0x780
 8006ec4:	2501      	movs	r5, #1
 8006ec6:	6022      	str	r2, [r4, #0]
 8006ec8:	e7bf      	b.n	8006e4a <_scanf_float+0x196>
 8006eca:	2d03      	cmp	r5, #3
 8006ecc:	d0e2      	beq.n	8006e94 <_scanf_float+0x1e0>
 8006ece:	2d05      	cmp	r5, #5
 8006ed0:	e7de      	b.n	8006e90 <_scanf_float+0x1dc>
 8006ed2:	2d02      	cmp	r5, #2
 8006ed4:	f47f af21 	bne.w	8006d1a <_scanf_float+0x66>
 8006ed8:	2503      	movs	r5, #3
 8006eda:	e7b6      	b.n	8006e4a <_scanf_float+0x196>
 8006edc:	2d06      	cmp	r5, #6
 8006ede:	f47f af1c 	bne.w	8006d1a <_scanf_float+0x66>
 8006ee2:	2507      	movs	r5, #7
 8006ee4:	e7b1      	b.n	8006e4a <_scanf_float+0x196>
 8006ee6:	6822      	ldr	r2, [r4, #0]
 8006ee8:	0591      	lsls	r1, r2, #22
 8006eea:	f57f af16 	bpl.w	8006d1a <_scanf_float+0x66>
 8006eee:	f422 7220 	bic.w	r2, r2, #640	@ 0x280
 8006ef2:	6022      	str	r2, [r4, #0]
 8006ef4:	f8cd 9008 	str.w	r9, [sp, #8]
 8006ef8:	e7a7      	b.n	8006e4a <_scanf_float+0x196>
 8006efa:	6822      	ldr	r2, [r4, #0]
 8006efc:	f402 61a0 	and.w	r1, r2, #1280	@ 0x500
 8006f00:	f5b1 6f80 	cmp.w	r1, #1024	@ 0x400
 8006f04:	d006      	beq.n	8006f14 <_scanf_float+0x260>
 8006f06:	0550      	lsls	r0, r2, #21
 8006f08:	f57f af07 	bpl.w	8006d1a <_scanf_float+0x66>
 8006f0c:	f1b9 0f00 	cmp.w	r9, #0
 8006f10:	f000 80d9 	beq.w	80070c6 <_scanf_float+0x412>
 8006f14:	0591      	lsls	r1, r2, #22
 8006f16:	bf58      	it	pl
 8006f18:	9902      	ldrpl	r1, [sp, #8]
 8006f1a:	f422 62f0 	bic.w	r2, r2, #1920	@ 0x780
 8006f1e:	bf58      	it	pl
 8006f20:	eba9 0101 	subpl.w	r1, r9, r1
 8006f24:	f442 72c0 	orr.w	r2, r2, #384	@ 0x180
 8006f28:	f04f 0900 	mov.w	r9, #0
 8006f2c:	bf58      	it	pl
 8006f2e:	e9cd 1604 	strdpl	r1, r6, [sp, #16]
 8006f32:	6022      	str	r2, [r4, #0]
 8006f34:	e789      	b.n	8006e4a <_scanf_float+0x196>
 8006f36:	f04f 0a03 	mov.w	sl, #3
 8006f3a:	e786      	b.n	8006e4a <_scanf_float+0x196>
 8006f3c:	4639      	mov	r1, r7
 8006f3e:	4640      	mov	r0, r8
 8006f40:	f8d4 3180 	ldr.w	r3, [r4, #384]	@ 0x180
 8006f44:	4798      	blx	r3
 8006f46:	2800      	cmp	r0, #0
 8006f48:	f43f aeda 	beq.w	8006d00 <_scanf_float+0x4c>
 8006f4c:	e6e5      	b.n	8006d1a <_scanf_float+0x66>
 8006f4e:	f8d4 317c 	ldr.w	r3, [r4, #380]	@ 0x17c
 8006f52:	463a      	mov	r2, r7
 8006f54:	4640      	mov	r0, r8
 8006f56:	f816 1d01 	ldrb.w	r1, [r6, #-1]!
 8006f5a:	4798      	blx	r3
 8006f5c:	6923      	ldr	r3, [r4, #16]
 8006f5e:	3b01      	subs	r3, #1
 8006f60:	6123      	str	r3, [r4, #16]
 8006f62:	e6e7      	b.n	8006d34 <_scanf_float+0x80>
 8006f64:	1e6b      	subs	r3, r5, #1
 8006f66:	2b06      	cmp	r3, #6
 8006f68:	d824      	bhi.n	8006fb4 <_scanf_float+0x300>
 8006f6a:	2d02      	cmp	r5, #2
 8006f6c:	d836      	bhi.n	8006fdc <_scanf_float+0x328>
 8006f6e:	9b01      	ldr	r3, [sp, #4]
 8006f70:	429e      	cmp	r6, r3
 8006f72:	f67f aee3 	bls.w	8006d3c <_scanf_float+0x88>
 8006f76:	f8d4 317c 	ldr.w	r3, [r4, #380]	@ 0x17c
 8006f7a:	463a      	mov	r2, r7
 8006f7c:	4640      	mov	r0, r8
 8006f7e:	f816 1d01 	ldrb.w	r1, [r6, #-1]!
 8006f82:	4798      	blx	r3
 8006f84:	6923      	ldr	r3, [r4, #16]
 8006f86:	3b01      	subs	r3, #1
 8006f88:	6123      	str	r3, [r4, #16]
 8006f8a:	e7f0      	b.n	8006f6e <_scanf_float+0x2ba>
 8006f8c:	f8d4 317c 	ldr.w	r3, [r4, #380]	@ 0x17c
 8006f90:	463a      	mov	r2, r7
 8006f92:	4640      	mov	r0, r8
 8006f94:	f81b 1d01 	ldrb.w	r1, [fp, #-1]!
 8006f98:	4798      	blx	r3
 8006f9a:	6923      	ldr	r3, [r4, #16]
 8006f9c:	3b01      	subs	r3, #1
 8006f9e:	6123      	str	r3, [r4, #16]
 8006fa0:	f10a 3aff 	add.w	sl, sl, #4294967295
 8006fa4:	fa5f fa8a 	uxtb.w	sl, sl
 8006fa8:	f1ba 0f02 	cmp.w	sl, #2
 8006fac:	d1ee      	bne.n	8006f8c <_scanf_float+0x2d8>
 8006fae:	3d03      	subs	r5, #3
 8006fb0:	b2ed      	uxtb	r5, r5
 8006fb2:	1b76      	subs	r6, r6, r5
 8006fb4:	6823      	ldr	r3, [r4, #0]
 8006fb6:	05da      	lsls	r2, r3, #23
 8006fb8:	d530      	bpl.n	800701c <_scanf_float+0x368>
 8006fba:	055b      	lsls	r3, r3, #21
 8006fbc:	d511      	bpl.n	8006fe2 <_scanf_float+0x32e>
 8006fbe:	9b01      	ldr	r3, [sp, #4]
 8006fc0:	429e      	cmp	r6, r3
 8006fc2:	f67f aebb 	bls.w	8006d3c <_scanf_float+0x88>
 8006fc6:	f8d4 317c 	ldr.w	r3, [r4, #380]	@ 0x17c
 8006fca:	463a      	mov	r2, r7
 8006fcc:	4640      	mov	r0, r8
 8006fce:	f816 1d01 	ldrb.w	r1, [r6, #-1]!
 8006fd2:	4798      	blx	r3
 8006fd4:	6923      	ldr	r3, [r4, #16]
 8006fd6:	3b01      	subs	r3, #1
 8006fd8:	6123      	str	r3, [r4, #16]
 8006fda:	e7f0      	b.n	8006fbe <_scanf_float+0x30a>
 8006fdc:	46aa      	mov	sl, r5
 8006fde:	46b3      	mov	fp, r6
 8006fe0:	e7de      	b.n	8006fa0 <_scanf_float+0x2ec>
 8006fe2:	f816 1c01 	ldrb.w	r1, [r6, #-1]
 8006fe6:	6923      	ldr	r3, [r4, #16]
 8006fe8:	2965      	cmp	r1, #101	@ 0x65
 8006fea:	f103 33ff 	add.w	r3, r3, #4294967295
 8006fee:	f106 35ff 	add.w	r5, r6, #4294967295
 8006ff2:	6123      	str	r3, [r4, #16]
 8006ff4:	d00c      	beq.n	8007010 <_scanf_float+0x35c>
 8006ff6:	2945      	cmp	r1, #69	@ 0x45
 8006ff8:	d00a      	beq.n	8007010 <_scanf_float+0x35c>
 8006ffa:	f8d4 317c 	ldr.w	r3, [r4, #380]	@ 0x17c
 8006ffe:	463a      	mov	r2, r7
 8007000:	4640      	mov	r0, r8
 8007002:	4798      	blx	r3
 8007004:	6923      	ldr	r3, [r4, #16]
 8007006:	f816 1c02 	ldrb.w	r1, [r6, #-2]
 800700a:	3b01      	subs	r3, #1
 800700c:	1eb5      	subs	r5, r6, #2
 800700e:	6123      	str	r3, [r4, #16]
 8007010:	463a      	mov	r2, r7
 8007012:	4640      	mov	r0, r8
 8007014:	f8d4 317c 	ldr.w	r3, [r4, #380]	@ 0x17c
 8007018:	4798      	blx	r3
 800701a:	462e      	mov	r6, r5
 800701c:	6822      	ldr	r2, [r4, #0]
 800701e:	f012 0210 	ands.w	r2, r2, #16
 8007022:	d001      	beq.n	8007028 <_scanf_float+0x374>
 8007024:	2000      	movs	r0, #0
 8007026:	e68a      	b.n	8006d3e <_scanf_float+0x8a>
 8007028:	7032      	strb	r2, [r6, #0]
 800702a:	6823      	ldr	r3, [r4, #0]
 800702c:	f403 63c0 	and.w	r3, r3, #1536	@ 0x600
 8007030:	f5b3 6f80 	cmp.w	r3, #1024	@ 0x400
 8007034:	d11c      	bne.n	8007070 <_scanf_float+0x3bc>
 8007036:	9b02      	ldr	r3, [sp, #8]
 8007038:	454b      	cmp	r3, r9
 800703a:	eba3 0209 	sub.w	r2, r3, r9
 800703e:	d123      	bne.n	8007088 <_scanf_float+0x3d4>
 8007040:	2200      	movs	r2, #0
 8007042:	4640      	mov	r0, r8
 8007044:	9901      	ldr	r1, [sp, #4]
 8007046:	f002 fcb7 	bl	80099b8 <_strtod_r>
 800704a:	9b03      	ldr	r3, [sp, #12]
 800704c:	6825      	ldr	r5, [r4, #0]
 800704e:	681b      	ldr	r3, [r3, #0]
 8007050:	f015 0f02 	tst.w	r5, #2
 8007054:	4606      	mov	r6, r0
 8007056:	460f      	mov	r7, r1
 8007058:	f103 0204 	add.w	r2, r3, #4
 800705c:	d01f      	beq.n	800709e <_scanf_float+0x3ea>
 800705e:	9903      	ldr	r1, [sp, #12]
 8007060:	600a      	str	r2, [r1, #0]
 8007062:	681b      	ldr	r3, [r3, #0]
 8007064:	e9c3 6700 	strd	r6, r7, [r3]
 8007068:	68e3      	ldr	r3, [r4, #12]
 800706a:	3301      	adds	r3, #1
 800706c:	60e3      	str	r3, [r4, #12]
 800706e:	e7d9      	b.n	8007024 <_scanf_float+0x370>
 8007070:	9b04      	ldr	r3, [sp, #16]
 8007072:	2b00      	cmp	r3, #0
 8007074:	d0e4      	beq.n	8007040 <_scanf_float+0x38c>
 8007076:	9905      	ldr	r1, [sp, #20]
 8007078:	230a      	movs	r3, #10
 800707a:	4640      	mov	r0, r8
 800707c:	3101      	adds	r1, #1
 800707e:	f7ff f9b1 	bl	80063e4 <_strtol_r>
 8007082:	9b04      	ldr	r3, [sp, #16]
 8007084:	9e05      	ldr	r6, [sp, #20]
 8007086:	1ac2      	subs	r2, r0, r3
 8007088:	f204 136f 	addw	r3, r4, #367	@ 0x16f
 800708c:	429e      	cmp	r6, r3
 800708e:	bf28      	it	cs
 8007090:	f504 76b7 	addcs.w	r6, r4, #366	@ 0x16e
 8007094:	4630      	mov	r0, r6
 8007096:	490d      	ldr	r1, [pc, #52]	@ (80070cc <_scanf_float+0x418>)
 8007098:	f000 f8de 	bl	8007258 <siprintf>
 800709c:	e7d0      	b.n	8007040 <_scanf_float+0x38c>
 800709e:	076d      	lsls	r5, r5, #29
 80070a0:	d4dd      	bmi.n	800705e <_scanf_float+0x3aa>
 80070a2:	9d03      	ldr	r5, [sp, #12]
 80070a4:	602a      	str	r2, [r5, #0]
 80070a6:	681d      	ldr	r5, [r3, #0]
 80070a8:	4602      	mov	r2, r0
 80070aa:	460b      	mov	r3, r1
 80070ac:	f7f9 fd62 	bl	8000b74 <__aeabi_dcmpun>
 80070b0:	b120      	cbz	r0, 80070bc <_scanf_float+0x408>
 80070b2:	4807      	ldr	r0, [pc, #28]	@ (80070d0 <_scanf_float+0x41c>)
 80070b4:	f000 fa6e 	bl	8007594 <nanf>
 80070b8:	6028      	str	r0, [r5, #0]
 80070ba:	e7d5      	b.n	8007068 <_scanf_float+0x3b4>
 80070bc:	4630      	mov	r0, r6
 80070be:	4639      	mov	r1, r7
 80070c0:	f7f9 fdb6 	bl	8000c30 <__aeabi_d2f>
 80070c4:	e7f8      	b.n	80070b8 <_scanf_float+0x404>
 80070c6:	f04f 0900 	mov.w	r9, #0
 80070ca:	e62d      	b.n	8006d28 <_scanf_float+0x74>
 80070cc:	0800c9e1 	.word	0x0800c9e1
 80070d0:	0800ca92 	.word	0x0800ca92

080070d4 <std>:
 80070d4:	2300      	movs	r3, #0
 80070d6:	b510      	push	{r4, lr}
 80070d8:	4604      	mov	r4, r0
 80070da:	e9c0 3300 	strd	r3, r3, [r0]
 80070de:	e9c0 3304 	strd	r3, r3, [r0, #16]
 80070e2:	6083      	str	r3, [r0, #8]
 80070e4:	8181      	strh	r1, [r0, #12]
 80070e6:	6643      	str	r3, [r0, #100]	@ 0x64
 80070e8:	81c2      	strh	r2, [r0, #14]
 80070ea:	6183      	str	r3, [r0, #24]
 80070ec:	4619      	mov	r1, r3
 80070ee:	2208      	movs	r2, #8
 80070f0:	305c      	adds	r0, #92	@ 0x5c
 80070f2:	f000 f914 	bl	800731e <memset>
 80070f6:	4b0d      	ldr	r3, [pc, #52]	@ (800712c <std+0x58>)
 80070f8:	6224      	str	r4, [r4, #32]
 80070fa:	6263      	str	r3, [r4, #36]	@ 0x24
 80070fc:	4b0c      	ldr	r3, [pc, #48]	@ (8007130 <std+0x5c>)
 80070fe:	62a3      	str	r3, [r4, #40]	@ 0x28
 8007100:	4b0c      	ldr	r3, [pc, #48]	@ (8007134 <std+0x60>)
 8007102:	62e3      	str	r3, [r4, #44]	@ 0x2c
 8007104:	4b0c      	ldr	r3, [pc, #48]	@ (8007138 <std+0x64>)
 8007106:	6323      	str	r3, [r4, #48]	@ 0x30
 8007108:	4b0c      	ldr	r3, [pc, #48]	@ (800713c <std+0x68>)
 800710a:	429c      	cmp	r4, r3
 800710c:	d006      	beq.n	800711c <std+0x48>
 800710e:	f103 0268 	add.w	r2, r3, #104	@ 0x68
 8007112:	4294      	cmp	r4, r2
 8007114:	d002      	beq.n	800711c <std+0x48>
 8007116:	33d0      	adds	r3, #208	@ 0xd0
 8007118:	429c      	cmp	r4, r3
 800711a:	d105      	bne.n	8007128 <std+0x54>
 800711c:	f104 0058 	add.w	r0, r4, #88	@ 0x58
 8007120:	e8bd 4010 	ldmia.w	sp!, {r4, lr}
 8007124:	f000 ba0e 	b.w	8007544 <__retarget_lock_init_recursive>
 8007128:	bd10      	pop	{r4, pc}
 800712a:	bf00      	nop
 800712c:	08007299 	.word	0x08007299
 8007130:	080072bb 	.word	0x080072bb
 8007134:	080072f3 	.word	0x080072f3
 8007138:	08007317 	.word	0x08007317
 800713c:	20000adc 	.word	0x20000adc

08007140 <stdio_exit_handler>:
 8007140:	4a02      	ldr	r2, [pc, #8]	@ (800714c <stdio_exit_handler+0xc>)
 8007142:	4903      	ldr	r1, [pc, #12]	@ (8007150 <stdio_exit_handler+0x10>)
 8007144:	4803      	ldr	r0, [pc, #12]	@ (8007154 <stdio_exit_handler+0x14>)
 8007146:	f000 b869 	b.w	800721c <_fwalk_sglue>
 800714a:	bf00      	nop
 800714c:	20000108 	.word	0x20000108
 8007150:	08009d75 	.word	0x08009d75
 8007154:	20000118 	.word	0x20000118

08007158 <cleanup_stdio>:
 8007158:	6841      	ldr	r1, [r0, #4]
 800715a:	4b0c      	ldr	r3, [pc, #48]	@ (800718c <cleanup_stdio+0x34>)
 800715c:	b510      	push	{r4, lr}
 800715e:	4299      	cmp	r1, r3
 8007160:	4604      	mov	r4, r0
 8007162:	d001      	beq.n	8007168 <cleanup_stdio+0x10>
 8007164:	f002 fe06 	bl	8009d74 <_fflush_r>
 8007168:	68a1      	ldr	r1, [r4, #8]
 800716a:	4b09      	ldr	r3, [pc, #36]	@ (8007190 <cleanup_stdio+0x38>)
 800716c:	4299      	cmp	r1, r3
 800716e:	d002      	beq.n	8007176 <cleanup_stdio+0x1e>
 8007170:	4620      	mov	r0, r4
 8007172:	f002 fdff 	bl	8009d74 <_fflush_r>
 8007176:	68e1      	ldr	r1, [r4, #12]
 8007178:	4b06      	ldr	r3, [pc, #24]	@ (8007194 <cleanup_stdio+0x3c>)
 800717a:	4299      	cmp	r1, r3
 800717c:	d004      	beq.n	8007188 <cleanup_stdio+0x30>
 800717e:	4620      	mov	r0, r4
 8007180:	e8bd 4010 	ldmia.w	sp!, {r4, lr}
 8007184:	f002 bdf6 	b.w	8009d74 <_fflush_r>
 8007188:	bd10      	pop	{r4, pc}
 800718a:	bf00      	nop
 800718c:	20000adc 	.word	0x20000adc
 8007190:	20000b44 	.word	0x20000b44
 8007194:	20000bac 	.word	0x20000bac

08007198 <global_stdio_init.part.0>:
 8007198:	b510      	push	{r4, lr}
 800719a:	4b0b      	ldr	r3, [pc, #44]	@ (80071c8 <global_stdio_init.part.0+0x30>)
 800719c:	4c0b      	ldr	r4, [pc, #44]	@ (80071cc <global_stdio_init.part.0+0x34>)
 800719e:	4a0c      	ldr	r2, [pc, #48]	@ (80071d0 <global_stdio_init.part.0+0x38>)
 80071a0:	4620      	mov	r0, r4
 80071a2:	601a      	str	r2, [r3, #0]
 80071a4:	2104      	movs	r1, #4
 80071a6:	2200      	movs	r2, #0
 80071a8:	f7ff ff94 	bl	80070d4 <std>
 80071ac:	f104 0068 	add.w	r0, r4, #104	@ 0x68
 80071b0:	2201      	movs	r2, #1
 80071b2:	2109      	movs	r1, #9
 80071b4:	f7ff ff8e 	bl	80070d4 <std>
 80071b8:	f104 00d0 	add.w	r0, r4, #208	@ 0xd0
 80071bc:	2202      	movs	r2, #2
 80071be:	e8bd 4010 	ldmia.w	sp!, {r4, lr}
 80071c2:	2112      	movs	r1, #18
 80071c4:	f7ff bf86 	b.w	80070d4 <std>
 80071c8:	20000c14 	.word	0x20000c14
 80071cc:	20000adc 	.word	0x20000adc
 80071d0:	08007141 	.word	0x08007141

080071d4 <__sfp_lock_acquire>:
 80071d4:	4801      	ldr	r0, [pc, #4]	@ (80071dc <__sfp_lock_acquire+0x8>)
 80071d6:	f000 b9b6 	b.w	8007546 <__retarget_lock_acquire_recursive>
 80071da:	bf00      	nop
 80071dc:	20000c1d 	.word	0x20000c1d

080071e0 <__sfp_lock_release>:
 80071e0:	4801      	ldr	r0, [pc, #4]	@ (80071e8 <__sfp_lock_release+0x8>)
 80071e2:	f000 b9b1 	b.w	8007548 <__retarget_lock_release_recursive>
 80071e6:	bf00      	nop
 80071e8:	20000c1d 	.word	0x20000c1d

080071ec <__sinit>:
 80071ec:	b510      	push	{r4, lr}
 80071ee:	4604      	mov	r4, r0
 80071f0:	f7ff fff0 	bl	80071d4 <__sfp_lock_acquire>
 80071f4:	6a23      	ldr	r3, [r4, #32]
 80071f6:	b11b      	cbz	r3, 8007200 <__sinit+0x14>
 80071f8:	e8bd 4010 	ldmia.w	sp!, {r4, lr}
 80071fc:	f7ff bff0 	b.w	80071e0 <__sfp_lock_release>
 8007200:	4b04      	ldr	r3, [pc, #16]	@ (8007214 <__sinit+0x28>)
 8007202:	6223      	str	r3, [r4, #32]
 8007204:	4b04      	ldr	r3, [pc, #16]	@ (8007218 <__sinit+0x2c>)
 8007206:	681b      	ldr	r3, [r3, #0]
 8007208:	2b00      	cmp	r3, #0
 800720a:	d1f5      	bne.n	80071f8 <__sinit+0xc>
 800720c:	f7ff ffc4 	bl	8007198 <global_stdio_init.part.0>
 8007210:	e7f2      	b.n	80071f8 <__sinit+0xc>
 8007212:	bf00      	nop
 8007214:	08007159 	.word	0x08007159
 8007218:	20000c14 	.word	0x20000c14

0800721c <_fwalk_sglue>:
 800721c:	e92d 43f8 	stmdb	sp!, {r3, r4, r5, r6, r7, r8, r9, lr}
 8007220:	4607      	mov	r7, r0
 8007222:	4688      	mov	r8, r1
 8007224:	4614      	mov	r4, r2
 8007226:	2600      	movs	r6, #0
 8007228:	e9d4 9501 	ldrd	r9, r5, [r4, #4]
 800722c:	f1b9 0901 	subs.w	r9, r9, #1
 8007230:	d505      	bpl.n	800723e <_fwalk_sglue+0x22>
 8007232:	6824      	ldr	r4, [r4, #0]
 8007234:	2c00      	cmp	r4, #0
 8007236:	d1f7      	bne.n	8007228 <_fwalk_sglue+0xc>
 8007238:	4630      	mov	r0, r6
 800723a:	e8bd 83f8 	ldmia.w	sp!, {r3, r4, r5, r6, r7, r8, r9, pc}
 800723e:	89ab      	ldrh	r3, [r5, #12]
 8007240:	2b01      	cmp	r3, #1
 8007242:	d907      	bls.n	8007254 <_fwalk_sglue+0x38>
 8007244:	f9b5 300e 	ldrsh.w	r3, [r5, #14]
 8007248:	3301      	adds	r3, #1
 800724a:	d003      	beq.n	8007254 <_fwalk_sglue+0x38>
 800724c:	4629      	mov	r1, r5
 800724e:	4638      	mov	r0, r7
 8007250:	47c0      	blx	r8
 8007252:	4306      	orrs	r6, r0
 8007254:	3568      	adds	r5, #104	@ 0x68
 8007256:	e7e9      	b.n	800722c <_fwalk_sglue+0x10>

08007258 <siprintf>:
 8007258:	b40e      	push	{r1, r2, r3}
 800725a:	f06f 4100 	mvn.w	r1, #2147483648	@ 0x80000000
 800725e:	b500      	push	{lr}
 8007260:	b09c      	sub	sp, #112	@ 0x70
 8007262:	ab1d      	add	r3, sp, #116	@ 0x74
 8007264:	9002      	str	r0, [sp, #8]
 8007266:	9006      	str	r0, [sp, #24]
 8007268:	9107      	str	r1, [sp, #28]
 800726a:	9104      	str	r1, [sp, #16]
 800726c:	4808      	ldr	r0, [pc, #32]	@ (8007290 <siprintf+0x38>)
 800726e:	4909      	ldr	r1, [pc, #36]	@ (8007294 <siprintf+0x3c>)
 8007270:	f853 2b04 	ldr.w	r2, [r3], #4
 8007274:	9105      	str	r1, [sp, #20]
 8007276:	6800      	ldr	r0, [r0, #0]
 8007278:	a902      	add	r1, sp, #8
 800727a:	9301      	str	r3, [sp, #4]
 800727c:	f002 fbfe 	bl	8009a7c <_svfiprintf_r>
 8007280:	2200      	movs	r2, #0
 8007282:	9b02      	ldr	r3, [sp, #8]
 8007284:	701a      	strb	r2, [r3, #0]
 8007286:	b01c      	add	sp, #112	@ 0x70
 8007288:	f85d eb04 	ldr.w	lr, [sp], #4
 800728c:	b003      	add	sp, #12
 800728e:	4770      	bx	lr
 8007290:	20000114 	.word	0x20000114
 8007294:	ffff0208 	.word	0xffff0208

08007298 <__sread>:
 8007298:	b510      	push	{r4, lr}
 800729a:	460c      	mov	r4, r1
 800729c:	f9b1 100e 	ldrsh.w	r1, [r1, #14]
 80072a0:	f000 f902 	bl	80074a8 <_read_r>
 80072a4:	2800      	cmp	r0, #0
 80072a6:	bfab      	itete	ge
 80072a8:	6d63      	ldrge	r3, [r4, #84]	@ 0x54
 80072aa:	89a3      	ldrhlt	r3, [r4, #12]
 80072ac:	181b      	addge	r3, r3, r0
 80072ae:	f423 5380 	biclt.w	r3, r3, #4096	@ 0x1000
 80072b2:	bfac      	ite	ge
 80072b4:	6563      	strge	r3, [r4, #84]	@ 0x54
 80072b6:	81a3      	strhlt	r3, [r4, #12]
 80072b8:	bd10      	pop	{r4, pc}

080072ba <__swrite>:
 80072ba:	e92d 41f0 	stmdb	sp!, {r4, r5, r6, r7, r8, lr}
 80072be:	461f      	mov	r7, r3
 80072c0:	898b      	ldrh	r3, [r1, #12]
 80072c2:	4605      	mov	r5, r0
 80072c4:	05db      	lsls	r3, r3, #23
 80072c6:	460c      	mov	r4, r1
 80072c8:	4616      	mov	r6, r2
 80072ca:	d505      	bpl.n	80072d8 <__swrite+0x1e>
 80072cc:	2302      	movs	r3, #2
 80072ce:	2200      	movs	r2, #0
 80072d0:	f9b1 100e 	ldrsh.w	r1, [r1, #14]
 80072d4:	f000 f8d6 	bl	8007484 <_lseek_r>
 80072d8:	89a3      	ldrh	r3, [r4, #12]
 80072da:	4632      	mov	r2, r6
 80072dc:	f423 5380 	bic.w	r3, r3, #4096	@ 0x1000
 80072e0:	81a3      	strh	r3, [r4, #12]
 80072e2:	4628      	mov	r0, r5
 80072e4:	463b      	mov	r3, r7
 80072e6:	f9b4 100e 	ldrsh.w	r1, [r4, #14]
 80072ea:	e8bd 41f0 	ldmia.w	sp!, {r4, r5, r6, r7, r8, lr}
 80072ee:	f000 b8ed 	b.w	80074cc <_write_r>

080072f2 <__sseek>:
 80072f2:	b510      	push	{r4, lr}
 80072f4:	460c      	mov	r4, r1
 80072f6:	f9b1 100e 	ldrsh.w	r1, [r1, #14]
 80072fa:	f000 f8c3 	bl	8007484 <_lseek_r>
 80072fe:	1c43      	adds	r3, r0, #1
 8007300:	89a3      	ldrh	r3, [r4, #12]
 8007302:	bf15      	itete	ne
 8007304:	6560      	strne	r0, [r4, #84]	@ 0x54
 8007306:	f423 5380 	biceq.w	r3, r3, #4096	@ 0x1000
 800730a:	f443 5380 	orrne.w	r3, r3, #4096	@ 0x1000
 800730e:	81a3      	strheq	r3, [r4, #12]
 8007310:	bf18      	it	ne
 8007312:	81a3      	strhne	r3, [r4, #12]
 8007314:	bd10      	pop	{r4, pc}

08007316 <__sclose>:
 8007316:	f9b1 100e 	ldrsh.w	r1, [r1, #14]
 800731a:	f000 b8a3 	b.w	8007464 <_close_r>

0800731e <memset>:
 800731e:	4603      	mov	r3, r0
 8007320:	4402      	add	r2, r0
 8007322:	4293      	cmp	r3, r2
 8007324:	d100      	bne.n	8007328 <memset+0xa>
 8007326:	4770      	bx	lr
 8007328:	f803 1b01 	strb.w	r1, [r3], #1
 800732c:	e7f9      	b.n	8007322 <memset+0x4>

0800732e <strcspn>:
 800732e:	4603      	mov	r3, r0
 8007330:	b570      	push	{r4, r5, r6, lr}
 8007332:	461e      	mov	r6, r3
 8007334:	f813 4b01 	ldrb.w	r4, [r3], #1
 8007338:	b144      	cbz	r4, 800734c <strcspn+0x1e>
 800733a:	1e4a      	subs	r2, r1, #1
 800733c:	e001      	b.n	8007342 <strcspn+0x14>
 800733e:	42a5      	cmp	r5, r4
 8007340:	d004      	beq.n	800734c <strcspn+0x1e>
 8007342:	f812 5f01 	ldrb.w	r5, [r2, #1]!
 8007346:	2d00      	cmp	r5, #0
 8007348:	d1f9      	bne.n	800733e <strcspn+0x10>
 800734a:	e7f2      	b.n	8007332 <strcspn+0x4>
 800734c:	1a30      	subs	r0, r6, r0
 800734e:	bd70      	pop	{r4, r5, r6, pc}

08007350 <strncpy>:
 8007350:	4603      	mov	r3, r0
 8007352:	b510      	push	{r4, lr}
 8007354:	3901      	subs	r1, #1
 8007356:	b132      	cbz	r2, 8007366 <strncpy+0x16>
 8007358:	f811 4f01 	ldrb.w	r4, [r1, #1]!
 800735c:	3a01      	subs	r2, #1
 800735e:	f803 4b01 	strb.w	r4, [r3], #1
 8007362:	2c00      	cmp	r4, #0
 8007364:	d1f7      	bne.n	8007356 <strncpy+0x6>
 8007366:	2100      	movs	r1, #0
 8007368:	441a      	add	r2, r3
 800736a:	4293      	cmp	r3, r2
 800736c:	d100      	bne.n	8007370 <strncpy+0x20>
 800736e:	bd10      	pop	{r4, pc}
 8007370:	f803 1b01 	strb.w	r1, [r3], #1
 8007374:	e7f9      	b.n	800736a <strncpy+0x1a>
	...

08007378 <strtok>:
 8007378:	4b16      	ldr	r3, [pc, #88]	@ (80073d4 <strtok+0x5c>)
 800737a:	e92d 41f0 	stmdb	sp!, {r4, r5, r6, r7, r8, lr}
 800737e:	681f      	ldr	r7, [r3, #0]
 8007380:	4605      	mov	r5, r0
 8007382:	6c7c      	ldr	r4, [r7, #68]	@ 0x44
 8007384:	460e      	mov	r6, r1
 8007386:	b9ec      	cbnz	r4, 80073c4 <strtok+0x4c>
 8007388:	2050      	movs	r0, #80	@ 0x50
 800738a:	f000 ffbd 	bl	8008308 <malloc>
 800738e:	4602      	mov	r2, r0
 8007390:	6478      	str	r0, [r7, #68]	@ 0x44
 8007392:	b920      	cbnz	r0, 800739e <strtok+0x26>
 8007394:	215b      	movs	r1, #91	@ 0x5b
 8007396:	4b10      	ldr	r3, [pc, #64]	@ (80073d8 <strtok+0x60>)
 8007398:	4810      	ldr	r0, [pc, #64]	@ (80073dc <strtok+0x64>)
 800739a:	f000 f8ff 	bl	800759c <__assert_func>
 800739e:	e9c0 4400 	strd	r4, r4, [r0]
 80073a2:	e9c0 4402 	strd	r4, r4, [r0, #8]
 80073a6:	e9c0 4404 	strd	r4, r4, [r0, #16]
 80073aa:	e9c0 440a 	strd	r4, r4, [r0, #40]	@ 0x28
 80073ae:	e9c0 440c 	strd	r4, r4, [r0, #48]	@ 0x30
 80073b2:	e9c0 440e 	strd	r4, r4, [r0, #56]	@ 0x38
 80073b6:	e9c0 4410 	strd	r4, r4, [r0, #64]	@ 0x40
 80073ba:	e9c0 4412 	strd	r4, r4, [r0, #72]	@ 0x48
 80073be:	6184      	str	r4, [r0, #24]
 80073c0:	7704      	strb	r4, [r0, #28]
 80073c2:	6244      	str	r4, [r0, #36]	@ 0x24
 80073c4:	4631      	mov	r1, r6
 80073c6:	4628      	mov	r0, r5
 80073c8:	6c7a      	ldr	r2, [r7, #68]	@ 0x44
 80073ca:	2301      	movs	r3, #1
 80073cc:	e8bd 41f0 	ldmia.w	sp!, {r4, r5, r6, r7, r8, lr}
 80073d0:	f000 b806 	b.w	80073e0 <__strtok_r>
 80073d4:	20000114 	.word	0x20000114
 80073d8:	0800c9e6 	.word	0x0800c9e6
 80073dc:	0800c9fd 	.word	0x0800c9fd

080073e0 <__strtok_r>:
 80073e0:	b5f0      	push	{r4, r5, r6, r7, lr}
 80073e2:	4604      	mov	r4, r0
 80073e4:	b908      	cbnz	r0, 80073ea <__strtok_r+0xa>
 80073e6:	6814      	ldr	r4, [r2, #0]
 80073e8:	b144      	cbz	r4, 80073fc <__strtok_r+0x1c>
 80073ea:	460f      	mov	r7, r1
 80073ec:	4620      	mov	r0, r4
 80073ee:	f814 5b01 	ldrb.w	r5, [r4], #1
 80073f2:	f817 6b01 	ldrb.w	r6, [r7], #1
 80073f6:	b91e      	cbnz	r6, 8007400 <__strtok_r+0x20>
 80073f8:	b965      	cbnz	r5, 8007414 <__strtok_r+0x34>
 80073fa:	6015      	str	r5, [r2, #0]
 80073fc:	2000      	movs	r0, #0
 80073fe:	e005      	b.n	800740c <__strtok_r+0x2c>
 8007400:	42b5      	cmp	r5, r6
 8007402:	d1f6      	bne.n	80073f2 <__strtok_r+0x12>
 8007404:	2b00      	cmp	r3, #0
 8007406:	d1f0      	bne.n	80073ea <__strtok_r+0xa>
 8007408:	6014      	str	r4, [r2, #0]
 800740a:	7003      	strb	r3, [r0, #0]
 800740c:	bdf0      	pop	{r4, r5, r6, r7, pc}
 800740e:	461c      	mov	r4, r3
 8007410:	e00c      	b.n	800742c <__strtok_r+0x4c>
 8007412:	b915      	cbnz	r5, 800741a <__strtok_r+0x3a>
 8007414:	460e      	mov	r6, r1
 8007416:	f814 3b01 	ldrb.w	r3, [r4], #1
 800741a:	f816 5b01 	ldrb.w	r5, [r6], #1
 800741e:	42ab      	cmp	r3, r5
 8007420:	d1f7      	bne.n	8007412 <__strtok_r+0x32>
 8007422:	2b00      	cmp	r3, #0
 8007424:	d0f3      	beq.n	800740e <__strtok_r+0x2e>
 8007426:	2300      	movs	r3, #0
 8007428:	f804 3c01 	strb.w	r3, [r4, #-1]
 800742c:	6014      	str	r4, [r2, #0]
 800742e:	e7ed      	b.n	800740c <__strtok_r+0x2c>

08007430 <strstr>:
 8007430:	780a      	ldrb	r2, [r1, #0]
 8007432:	b570      	push	{r4, r5, r6, lr}
 8007434:	b96a      	cbnz	r2, 8007452 <strstr+0x22>
 8007436:	bd70      	pop	{r4, r5, r6, pc}
 8007438:	429a      	cmp	r2, r3
 800743a:	d109      	bne.n	8007450 <strstr+0x20>
 800743c:	460c      	mov	r4, r1
 800743e:	4605      	mov	r5, r0
 8007440:	f814 3f01 	ldrb.w	r3, [r4, #1]!
 8007444:	2b00      	cmp	r3, #0
 8007446:	d0f6      	beq.n	8007436 <strstr+0x6>
 8007448:	f815 6f01 	ldrb.w	r6, [r5, #1]!
 800744c:	429e      	cmp	r6, r3
 800744e:	d0f7      	beq.n	8007440 <strstr+0x10>
 8007450:	3001      	adds	r0, #1
 8007452:	7803      	ldrb	r3, [r0, #0]
 8007454:	2b00      	cmp	r3, #0
 8007456:	d1ef      	bne.n	8007438 <strstr+0x8>
 8007458:	4618      	mov	r0, r3
 800745a:	e7ec      	b.n	8007436 <strstr+0x6>

0800745c <_localeconv_r>:
 800745c:	4800      	ldr	r0, [pc, #0]	@ (8007460 <_localeconv_r+0x4>)
 800745e:	4770      	bx	lr
 8007460:	20000254 	.word	0x20000254

08007464 <_close_r>:
 8007464:	b538      	push	{r3, r4, r5, lr}
 8007466:	2300      	movs	r3, #0
 8007468:	4d05      	ldr	r5, [pc, #20]	@ (8007480 <_close_r+0x1c>)
 800746a:	4604      	mov	r4, r0
 800746c:	4608      	mov	r0, r1
 800746e:	602b      	str	r3, [r5, #0]
 8007470:	f7fc f89a 	bl	80035a8 <_close>
 8007474:	1c43      	adds	r3, r0, #1
 8007476:	d102      	bne.n	800747e <_close_r+0x1a>
 8007478:	682b      	ldr	r3, [r5, #0]
 800747a:	b103      	cbz	r3, 800747e <_close_r+0x1a>
 800747c:	6023      	str	r3, [r4, #0]
 800747e:	bd38      	pop	{r3, r4, r5, pc}
 8007480:	20000c18 	.word	0x20000c18

08007484 <_lseek_r>:
 8007484:	b538      	push	{r3, r4, r5, lr}
 8007486:	4604      	mov	r4, r0
 8007488:	4608      	mov	r0, r1
 800748a:	4611      	mov	r1, r2
 800748c:	2200      	movs	r2, #0
 800748e:	4d05      	ldr	r5, [pc, #20]	@ (80074a4 <_lseek_r+0x20>)
 8007490:	602a      	str	r2, [r5, #0]
 8007492:	461a      	mov	r2, r3
 8007494:	f7fc f892 	bl	80035bc <_lseek>
 8007498:	1c43      	adds	r3, r0, #1
 800749a:	d102      	bne.n	80074a2 <_lseek_r+0x1e>
 800749c:	682b      	ldr	r3, [r5, #0]
 800749e:	b103      	cbz	r3, 80074a2 <_lseek_r+0x1e>
 80074a0:	6023      	str	r3, [r4, #0]
 80074a2:	bd38      	pop	{r3, r4, r5, pc}
 80074a4:	20000c18 	.word	0x20000c18

080074a8 <_read_r>:
 80074a8:	b538      	push	{r3, r4, r5, lr}
 80074aa:	4604      	mov	r4, r0
 80074ac:	4608      	mov	r0, r1
 80074ae:	4611      	mov	r1, r2
 80074b0:	2200      	movs	r2, #0
 80074b2:	4d05      	ldr	r5, [pc, #20]	@ (80074c8 <_read_r+0x20>)
 80074b4:	602a      	str	r2, [r5, #0]
 80074b6:	461a      	mov	r2, r3
 80074b8:	f7fc f85c 	bl	8003574 <_read>
 80074bc:	1c43      	adds	r3, r0, #1
 80074be:	d102      	bne.n	80074c6 <_read_r+0x1e>
 80074c0:	682b      	ldr	r3, [r5, #0]
 80074c2:	b103      	cbz	r3, 80074c6 <_read_r+0x1e>
 80074c4:	6023      	str	r3, [r4, #0]
 80074c6:	bd38      	pop	{r3, r4, r5, pc}
 80074c8:	20000c18 	.word	0x20000c18

080074cc <_write_r>:
 80074cc:	b538      	push	{r3, r4, r5, lr}
 80074ce:	4604      	mov	r4, r0
 80074d0:	4608      	mov	r0, r1
 80074d2:	4611      	mov	r1, r2
 80074d4:	2200      	movs	r2, #0
 80074d6:	4d05      	ldr	r5, [pc, #20]	@ (80074ec <_write_r+0x20>)
 80074d8:	602a      	str	r2, [r5, #0]
 80074da:	461a      	mov	r2, r3
 80074dc:	f7fc f857 	bl	800358e <_write>
 80074e0:	1c43      	adds	r3, r0, #1
 80074e2:	d102      	bne.n	80074ea <_write_r+0x1e>
 80074e4:	682b      	ldr	r3, [r5, #0]
 80074e6:	b103      	cbz	r3, 80074ea <_write_r+0x1e>
 80074e8:	6023      	str	r3, [r4, #0]
 80074ea:	bd38      	pop	{r3, r4, r5, pc}
 80074ec:	20000c18 	.word	0x20000c18

080074f0 <__errno>:
 80074f0:	4b01      	ldr	r3, [pc, #4]	@ (80074f8 <__errno+0x8>)
 80074f2:	6818      	ldr	r0, [r3, #0]
 80074f4:	4770      	bx	lr
 80074f6:	bf00      	nop
 80074f8:	20000114 	.word	0x20000114

080074fc <__libc_init_array>:
 80074fc:	b570      	push	{r4, r5, r6, lr}
 80074fe:	2600      	movs	r6, #0
 8007500:	4d0c      	ldr	r5, [pc, #48]	@ (8007534 <__libc_init_array+0x38>)
 8007502:	4c0d      	ldr	r4, [pc, #52]	@ (8007538 <__libc_init_array+0x3c>)
 8007504:	1b64      	subs	r4, r4, r5
 8007506:	10a4      	asrs	r4, r4, #2
 8007508:	42a6      	cmp	r6, r4
 800750a:	d109      	bne.n	8007520 <__libc_init_array+0x24>
 800750c:	f003 faf4 	bl	800aaf8 <_init>
 8007510:	2600      	movs	r6, #0
 8007512:	4d0a      	ldr	r5, [pc, #40]	@ (800753c <__libc_init_array+0x40>)
 8007514:	4c0a      	ldr	r4, [pc, #40]	@ (8007540 <__libc_init_array+0x44>)
 8007516:	1b64      	subs	r4, r4, r5
 8007518:	10a4      	asrs	r4, r4, #2
 800751a:	42a6      	cmp	r6, r4
 800751c:	d105      	bne.n	800752a <__libc_init_array+0x2e>
 800751e:	bd70      	pop	{r4, r5, r6, pc}
 8007520:	f855 3b04 	ldr.w	r3, [r5], #4
 8007524:	4798      	blx	r3
 8007526:	3601      	adds	r6, #1
 8007528:	e7ee      	b.n	8007508 <__libc_init_array+0xc>
 800752a:	f855 3b04 	ldr.w	r3, [r5], #4
 800752e:	4798      	blx	r3
 8007530:	3601      	adds	r6, #1
 8007532:	e7f2      	b.n	800751a <__libc_init_array+0x1e>
 8007534:	0800cd3c 	.word	0x0800cd3c
 8007538:	0800cd3c 	.word	0x0800cd3c
 800753c:	0800cd3c 	.word	0x0800cd3c
 8007540:	0800cd40 	.word	0x0800cd40

08007544 <__retarget_lock_init_recursive>:
 8007544:	4770      	bx	lr

08007546 <__retarget_lock_acquire_recursive>:
 8007546:	4770      	bx	lr

08007548 <__retarget_lock_release_recursive>:
 8007548:	4770      	bx	lr

0800754a <strcpy>:
 800754a:	4603      	mov	r3, r0
 800754c:	f811 2b01 	ldrb.w	r2, [r1], #1
 8007550:	f803 2b01 	strb.w	r2, [r3], #1
 8007554:	2a00      	cmp	r2, #0
 8007556:	d1f9      	bne.n	800754c <strcpy+0x2>
 8007558:	4770      	bx	lr

0800755a <memchr>:
 800755a:	4603      	mov	r3, r0
 800755c:	b510      	push	{r4, lr}
 800755e:	b2c9      	uxtb	r1, r1
 8007560:	4402      	add	r2, r0
 8007562:	4293      	cmp	r3, r2
 8007564:	4618      	mov	r0, r3
 8007566:	d101      	bne.n	800756c <memchr+0x12>
 8007568:	2000      	movs	r0, #0
 800756a:	e003      	b.n	8007574 <memchr+0x1a>
 800756c:	7804      	ldrb	r4, [r0, #0]
 800756e:	3301      	adds	r3, #1
 8007570:	428c      	cmp	r4, r1
 8007572:	d1f6      	bne.n	8007562 <memchr+0x8>
 8007574:	bd10      	pop	{r4, pc}

08007576 <memcpy>:
 8007576:	440a      	add	r2, r1
 8007578:	4291      	cmp	r1, r2
 800757a:	f100 33ff 	add.w	r3, r0, #4294967295
 800757e:	d100      	bne.n	8007582 <memcpy+0xc>
 8007580:	4770      	bx	lr
 8007582:	b510      	push	{r4, lr}
 8007584:	f811 4b01 	ldrb.w	r4, [r1], #1
 8007588:	4291      	cmp	r1, r2
 800758a:	f803 4f01 	strb.w	r4, [r3, #1]!
 800758e:	d1f9      	bne.n	8007584 <memcpy+0xe>
 8007590:	bd10      	pop	{r4, pc}
	...

08007594 <nanf>:
 8007594:	4800      	ldr	r0, [pc, #0]	@ (8007598 <nanf+0x4>)
 8007596:	4770      	bx	lr
 8007598:	7fc00000 	.word	0x7fc00000

0800759c <__assert_func>:
 800759c:	b51f      	push	{r0, r1, r2, r3, r4, lr}
 800759e:	4614      	mov	r4, r2
 80075a0:	461a      	mov	r2, r3
 80075a2:	4b09      	ldr	r3, [pc, #36]	@ (80075c8 <__assert_func+0x2c>)
 80075a4:	4605      	mov	r5, r0
 80075a6:	681b      	ldr	r3, [r3, #0]
 80075a8:	68d8      	ldr	r0, [r3, #12]
 80075aa:	b954      	cbnz	r4, 80075c2 <__assert_func+0x26>
 80075ac:	4b07      	ldr	r3, [pc, #28]	@ (80075cc <__assert_func+0x30>)
 80075ae:	461c      	mov	r4, r3
 80075b0:	e9cd 3401 	strd	r3, r4, [sp, #4]
 80075b4:	9100      	str	r1, [sp, #0]
 80075b6:	462b      	mov	r3, r5
 80075b8:	4905      	ldr	r1, [pc, #20]	@ (80075d0 <__assert_func+0x34>)
 80075ba:	f002 fc03 	bl	8009dc4 <fiprintf>
 80075be:	f002 fc55 	bl	8009e6c <abort>
 80075c2:	4b04      	ldr	r3, [pc, #16]	@ (80075d4 <__assert_func+0x38>)
 80075c4:	e7f4      	b.n	80075b0 <__assert_func+0x14>
 80075c6:	bf00      	nop
 80075c8:	20000114 	.word	0x20000114
 80075cc:	0800ca92 	.word	0x0800ca92
 80075d0:	0800ca64 	.word	0x0800ca64
 80075d4:	0800ca57 	.word	0x0800ca57

080075d8 <quorem>:
 80075d8:	e92d 4ff7 	stmdb	sp!, {r0, r1, r2, r4, r5, r6, r7, r8, r9, sl, fp, lr}
 80075dc:	6903      	ldr	r3, [r0, #16]
 80075de:	690c      	ldr	r4, [r1, #16]
 80075e0:	4607      	mov	r7, r0
 80075e2:	42a3      	cmp	r3, r4
 80075e4:	db7e      	blt.n	80076e4 <quorem+0x10c>
 80075e6:	3c01      	subs	r4, #1
 80075e8:	00a3      	lsls	r3, r4, #2
 80075ea:	f100 0514 	add.w	r5, r0, #20
 80075ee:	f101 0814 	add.w	r8, r1, #20
 80075f2:	9300      	str	r3, [sp, #0]
 80075f4:	eb05 0384 	add.w	r3, r5, r4, lsl #2
 80075f8:	9301      	str	r3, [sp, #4]
 80075fa:	f858 3024 	ldr.w	r3, [r8, r4, lsl #2]
 80075fe:	f855 2024 	ldr.w	r2, [r5, r4, lsl #2]
 8007602:	3301      	adds	r3, #1
 8007604:	429a      	cmp	r2, r3
 8007606:	fbb2 f6f3 	udiv	r6, r2, r3
 800760a:	eb08 0984 	add.w	r9, r8, r4, lsl #2
 800760e:	d32e      	bcc.n	800766e <quorem+0x96>
 8007610:	f04f 0a00 	mov.w	sl, #0
 8007614:	46c4      	mov	ip, r8
 8007616:	46ae      	mov	lr, r5
 8007618:	46d3      	mov	fp, sl
 800761a:	f85c 3b04 	ldr.w	r3, [ip], #4
 800761e:	b298      	uxth	r0, r3
 8007620:	fb06 a000 	mla	r0, r6, r0, sl
 8007624:	0c1b      	lsrs	r3, r3, #16
 8007626:	0c02      	lsrs	r2, r0, #16
 8007628:	fb06 2303 	mla	r3, r6, r3, r2
 800762c:	f8de 2000 	ldr.w	r2, [lr]
 8007630:	b280      	uxth	r0, r0
 8007632:	b292      	uxth	r2, r2
 8007634:	1a12      	subs	r2, r2, r0
 8007636:	445a      	add	r2, fp
 8007638:	f8de 0000 	ldr.w	r0, [lr]
 800763c:	ea4f 4a13 	mov.w	sl, r3, lsr #16
 8007640:	b29b      	uxth	r3, r3
 8007642:	ebc3 4322 	rsb	r3, r3, r2, asr #16
 8007646:	eb03 4310 	add.w	r3, r3, r0, lsr #16
 800764a:	b292      	uxth	r2, r2
 800764c:	ea42 4203 	orr.w	r2, r2, r3, lsl #16
 8007650:	45e1      	cmp	r9, ip
 8007652:	ea4f 4b23 	mov.w	fp, r3, asr #16
 8007656:	f84e 2b04 	str.w	r2, [lr], #4
 800765a:	d2de      	bcs.n	800761a <quorem+0x42>
 800765c:	9b00      	ldr	r3, [sp, #0]
 800765e:	58eb      	ldr	r3, [r5, r3]
 8007660:	b92b      	cbnz	r3, 800766e <quorem+0x96>
 8007662:	9b01      	ldr	r3, [sp, #4]
 8007664:	3b04      	subs	r3, #4
 8007666:	429d      	cmp	r5, r3
 8007668:	461a      	mov	r2, r3
 800766a:	d32f      	bcc.n	80076cc <quorem+0xf4>
 800766c:	613c      	str	r4, [r7, #16]
 800766e:	4638      	mov	r0, r7
 8007670:	f001 f9c2 	bl	80089f8 <__mcmp>
 8007674:	2800      	cmp	r0, #0
 8007676:	db25      	blt.n	80076c4 <quorem+0xec>
 8007678:	4629      	mov	r1, r5
 800767a:	2000      	movs	r0, #0
 800767c:	f858 2b04 	ldr.w	r2, [r8], #4
 8007680:	f8d1 c000 	ldr.w	ip, [r1]
 8007684:	fa1f fe82 	uxth.w	lr, r2
 8007688:	fa1f f38c 	uxth.w	r3, ip
 800768c:	eba3 030e 	sub.w	r3, r3, lr
 8007690:	4403      	add	r3, r0
 8007692:	0c12      	lsrs	r2, r2, #16
 8007694:	ebc2 4223 	rsb	r2, r2, r3, asr #16
 8007698:	eb02 421c 	add.w	r2, r2, ip, lsr #16
 800769c:	b29b      	uxth	r3, r3
 800769e:	ea43 4302 	orr.w	r3, r3, r2, lsl #16
 80076a2:	45c1      	cmp	r9, r8
 80076a4:	ea4f 4022 	mov.w	r0, r2, asr #16
 80076a8:	f841 3b04 	str.w	r3, [r1], #4
 80076ac:	d2e6      	bcs.n	800767c <quorem+0xa4>
 80076ae:	f855 2024 	ldr.w	r2, [r5, r4, lsl #2]
 80076b2:	eb05 0384 	add.w	r3, r5, r4, lsl #2
 80076b6:	b922      	cbnz	r2, 80076c2 <quorem+0xea>
 80076b8:	3b04      	subs	r3, #4
 80076ba:	429d      	cmp	r5, r3
 80076bc:	461a      	mov	r2, r3
 80076be:	d30b      	bcc.n	80076d8 <quorem+0x100>
 80076c0:	613c      	str	r4, [r7, #16]
 80076c2:	3601      	adds	r6, #1
 80076c4:	4630      	mov	r0, r6
 80076c6:	b003      	add	sp, #12
 80076c8:	e8bd 8ff0 	ldmia.w	sp!, {r4, r5, r6, r7, r8, r9, sl, fp, pc}
 80076cc:	6812      	ldr	r2, [r2, #0]
 80076ce:	3b04      	subs	r3, #4
 80076d0:	2a00      	cmp	r2, #0
 80076d2:	d1cb      	bne.n	800766c <quorem+0x94>
 80076d4:	3c01      	subs	r4, #1
 80076d6:	e7c6      	b.n	8007666 <quorem+0x8e>
 80076d8:	6812      	ldr	r2, [r2, #0]
 80076da:	3b04      	subs	r3, #4
 80076dc:	2a00      	cmp	r2, #0
 80076de:	d1ef      	bne.n	80076c0 <quorem+0xe8>
 80076e0:	3c01      	subs	r4, #1
 80076e2:	e7ea      	b.n	80076ba <quorem+0xe2>
 80076e4:	2000      	movs	r0, #0
 80076e6:	e7ee      	b.n	80076c6 <quorem+0xee>

080076e8 <_dtoa_r>:
 80076e8:	e92d 4ff0 	stmdb	sp!, {r4, r5, r6, r7, r8, r9, sl, fp, lr}
 80076ec:	4614      	mov	r4, r2
 80076ee:	461d      	mov	r5, r3
 80076f0:	69c7      	ldr	r7, [r0, #28]
 80076f2:	b097      	sub	sp, #92	@ 0x5c
 80076f4:	4683      	mov	fp, r0
 80076f6:	e9cd 4502 	strd	r4, r5, [sp, #8]
 80076fa:	9e23      	ldr	r6, [sp, #140]	@ 0x8c
 80076fc:	b97f      	cbnz	r7, 800771e <_dtoa_r+0x36>
 80076fe:	2010      	movs	r0, #16
 8007700:	f000 fe02 	bl	8008308 <malloc>
 8007704:	4602      	mov	r2, r0
 8007706:	f8cb 001c 	str.w	r0, [fp, #28]
 800770a:	b920      	cbnz	r0, 8007716 <_dtoa_r+0x2e>
 800770c:	21ef      	movs	r1, #239	@ 0xef
 800770e:	4ba8      	ldr	r3, [pc, #672]	@ (80079b0 <_dtoa_r+0x2c8>)
 8007710:	48a8      	ldr	r0, [pc, #672]	@ (80079b4 <_dtoa_r+0x2cc>)
 8007712:	f7ff ff43 	bl	800759c <__assert_func>
 8007716:	e9c0 7701 	strd	r7, r7, [r0, #4]
 800771a:	6007      	str	r7, [r0, #0]
 800771c:	60c7      	str	r7, [r0, #12]
 800771e:	f8db 301c 	ldr.w	r3, [fp, #28]
 8007722:	6819      	ldr	r1, [r3, #0]
 8007724:	b159      	cbz	r1, 800773e <_dtoa_r+0x56>
 8007726:	685a      	ldr	r2, [r3, #4]
 8007728:	2301      	movs	r3, #1
 800772a:	4093      	lsls	r3, r2
 800772c:	604a      	str	r2, [r1, #4]
 800772e:	608b      	str	r3, [r1, #8]
 8007730:	4658      	mov	r0, fp
 8007732:	f000 fedf 	bl	80084f4 <_Bfree>
 8007736:	2200      	movs	r2, #0
 8007738:	f8db 301c 	ldr.w	r3, [fp, #28]
 800773c:	601a      	str	r2, [r3, #0]
 800773e:	1e2b      	subs	r3, r5, #0
 8007740:	bfaf      	iteee	ge
 8007742:	2300      	movge	r3, #0
 8007744:	2201      	movlt	r2, #1
 8007746:	f023 4300 	biclt.w	r3, r3, #2147483648	@ 0x80000000
 800774a:	9303      	strlt	r3, [sp, #12]
 800774c:	bfa8      	it	ge
 800774e:	6033      	strge	r3, [r6, #0]
 8007750:	f8dd 800c 	ldr.w	r8, [sp, #12]
 8007754:	4b98      	ldr	r3, [pc, #608]	@ (80079b8 <_dtoa_r+0x2d0>)
 8007756:	bfb8      	it	lt
 8007758:	6032      	strlt	r2, [r6, #0]
 800775a:	ea33 0308 	bics.w	r3, r3, r8
 800775e:	d112      	bne.n	8007786 <_dtoa_r+0x9e>
 8007760:	f242 730f 	movw	r3, #9999	@ 0x270f
 8007764:	9a22      	ldr	r2, [sp, #136]	@ 0x88
 8007766:	6013      	str	r3, [r2, #0]
 8007768:	f3c8 0313 	ubfx	r3, r8, #0, #20
 800776c:	4323      	orrs	r3, r4
 800776e:	f000 8550 	beq.w	8008212 <_dtoa_r+0xb2a>
 8007772:	9b24      	ldr	r3, [sp, #144]	@ 0x90
 8007774:	f8df a244 	ldr.w	sl, [pc, #580]	@ 80079bc <_dtoa_r+0x2d4>
 8007778:	2b00      	cmp	r3, #0
 800777a:	f000 8552 	beq.w	8008222 <_dtoa_r+0xb3a>
 800777e:	f10a 0303 	add.w	r3, sl, #3
 8007782:	f000 bd4c 	b.w	800821e <_dtoa_r+0xb36>
 8007786:	e9dd 2302 	ldrd	r2, r3, [sp, #8]
 800778a:	e9cd 230c 	strd	r2, r3, [sp, #48]	@ 0x30
 800778e:	e9dd 010c 	ldrd	r0, r1, [sp, #48]	@ 0x30
 8007792:	2200      	movs	r2, #0
 8007794:	2300      	movs	r3, #0
 8007796:	f7f9 f9bb 	bl	8000b10 <__aeabi_dcmpeq>
 800779a:	4607      	mov	r7, r0
 800779c:	b158      	cbz	r0, 80077b6 <_dtoa_r+0xce>
 800779e:	2301      	movs	r3, #1
 80077a0:	9a22      	ldr	r2, [sp, #136]	@ 0x88
 80077a2:	6013      	str	r3, [r2, #0]
 80077a4:	9b24      	ldr	r3, [sp, #144]	@ 0x90
 80077a6:	b113      	cbz	r3, 80077ae <_dtoa_r+0xc6>
 80077a8:	4b85      	ldr	r3, [pc, #532]	@ (80079c0 <_dtoa_r+0x2d8>)
 80077aa:	9a24      	ldr	r2, [sp, #144]	@ 0x90
 80077ac:	6013      	str	r3, [r2, #0]
 80077ae:	f8df a214 	ldr.w	sl, [pc, #532]	@ 80079c4 <_dtoa_r+0x2dc>
 80077b2:	f000 bd36 	b.w	8008222 <_dtoa_r+0xb3a>
 80077b6:	ab14      	add	r3, sp, #80	@ 0x50
 80077b8:	9301      	str	r3, [sp, #4]
 80077ba:	ab15      	add	r3, sp, #84	@ 0x54
 80077bc:	9300      	str	r3, [sp, #0]
 80077be:	4658      	mov	r0, fp
 80077c0:	e9dd 230c 	ldrd	r2, r3, [sp, #48]	@ 0x30
 80077c4:	f001 fa30 	bl	8008c28 <__d2b>
 80077c8:	f3c8 560a 	ubfx	r6, r8, #20, #11
 80077cc:	4681      	mov	r9, r0
 80077ce:	2e00      	cmp	r6, #0
 80077d0:	d077      	beq.n	80078c2 <_dtoa_r+0x1da>
 80077d2:	e9dd 010c 	ldrd	r0, r1, [sp, #48]	@ 0x30
 80077d6:	9b0d      	ldr	r3, [sp, #52]	@ 0x34
 80077d8:	f2a6 36ff 	subw	r6, r6, #1023	@ 0x3ff
 80077dc:	f3c3 0313 	ubfx	r3, r3, #0, #20
 80077e0:	f043 537f 	orr.w	r3, r3, #1069547520	@ 0x3fc00000
 80077e4:	f443 1340 	orr.w	r3, r3, #3145728	@ 0x300000
 80077e8:	9712      	str	r7, [sp, #72]	@ 0x48
 80077ea:	4619      	mov	r1, r3
 80077ec:	2200      	movs	r2, #0
 80077ee:	4b76      	ldr	r3, [pc, #472]	@ (80079c8 <_dtoa_r+0x2e0>)
 80077f0:	f7f8 fd6e 	bl	80002d0 <__aeabi_dsub>
 80077f4:	a368      	add	r3, pc, #416	@ (adr r3, 8007998 <_dtoa_r+0x2b0>)
 80077f6:	e9d3 2300 	ldrd	r2, r3, [r3]
 80077fa:	f7f8 ff21 	bl	8000640 <__aeabi_dmul>
 80077fe:	a368      	add	r3, pc, #416	@ (adr r3, 80079a0 <_dtoa_r+0x2b8>)
 8007800:	e9d3 2300 	ldrd	r2, r3, [r3]
 8007804:	f7f8 fd66 	bl	80002d4 <__adddf3>
 8007808:	4604      	mov	r4, r0
 800780a:	4630      	mov	r0, r6
 800780c:	460d      	mov	r5, r1
 800780e:	f7f8 fead 	bl	800056c <__aeabi_i2d>
 8007812:	a365      	add	r3, pc, #404	@ (adr r3, 80079a8 <_dtoa_r+0x2c0>)
 8007814:	e9d3 2300 	ldrd	r2, r3, [r3]
 8007818:	f7f8 ff12 	bl	8000640 <__aeabi_dmul>
 800781c:	4602      	mov	r2, r0
 800781e:	460b      	mov	r3, r1
 8007820:	4620      	mov	r0, r4
 8007822:	4629      	mov	r1, r5
 8007824:	f7f8 fd56 	bl	80002d4 <__adddf3>
 8007828:	4604      	mov	r4, r0
 800782a:	460d      	mov	r5, r1
 800782c:	f7f9 f9b8 	bl	8000ba0 <__aeabi_d2iz>
 8007830:	2200      	movs	r2, #0
 8007832:	4607      	mov	r7, r0
 8007834:	2300      	movs	r3, #0
 8007836:	4620      	mov	r0, r4
 8007838:	4629      	mov	r1, r5
 800783a:	f7f9 f973 	bl	8000b24 <__aeabi_dcmplt>
 800783e:	b140      	cbz	r0, 8007852 <_dtoa_r+0x16a>
 8007840:	4638      	mov	r0, r7
 8007842:	f7f8 fe93 	bl	800056c <__aeabi_i2d>
 8007846:	4622      	mov	r2, r4
 8007848:	462b      	mov	r3, r5
 800784a:	f7f9 f961 	bl	8000b10 <__aeabi_dcmpeq>
 800784e:	b900      	cbnz	r0, 8007852 <_dtoa_r+0x16a>
 8007850:	3f01      	subs	r7, #1
 8007852:	2f16      	cmp	r7, #22
 8007854:	d853      	bhi.n	80078fe <_dtoa_r+0x216>
 8007856:	e9dd 010c 	ldrd	r0, r1, [sp, #48]	@ 0x30
 800785a:	4b5c      	ldr	r3, [pc, #368]	@ (80079cc <_dtoa_r+0x2e4>)
 800785c:	eb03 03c7 	add.w	r3, r3, r7, lsl #3
 8007860:	e9d3 2300 	ldrd	r2, r3, [r3]
 8007864:	f7f9 f95e 	bl	8000b24 <__aeabi_dcmplt>
 8007868:	2800      	cmp	r0, #0
 800786a:	d04a      	beq.n	8007902 <_dtoa_r+0x21a>
 800786c:	2300      	movs	r3, #0
 800786e:	3f01      	subs	r7, #1
 8007870:	930f      	str	r3, [sp, #60]	@ 0x3c
 8007872:	9b14      	ldr	r3, [sp, #80]	@ 0x50
 8007874:	1b9b      	subs	r3, r3, r6
 8007876:	1e5a      	subs	r2, r3, #1
 8007878:	bf46      	itte	mi
 800787a:	f1c3 0801 	rsbmi	r8, r3, #1
 800787e:	2300      	movmi	r3, #0
 8007880:	f04f 0800 	movpl.w	r8, #0
 8007884:	9209      	str	r2, [sp, #36]	@ 0x24
 8007886:	bf48      	it	mi
 8007888:	9309      	strmi	r3, [sp, #36]	@ 0x24
 800788a:	2f00      	cmp	r7, #0
 800788c:	db3b      	blt.n	8007906 <_dtoa_r+0x21e>
 800788e:	9b09      	ldr	r3, [sp, #36]	@ 0x24
 8007890:	970e      	str	r7, [sp, #56]	@ 0x38
 8007892:	443b      	add	r3, r7
 8007894:	9309      	str	r3, [sp, #36]	@ 0x24
 8007896:	2300      	movs	r3, #0
 8007898:	930a      	str	r3, [sp, #40]	@ 0x28
 800789a:	9b20      	ldr	r3, [sp, #128]	@ 0x80
 800789c:	2b09      	cmp	r3, #9
 800789e:	d866      	bhi.n	800796e <_dtoa_r+0x286>
 80078a0:	2b05      	cmp	r3, #5
 80078a2:	bfc4      	itt	gt
 80078a4:	3b04      	subgt	r3, #4
 80078a6:	9320      	strgt	r3, [sp, #128]	@ 0x80
 80078a8:	9b20      	ldr	r3, [sp, #128]	@ 0x80
 80078aa:	bfc8      	it	gt
 80078ac:	2400      	movgt	r4, #0
 80078ae:	f1a3 0302 	sub.w	r3, r3, #2
 80078b2:	bfd8      	it	le
 80078b4:	2401      	movle	r4, #1
 80078b6:	2b03      	cmp	r3, #3
 80078b8:	d864      	bhi.n	8007984 <_dtoa_r+0x29c>
 80078ba:	e8df f003 	tbb	[pc, r3]
 80078be:	382b      	.short	0x382b
 80078c0:	5636      	.short	0x5636
 80078c2:	e9dd 6314 	ldrd	r6, r3, [sp, #80]	@ 0x50
 80078c6:	441e      	add	r6, r3
 80078c8:	f206 4332 	addw	r3, r6, #1074	@ 0x432
 80078cc:	2b20      	cmp	r3, #32
 80078ce:	bfc1      	itttt	gt
 80078d0:	f1c3 0340 	rsbgt	r3, r3, #64	@ 0x40
 80078d4:	fa08 f803 	lslgt.w	r8, r8, r3
 80078d8:	f206 4312 	addwgt	r3, r6, #1042	@ 0x412
 80078dc:	fa24 f303 	lsrgt.w	r3, r4, r3
 80078e0:	bfd6      	itet	le
 80078e2:	f1c3 0320 	rsble	r3, r3, #32
 80078e6:	ea48 0003 	orrgt.w	r0, r8, r3
 80078ea:	fa04 f003 	lslle.w	r0, r4, r3
 80078ee:	f7f8 fe2d 	bl	800054c <__aeabi_ui2d>
 80078f2:	2201      	movs	r2, #1
 80078f4:	f1a1 73f8 	sub.w	r3, r1, #32505856	@ 0x1f00000
 80078f8:	3e01      	subs	r6, #1
 80078fa:	9212      	str	r2, [sp, #72]	@ 0x48
 80078fc:	e775      	b.n	80077ea <_dtoa_r+0x102>
 80078fe:	2301      	movs	r3, #1
 8007900:	e7b6      	b.n	8007870 <_dtoa_r+0x188>
 8007902:	900f      	str	r0, [sp, #60]	@ 0x3c
 8007904:	e7b5      	b.n	8007872 <_dtoa_r+0x18a>
 8007906:	427b      	negs	r3, r7
 8007908:	930a      	str	r3, [sp, #40]	@ 0x28
 800790a:	2300      	movs	r3, #0
 800790c:	eba8 0807 	sub.w	r8, r8, r7
 8007910:	930e      	str	r3, [sp, #56]	@ 0x38
 8007912:	e7c2      	b.n	800789a <_dtoa_r+0x1b2>
 8007914:	2300      	movs	r3, #0
 8007916:	930b      	str	r3, [sp, #44]	@ 0x2c
 8007918:	9b21      	ldr	r3, [sp, #132]	@ 0x84
 800791a:	2b00      	cmp	r3, #0
 800791c:	dc35      	bgt.n	800798a <_dtoa_r+0x2a2>
 800791e:	2301      	movs	r3, #1
 8007920:	461a      	mov	r2, r3
 8007922:	e9cd 3307 	strd	r3, r3, [sp, #28]
 8007926:	9221      	str	r2, [sp, #132]	@ 0x84
 8007928:	e00b      	b.n	8007942 <_dtoa_r+0x25a>
 800792a:	2301      	movs	r3, #1
 800792c:	e7f3      	b.n	8007916 <_dtoa_r+0x22e>
 800792e:	2300      	movs	r3, #0
 8007930:	930b      	str	r3, [sp, #44]	@ 0x2c
 8007932:	9b21      	ldr	r3, [sp, #132]	@ 0x84
 8007934:	18fb      	adds	r3, r7, r3
 8007936:	9308      	str	r3, [sp, #32]
 8007938:	3301      	adds	r3, #1
 800793a:	2b01      	cmp	r3, #1
 800793c:	9307      	str	r3, [sp, #28]
 800793e:	bfb8      	it	lt
 8007940:	2301      	movlt	r3, #1
 8007942:	2100      	movs	r1, #0
 8007944:	2204      	movs	r2, #4
 8007946:	f8db 001c 	ldr.w	r0, [fp, #28]
 800794a:	f102 0514 	add.w	r5, r2, #20
 800794e:	429d      	cmp	r5, r3
 8007950:	d91f      	bls.n	8007992 <_dtoa_r+0x2aa>
 8007952:	6041      	str	r1, [r0, #4]
 8007954:	4658      	mov	r0, fp
 8007956:	f000 fd8d 	bl	8008474 <_Balloc>
 800795a:	4682      	mov	sl, r0
 800795c:	2800      	cmp	r0, #0
 800795e:	d139      	bne.n	80079d4 <_dtoa_r+0x2ec>
 8007960:	4602      	mov	r2, r0
 8007962:	f240 11af 	movw	r1, #431	@ 0x1af
 8007966:	4b1a      	ldr	r3, [pc, #104]	@ (80079d0 <_dtoa_r+0x2e8>)
 8007968:	e6d2      	b.n	8007710 <_dtoa_r+0x28>
 800796a:	2301      	movs	r3, #1
 800796c:	e7e0      	b.n	8007930 <_dtoa_r+0x248>
 800796e:	2401      	movs	r4, #1
 8007970:	2300      	movs	r3, #0
 8007972:	940b      	str	r4, [sp, #44]	@ 0x2c
 8007974:	9320      	str	r3, [sp, #128]	@ 0x80
 8007976:	f04f 33ff 	mov.w	r3, #4294967295
 800797a:	2200      	movs	r2, #0
 800797c:	e9cd 3307 	strd	r3, r3, [sp, #28]
 8007980:	2312      	movs	r3, #18
 8007982:	e7d0      	b.n	8007926 <_dtoa_r+0x23e>
 8007984:	2301      	movs	r3, #1
 8007986:	930b      	str	r3, [sp, #44]	@ 0x2c
 8007988:	e7f5      	b.n	8007976 <_dtoa_r+0x28e>
 800798a:	9b21      	ldr	r3, [sp, #132]	@ 0x84
 800798c:	e9cd 3307 	strd	r3, r3, [sp, #28]
 8007990:	e7d7      	b.n	8007942 <_dtoa_r+0x25a>
 8007992:	3101      	adds	r1, #1
 8007994:	0052      	lsls	r2, r2, #1
 8007996:	e7d8      	b.n	800794a <_dtoa_r+0x262>
 8007998:	636f4361 	.word	0x636f4361
 800799c:	3fd287a7 	.word	0x3fd287a7
 80079a0:	8b60c8b3 	.word	0x8b60c8b3
 80079a4:	3fc68a28 	.word	0x3fc68a28
 80079a8:	509f79fb 	.word	0x509f79fb
 80079ac:	3fd34413 	.word	0x3fd34413
 80079b0:	0800c9e6 	.word	0x0800c9e6
 80079b4:	0800caa0 	.word	0x0800caa0
 80079b8:	7ff00000 	.word	0x7ff00000
 80079bc:	0800ca9c 	.word	0x0800ca9c
 80079c0:	0800c9be 	.word	0x0800c9be
 80079c4:	0800c9bd 	.word	0x0800c9bd
 80079c8:	3ff80000 	.word	0x3ff80000
 80079cc:	0800cb98 	.word	0x0800cb98
 80079d0:	0800caf8 	.word	0x0800caf8
 80079d4:	f8db 301c 	ldr.w	r3, [fp, #28]
 80079d8:	6018      	str	r0, [r3, #0]
 80079da:	9b07      	ldr	r3, [sp, #28]
 80079dc:	2b0e      	cmp	r3, #14
 80079de:	f200 80a4 	bhi.w	8007b2a <_dtoa_r+0x442>
 80079e2:	2c00      	cmp	r4, #0
 80079e4:	f000 80a1 	beq.w	8007b2a <_dtoa_r+0x442>
 80079e8:	2f00      	cmp	r7, #0
 80079ea:	dd33      	ble.n	8007a54 <_dtoa_r+0x36c>
 80079ec:	4b86      	ldr	r3, [pc, #536]	@ (8007c08 <_dtoa_r+0x520>)
 80079ee:	f007 020f 	and.w	r2, r7, #15
 80079f2:	eb03 03c2 	add.w	r3, r3, r2, lsl #3
 80079f6:	05f8      	lsls	r0, r7, #23
 80079f8:	e9d3 3400 	ldrd	r3, r4, [r3]
 80079fc:	e9cd 3404 	strd	r3, r4, [sp, #16]
 8007a00:	ea4f 1427 	mov.w	r4, r7, asr #4
 8007a04:	d516      	bpl.n	8007a34 <_dtoa_r+0x34c>
 8007a06:	e9dd 010c 	ldrd	r0, r1, [sp, #48]	@ 0x30
 8007a0a:	4b80      	ldr	r3, [pc, #512]	@ (8007c0c <_dtoa_r+0x524>)
 8007a0c:	2603      	movs	r6, #3
 8007a0e:	e9d3 2308 	ldrd	r2, r3, [r3, #32]
 8007a12:	f7f8 ff3f 	bl	8000894 <__aeabi_ddiv>
 8007a16:	e9cd 0102 	strd	r0, r1, [sp, #8]
 8007a1a:	f004 040f 	and.w	r4, r4, #15
 8007a1e:	4d7b      	ldr	r5, [pc, #492]	@ (8007c0c <_dtoa_r+0x524>)
 8007a20:	b954      	cbnz	r4, 8007a38 <_dtoa_r+0x350>
 8007a22:	e9dd 2304 	ldrd	r2, r3, [sp, #16]
 8007a26:	e9dd 0102 	ldrd	r0, r1, [sp, #8]
 8007a2a:	f7f8 ff33 	bl	8000894 <__aeabi_ddiv>
 8007a2e:	e9cd 0102 	strd	r0, r1, [sp, #8]
 8007a32:	e028      	b.n	8007a86 <_dtoa_r+0x39e>
 8007a34:	2602      	movs	r6, #2
 8007a36:	e7f2      	b.n	8007a1e <_dtoa_r+0x336>
 8007a38:	07e1      	lsls	r1, r4, #31
 8007a3a:	d508      	bpl.n	8007a4e <_dtoa_r+0x366>
 8007a3c:	e9dd 0104 	ldrd	r0, r1, [sp, #16]
 8007a40:	e9d5 2300 	ldrd	r2, r3, [r5]
 8007a44:	f7f8 fdfc 	bl	8000640 <__aeabi_dmul>
 8007a48:	e9cd 0104 	strd	r0, r1, [sp, #16]
 8007a4c:	3601      	adds	r6, #1
 8007a4e:	1064      	asrs	r4, r4, #1
 8007a50:	3508      	adds	r5, #8
 8007a52:	e7e5      	b.n	8007a20 <_dtoa_r+0x338>
 8007a54:	f000 80d2 	beq.w	8007bfc <_dtoa_r+0x514>
 8007a58:	e9dd 010c 	ldrd	r0, r1, [sp, #48]	@ 0x30
 8007a5c:	427c      	negs	r4, r7
 8007a5e:	4b6a      	ldr	r3, [pc, #424]	@ (8007c08 <_dtoa_r+0x520>)
 8007a60:	f004 020f 	and.w	r2, r4, #15
 8007a64:	eb03 03c2 	add.w	r3, r3, r2, lsl #3
 8007a68:	e9d3 2300 	ldrd	r2, r3, [r3]
 8007a6c:	f7f8 fde8 	bl	8000640 <__aeabi_dmul>
 8007a70:	2602      	movs	r6, #2
 8007a72:	2300      	movs	r3, #0
 8007a74:	e9cd 0102 	strd	r0, r1, [sp, #8]
 8007a78:	4d64      	ldr	r5, [pc, #400]	@ (8007c0c <_dtoa_r+0x524>)
 8007a7a:	1124      	asrs	r4, r4, #4
 8007a7c:	2c00      	cmp	r4, #0
 8007a7e:	f040 80b2 	bne.w	8007be6 <_dtoa_r+0x4fe>
 8007a82:	2b00      	cmp	r3, #0
 8007a84:	d1d3      	bne.n	8007a2e <_dtoa_r+0x346>
 8007a86:	e9dd 4502 	ldrd	r4, r5, [sp, #8]
 8007a8a:	9b0f      	ldr	r3, [sp, #60]	@ 0x3c
 8007a8c:	2b00      	cmp	r3, #0
 8007a8e:	f000 80b7 	beq.w	8007c00 <_dtoa_r+0x518>
 8007a92:	2200      	movs	r2, #0
 8007a94:	4620      	mov	r0, r4
 8007a96:	4629      	mov	r1, r5
 8007a98:	4b5d      	ldr	r3, [pc, #372]	@ (8007c10 <_dtoa_r+0x528>)
 8007a9a:	f7f9 f843 	bl	8000b24 <__aeabi_dcmplt>
 8007a9e:	2800      	cmp	r0, #0
 8007aa0:	f000 80ae 	beq.w	8007c00 <_dtoa_r+0x518>
 8007aa4:	9b07      	ldr	r3, [sp, #28]
 8007aa6:	2b00      	cmp	r3, #0
 8007aa8:	f000 80aa 	beq.w	8007c00 <_dtoa_r+0x518>
 8007aac:	9b08      	ldr	r3, [sp, #32]
 8007aae:	2b00      	cmp	r3, #0
 8007ab0:	dd37      	ble.n	8007b22 <_dtoa_r+0x43a>
 8007ab2:	1e7b      	subs	r3, r7, #1
 8007ab4:	4620      	mov	r0, r4
 8007ab6:	9304      	str	r3, [sp, #16]
 8007ab8:	2200      	movs	r2, #0
 8007aba:	4629      	mov	r1, r5
 8007abc:	4b55      	ldr	r3, [pc, #340]	@ (8007c14 <_dtoa_r+0x52c>)
 8007abe:	f7f8 fdbf 	bl	8000640 <__aeabi_dmul>
 8007ac2:	e9cd 0102 	strd	r0, r1, [sp, #8]
 8007ac6:	9c08      	ldr	r4, [sp, #32]
 8007ac8:	3601      	adds	r6, #1
 8007aca:	4630      	mov	r0, r6
 8007acc:	f7f8 fd4e 	bl	800056c <__aeabi_i2d>
 8007ad0:	e9dd 2302 	ldrd	r2, r3, [sp, #8]
 8007ad4:	f7f8 fdb4 	bl	8000640 <__aeabi_dmul>
 8007ad8:	2200      	movs	r2, #0
 8007ada:	4b4f      	ldr	r3, [pc, #316]	@ (8007c18 <_dtoa_r+0x530>)
 8007adc:	f7f8 fbfa 	bl	80002d4 <__adddf3>
 8007ae0:	4605      	mov	r5, r0
 8007ae2:	f1a1 7650 	sub.w	r6, r1, #54525952	@ 0x3400000
 8007ae6:	2c00      	cmp	r4, #0
 8007ae8:	f040 809a 	bne.w	8007c20 <_dtoa_r+0x538>
 8007aec:	e9dd 0102 	ldrd	r0, r1, [sp, #8]
 8007af0:	2200      	movs	r2, #0
 8007af2:	4b4a      	ldr	r3, [pc, #296]	@ (8007c1c <_dtoa_r+0x534>)
 8007af4:	f7f8 fbec 	bl	80002d0 <__aeabi_dsub>
 8007af8:	4602      	mov	r2, r0
 8007afa:	460b      	mov	r3, r1
 8007afc:	e9cd 2302 	strd	r2, r3, [sp, #8]
 8007b00:	462a      	mov	r2, r5
 8007b02:	4633      	mov	r3, r6
 8007b04:	f7f9 f82c 	bl	8000b60 <__aeabi_dcmpgt>
 8007b08:	2800      	cmp	r0, #0
 8007b0a:	f040 828e 	bne.w	800802a <_dtoa_r+0x942>
 8007b0e:	e9dd 0102 	ldrd	r0, r1, [sp, #8]
 8007b12:	462a      	mov	r2, r5
 8007b14:	f106 4300 	add.w	r3, r6, #2147483648	@ 0x80000000
 8007b18:	f7f9 f804 	bl	8000b24 <__aeabi_dcmplt>
 8007b1c:	2800      	cmp	r0, #0
 8007b1e:	f040 8127 	bne.w	8007d70 <_dtoa_r+0x688>
 8007b22:	e9dd 340c 	ldrd	r3, r4, [sp, #48]	@ 0x30
 8007b26:	e9cd 3402 	strd	r3, r4, [sp, #8]
 8007b2a:	9b15      	ldr	r3, [sp, #84]	@ 0x54
 8007b2c:	2b00      	cmp	r3, #0
 8007b2e:	f2c0 8163 	blt.w	8007df8 <_dtoa_r+0x710>
 8007b32:	2f0e      	cmp	r7, #14
 8007b34:	f300 8160 	bgt.w	8007df8 <_dtoa_r+0x710>
 8007b38:	4b33      	ldr	r3, [pc, #204]	@ (8007c08 <_dtoa_r+0x520>)
 8007b3a:	eb03 03c7 	add.w	r3, r3, r7, lsl #3
 8007b3e:	e9d3 3400 	ldrd	r3, r4, [r3]
 8007b42:	e9cd 3404 	strd	r3, r4, [sp, #16]
 8007b46:	9b21      	ldr	r3, [sp, #132]	@ 0x84
 8007b48:	2b00      	cmp	r3, #0
 8007b4a:	da03      	bge.n	8007b54 <_dtoa_r+0x46c>
 8007b4c:	9b07      	ldr	r3, [sp, #28]
 8007b4e:	2b00      	cmp	r3, #0
 8007b50:	f340 8100 	ble.w	8007d54 <_dtoa_r+0x66c>
 8007b54:	e9dd 4502 	ldrd	r4, r5, [sp, #8]
 8007b58:	4656      	mov	r6, sl
 8007b5a:	e9dd 2304 	ldrd	r2, r3, [sp, #16]
 8007b5e:	4620      	mov	r0, r4
 8007b60:	4629      	mov	r1, r5
 8007b62:	f7f8 fe97 	bl	8000894 <__aeabi_ddiv>
 8007b66:	f7f9 f81b 	bl	8000ba0 <__aeabi_d2iz>
 8007b6a:	4680      	mov	r8, r0
 8007b6c:	f7f8 fcfe 	bl	800056c <__aeabi_i2d>
 8007b70:	e9dd 2304 	ldrd	r2, r3, [sp, #16]
 8007b74:	f7f8 fd64 	bl	8000640 <__aeabi_dmul>
 8007b78:	4602      	mov	r2, r0
 8007b7a:	460b      	mov	r3, r1
 8007b7c:	4620      	mov	r0, r4
 8007b7e:	4629      	mov	r1, r5
 8007b80:	f7f8 fba6 	bl	80002d0 <__aeabi_dsub>
 8007b84:	f108 0430 	add.w	r4, r8, #48	@ 0x30
 8007b88:	9d07      	ldr	r5, [sp, #28]
 8007b8a:	f806 4b01 	strb.w	r4, [r6], #1
 8007b8e:	eba6 040a 	sub.w	r4, r6, sl
 8007b92:	42a5      	cmp	r5, r4
 8007b94:	4602      	mov	r2, r0
 8007b96:	460b      	mov	r3, r1
 8007b98:	f040 8116 	bne.w	8007dc8 <_dtoa_r+0x6e0>
 8007b9c:	f7f8 fb9a 	bl	80002d4 <__adddf3>
 8007ba0:	e9dd 2304 	ldrd	r2, r3, [sp, #16]
 8007ba4:	4604      	mov	r4, r0
 8007ba6:	460d      	mov	r5, r1
 8007ba8:	f7f8 ffda 	bl	8000b60 <__aeabi_dcmpgt>
 8007bac:	2800      	cmp	r0, #0
 8007bae:	f040 80f8 	bne.w	8007da2 <_dtoa_r+0x6ba>
 8007bb2:	e9dd 2304 	ldrd	r2, r3, [sp, #16]
 8007bb6:	4620      	mov	r0, r4
 8007bb8:	4629      	mov	r1, r5
 8007bba:	f7f8 ffa9 	bl	8000b10 <__aeabi_dcmpeq>
 8007bbe:	b118      	cbz	r0, 8007bc8 <_dtoa_r+0x4e0>
 8007bc0:	f018 0f01 	tst.w	r8, #1
 8007bc4:	f040 80ed 	bne.w	8007da2 <_dtoa_r+0x6ba>
 8007bc8:	4649      	mov	r1, r9
 8007bca:	4658      	mov	r0, fp
 8007bcc:	f000 fc92 	bl	80084f4 <_Bfree>
 8007bd0:	2300      	movs	r3, #0
 8007bd2:	7033      	strb	r3, [r6, #0]
 8007bd4:	9b22      	ldr	r3, [sp, #136]	@ 0x88
 8007bd6:	3701      	adds	r7, #1
 8007bd8:	601f      	str	r7, [r3, #0]
 8007bda:	9b24      	ldr	r3, [sp, #144]	@ 0x90
 8007bdc:	2b00      	cmp	r3, #0
 8007bde:	f000 8320 	beq.w	8008222 <_dtoa_r+0xb3a>
 8007be2:	601e      	str	r6, [r3, #0]
 8007be4:	e31d      	b.n	8008222 <_dtoa_r+0xb3a>
 8007be6:	07e2      	lsls	r2, r4, #31
 8007be8:	d505      	bpl.n	8007bf6 <_dtoa_r+0x50e>
 8007bea:	e9d5 2300 	ldrd	r2, r3, [r5]
 8007bee:	f7f8 fd27 	bl	8000640 <__aeabi_dmul>
 8007bf2:	2301      	movs	r3, #1
 8007bf4:	3601      	adds	r6, #1
 8007bf6:	1064      	asrs	r4, r4, #1
 8007bf8:	3508      	adds	r5, #8
 8007bfa:	e73f      	b.n	8007a7c <_dtoa_r+0x394>
 8007bfc:	2602      	movs	r6, #2
 8007bfe:	e742      	b.n	8007a86 <_dtoa_r+0x39e>
 8007c00:	9c07      	ldr	r4, [sp, #28]
 8007c02:	9704      	str	r7, [sp, #16]
 8007c04:	e761      	b.n	8007aca <_dtoa_r+0x3e2>
 8007c06:	bf00      	nop
 8007c08:	0800cb98 	.word	0x0800cb98
 8007c0c:	0800cb70 	.word	0x0800cb70
 8007c10:	3ff00000 	.word	0x3ff00000
 8007c14:	40240000 	.word	0x40240000
 8007c18:	401c0000 	.word	0x401c0000
 8007c1c:	40140000 	.word	0x40140000
 8007c20:	4b70      	ldr	r3, [pc, #448]	@ (8007de4 <_dtoa_r+0x6fc>)
 8007c22:	990b      	ldr	r1, [sp, #44]	@ 0x2c
 8007c24:	eb03 03c4 	add.w	r3, r3, r4, lsl #3
 8007c28:	e953 2302 	ldrd	r2, r3, [r3, #-8]
 8007c2c:	4454      	add	r4, sl
 8007c2e:	2900      	cmp	r1, #0
 8007c30:	d045      	beq.n	8007cbe <_dtoa_r+0x5d6>
 8007c32:	2000      	movs	r0, #0
 8007c34:	496c      	ldr	r1, [pc, #432]	@ (8007de8 <_dtoa_r+0x700>)
 8007c36:	f7f8 fe2d 	bl	8000894 <__aeabi_ddiv>
 8007c3a:	4633      	mov	r3, r6
 8007c3c:	462a      	mov	r2, r5
 8007c3e:	f7f8 fb47 	bl	80002d0 <__aeabi_dsub>
 8007c42:	4656      	mov	r6, sl
 8007c44:	e9cd 0110 	strd	r0, r1, [sp, #64]	@ 0x40
 8007c48:	e9dd 0102 	ldrd	r0, r1, [sp, #8]
 8007c4c:	f7f8 ffa8 	bl	8000ba0 <__aeabi_d2iz>
 8007c50:	4605      	mov	r5, r0
 8007c52:	f7f8 fc8b 	bl	800056c <__aeabi_i2d>
 8007c56:	4602      	mov	r2, r0
 8007c58:	460b      	mov	r3, r1
 8007c5a:	e9dd 0102 	ldrd	r0, r1, [sp, #8]
 8007c5e:	f7f8 fb37 	bl	80002d0 <__aeabi_dsub>
 8007c62:	4602      	mov	r2, r0
 8007c64:	460b      	mov	r3, r1
 8007c66:	3530      	adds	r5, #48	@ 0x30
 8007c68:	e9cd 2302 	strd	r2, r3, [sp, #8]
 8007c6c:	e9dd 2310 	ldrd	r2, r3, [sp, #64]	@ 0x40
 8007c70:	f806 5b01 	strb.w	r5, [r6], #1
 8007c74:	f7f8 ff56 	bl	8000b24 <__aeabi_dcmplt>
 8007c78:	2800      	cmp	r0, #0
 8007c7a:	d163      	bne.n	8007d44 <_dtoa_r+0x65c>
 8007c7c:	e9dd 2302 	ldrd	r2, r3, [sp, #8]
 8007c80:	2000      	movs	r0, #0
 8007c82:	495a      	ldr	r1, [pc, #360]	@ (8007dec <_dtoa_r+0x704>)
 8007c84:	f7f8 fb24 	bl	80002d0 <__aeabi_dsub>
 8007c88:	e9dd 2310 	ldrd	r2, r3, [sp, #64]	@ 0x40
 8007c8c:	f7f8 ff4a 	bl	8000b24 <__aeabi_dcmplt>
 8007c90:	2800      	cmp	r0, #0
 8007c92:	f040 8087 	bne.w	8007da4 <_dtoa_r+0x6bc>
 8007c96:	42a6      	cmp	r6, r4
 8007c98:	f43f af43 	beq.w	8007b22 <_dtoa_r+0x43a>
 8007c9c:	e9dd 0110 	ldrd	r0, r1, [sp, #64]	@ 0x40
 8007ca0:	2200      	movs	r2, #0
 8007ca2:	4b53      	ldr	r3, [pc, #332]	@ (8007df0 <_dtoa_r+0x708>)
 8007ca4:	f7f8 fccc 	bl	8000640 <__aeabi_dmul>
 8007ca8:	2200      	movs	r2, #0
 8007caa:	e9cd 0110 	strd	r0, r1, [sp, #64]	@ 0x40
 8007cae:	e9dd 0102 	ldrd	r0, r1, [sp, #8]
 8007cb2:	4b4f      	ldr	r3, [pc, #316]	@ (8007df0 <_dtoa_r+0x708>)
 8007cb4:	f7f8 fcc4 	bl	8000640 <__aeabi_dmul>
 8007cb8:	e9cd 0102 	strd	r0, r1, [sp, #8]
 8007cbc:	e7c4      	b.n	8007c48 <_dtoa_r+0x560>
 8007cbe:	4631      	mov	r1, r6
 8007cc0:	4628      	mov	r0, r5
 8007cc2:	f7f8 fcbd 	bl	8000640 <__aeabi_dmul>
 8007cc6:	4656      	mov	r6, sl
 8007cc8:	e9cd 0110 	strd	r0, r1, [sp, #64]	@ 0x40
 8007ccc:	9413      	str	r4, [sp, #76]	@ 0x4c
 8007cce:	e9dd 0102 	ldrd	r0, r1, [sp, #8]
 8007cd2:	f7f8 ff65 	bl	8000ba0 <__aeabi_d2iz>
 8007cd6:	4605      	mov	r5, r0
 8007cd8:	f7f8 fc48 	bl	800056c <__aeabi_i2d>
 8007cdc:	4602      	mov	r2, r0
 8007cde:	460b      	mov	r3, r1
 8007ce0:	e9dd 0102 	ldrd	r0, r1, [sp, #8]
 8007ce4:	f7f8 faf4 	bl	80002d0 <__aeabi_dsub>
 8007ce8:	4602      	mov	r2, r0
 8007cea:	460b      	mov	r3, r1
 8007cec:	3530      	adds	r5, #48	@ 0x30
 8007cee:	f806 5b01 	strb.w	r5, [r6], #1
 8007cf2:	42a6      	cmp	r6, r4
 8007cf4:	e9cd 2302 	strd	r2, r3, [sp, #8]
 8007cf8:	f04f 0200 	mov.w	r2, #0
 8007cfc:	d124      	bne.n	8007d48 <_dtoa_r+0x660>
 8007cfe:	e9dd 0110 	ldrd	r0, r1, [sp, #64]	@ 0x40
 8007d02:	4b39      	ldr	r3, [pc, #228]	@ (8007de8 <_dtoa_r+0x700>)
 8007d04:	f7f8 fae6 	bl	80002d4 <__adddf3>
 8007d08:	4602      	mov	r2, r0
 8007d0a:	460b      	mov	r3, r1
 8007d0c:	e9dd 0102 	ldrd	r0, r1, [sp, #8]
 8007d10:	f7f8 ff26 	bl	8000b60 <__aeabi_dcmpgt>
 8007d14:	2800      	cmp	r0, #0
 8007d16:	d145      	bne.n	8007da4 <_dtoa_r+0x6bc>
 8007d18:	e9dd 2310 	ldrd	r2, r3, [sp, #64]	@ 0x40
 8007d1c:	2000      	movs	r0, #0
 8007d1e:	4932      	ldr	r1, [pc, #200]	@ (8007de8 <_dtoa_r+0x700>)
 8007d20:	f7f8 fad6 	bl	80002d0 <__aeabi_dsub>
 8007d24:	4602      	mov	r2, r0
 8007d26:	460b      	mov	r3, r1
 8007d28:	e9dd 0102 	ldrd	r0, r1, [sp, #8]
 8007d2c:	f7f8 fefa 	bl	8000b24 <__aeabi_dcmplt>
 8007d30:	2800      	cmp	r0, #0
 8007d32:	f43f aef6 	beq.w	8007b22 <_dtoa_r+0x43a>
 8007d36:	9e13      	ldr	r6, [sp, #76]	@ 0x4c
 8007d38:	1e73      	subs	r3, r6, #1
 8007d3a:	9313      	str	r3, [sp, #76]	@ 0x4c
 8007d3c:	f816 3c01 	ldrb.w	r3, [r6, #-1]
 8007d40:	2b30      	cmp	r3, #48	@ 0x30
 8007d42:	d0f8      	beq.n	8007d36 <_dtoa_r+0x64e>
 8007d44:	9f04      	ldr	r7, [sp, #16]
 8007d46:	e73f      	b.n	8007bc8 <_dtoa_r+0x4e0>
 8007d48:	4b29      	ldr	r3, [pc, #164]	@ (8007df0 <_dtoa_r+0x708>)
 8007d4a:	f7f8 fc79 	bl	8000640 <__aeabi_dmul>
 8007d4e:	e9cd 0102 	strd	r0, r1, [sp, #8]
 8007d52:	e7bc      	b.n	8007cce <_dtoa_r+0x5e6>
 8007d54:	d10c      	bne.n	8007d70 <_dtoa_r+0x688>
 8007d56:	e9dd 0104 	ldrd	r0, r1, [sp, #16]
 8007d5a:	2200      	movs	r2, #0
 8007d5c:	4b25      	ldr	r3, [pc, #148]	@ (8007df4 <_dtoa_r+0x70c>)
 8007d5e:	f7f8 fc6f 	bl	8000640 <__aeabi_dmul>
 8007d62:	e9dd 2302 	ldrd	r2, r3, [sp, #8]
 8007d66:	f7f8 fef1 	bl	8000b4c <__aeabi_dcmpge>
 8007d6a:	2800      	cmp	r0, #0
 8007d6c:	f000 815b 	beq.w	8008026 <_dtoa_r+0x93e>
 8007d70:	2400      	movs	r4, #0
 8007d72:	4625      	mov	r5, r4
 8007d74:	9b21      	ldr	r3, [sp, #132]	@ 0x84
 8007d76:	4656      	mov	r6, sl
 8007d78:	43db      	mvns	r3, r3
 8007d7a:	9304      	str	r3, [sp, #16]
 8007d7c:	2700      	movs	r7, #0
 8007d7e:	4621      	mov	r1, r4
 8007d80:	4658      	mov	r0, fp
 8007d82:	f000 fbb7 	bl	80084f4 <_Bfree>
 8007d86:	2d00      	cmp	r5, #0
 8007d88:	d0dc      	beq.n	8007d44 <_dtoa_r+0x65c>
 8007d8a:	b12f      	cbz	r7, 8007d98 <_dtoa_r+0x6b0>
 8007d8c:	42af      	cmp	r7, r5
 8007d8e:	d003      	beq.n	8007d98 <_dtoa_r+0x6b0>
 8007d90:	4639      	mov	r1, r7
 8007d92:	4658      	mov	r0, fp
 8007d94:	f000 fbae 	bl	80084f4 <_Bfree>
 8007d98:	4629      	mov	r1, r5
 8007d9a:	4658      	mov	r0, fp
 8007d9c:	f000 fbaa 	bl	80084f4 <_Bfree>
 8007da0:	e7d0      	b.n	8007d44 <_dtoa_r+0x65c>
 8007da2:	9704      	str	r7, [sp, #16]
 8007da4:	4633      	mov	r3, r6
 8007da6:	461e      	mov	r6, r3
 8007da8:	f813 2d01 	ldrb.w	r2, [r3, #-1]!
 8007dac:	2a39      	cmp	r2, #57	@ 0x39
 8007dae:	d107      	bne.n	8007dc0 <_dtoa_r+0x6d8>
 8007db0:	459a      	cmp	sl, r3
 8007db2:	d1f8      	bne.n	8007da6 <_dtoa_r+0x6be>
 8007db4:	9a04      	ldr	r2, [sp, #16]
 8007db6:	3201      	adds	r2, #1
 8007db8:	9204      	str	r2, [sp, #16]
 8007dba:	2230      	movs	r2, #48	@ 0x30
 8007dbc:	f88a 2000 	strb.w	r2, [sl]
 8007dc0:	781a      	ldrb	r2, [r3, #0]
 8007dc2:	3201      	adds	r2, #1
 8007dc4:	701a      	strb	r2, [r3, #0]
 8007dc6:	e7bd      	b.n	8007d44 <_dtoa_r+0x65c>
 8007dc8:	2200      	movs	r2, #0
 8007dca:	4b09      	ldr	r3, [pc, #36]	@ (8007df0 <_dtoa_r+0x708>)
 8007dcc:	f7f8 fc38 	bl	8000640 <__aeabi_dmul>
 8007dd0:	2200      	movs	r2, #0
 8007dd2:	2300      	movs	r3, #0
 8007dd4:	4604      	mov	r4, r0
 8007dd6:	460d      	mov	r5, r1
 8007dd8:	f7f8 fe9a 	bl	8000b10 <__aeabi_dcmpeq>
 8007ddc:	2800      	cmp	r0, #0
 8007dde:	f43f aebc 	beq.w	8007b5a <_dtoa_r+0x472>
 8007de2:	e6f1      	b.n	8007bc8 <_dtoa_r+0x4e0>
 8007de4:	0800cb98 	.word	0x0800cb98
 8007de8:	3fe00000 	.word	0x3fe00000
 8007dec:	3ff00000 	.word	0x3ff00000
 8007df0:	40240000 	.word	0x40240000
 8007df4:	40140000 	.word	0x40140000
 8007df8:	9a0b      	ldr	r2, [sp, #44]	@ 0x2c
 8007dfa:	2a00      	cmp	r2, #0
 8007dfc:	f000 80db 	beq.w	8007fb6 <_dtoa_r+0x8ce>
 8007e00:	9a20      	ldr	r2, [sp, #128]	@ 0x80
 8007e02:	2a01      	cmp	r2, #1
 8007e04:	f300 80bf 	bgt.w	8007f86 <_dtoa_r+0x89e>
 8007e08:	9a12      	ldr	r2, [sp, #72]	@ 0x48
 8007e0a:	2a00      	cmp	r2, #0
 8007e0c:	f000 80b7 	beq.w	8007f7e <_dtoa_r+0x896>
 8007e10:	f203 4333 	addw	r3, r3, #1075	@ 0x433
 8007e14:	4646      	mov	r6, r8
 8007e16:	9c0a      	ldr	r4, [sp, #40]	@ 0x28
 8007e18:	9a09      	ldr	r2, [sp, #36]	@ 0x24
 8007e1a:	2101      	movs	r1, #1
 8007e1c:	441a      	add	r2, r3
 8007e1e:	4658      	mov	r0, fp
 8007e20:	4498      	add	r8, r3
 8007e22:	9209      	str	r2, [sp, #36]	@ 0x24
 8007e24:	f000 fc64 	bl	80086f0 <__i2b>
 8007e28:	4605      	mov	r5, r0
 8007e2a:	b15e      	cbz	r6, 8007e44 <_dtoa_r+0x75c>
 8007e2c:	9b09      	ldr	r3, [sp, #36]	@ 0x24
 8007e2e:	2b00      	cmp	r3, #0
 8007e30:	dd08      	ble.n	8007e44 <_dtoa_r+0x75c>
 8007e32:	42b3      	cmp	r3, r6
 8007e34:	bfa8      	it	ge
 8007e36:	4633      	movge	r3, r6
 8007e38:	9a09      	ldr	r2, [sp, #36]	@ 0x24
 8007e3a:	eba8 0803 	sub.w	r8, r8, r3
 8007e3e:	1af6      	subs	r6, r6, r3
 8007e40:	1ad3      	subs	r3, r2, r3
 8007e42:	9309      	str	r3, [sp, #36]	@ 0x24
 8007e44:	9b0a      	ldr	r3, [sp, #40]	@ 0x28
 8007e46:	b1f3      	cbz	r3, 8007e86 <_dtoa_r+0x79e>
 8007e48:	9b0b      	ldr	r3, [sp, #44]	@ 0x2c
 8007e4a:	2b00      	cmp	r3, #0
 8007e4c:	f000 80b7 	beq.w	8007fbe <_dtoa_r+0x8d6>
 8007e50:	b18c      	cbz	r4, 8007e76 <_dtoa_r+0x78e>
 8007e52:	4629      	mov	r1, r5
 8007e54:	4622      	mov	r2, r4
 8007e56:	4658      	mov	r0, fp
 8007e58:	f000 fd08 	bl	800886c <__pow5mult>
 8007e5c:	464a      	mov	r2, r9
 8007e5e:	4601      	mov	r1, r0
 8007e60:	4605      	mov	r5, r0
 8007e62:	4658      	mov	r0, fp
 8007e64:	f000 fc5a 	bl	800871c <__multiply>
 8007e68:	4649      	mov	r1, r9
 8007e6a:	9004      	str	r0, [sp, #16]
 8007e6c:	4658      	mov	r0, fp
 8007e6e:	f000 fb41 	bl	80084f4 <_Bfree>
 8007e72:	9b04      	ldr	r3, [sp, #16]
 8007e74:	4699      	mov	r9, r3
 8007e76:	9b0a      	ldr	r3, [sp, #40]	@ 0x28
 8007e78:	1b1a      	subs	r2, r3, r4
 8007e7a:	d004      	beq.n	8007e86 <_dtoa_r+0x79e>
 8007e7c:	4649      	mov	r1, r9
 8007e7e:	4658      	mov	r0, fp
 8007e80:	f000 fcf4 	bl	800886c <__pow5mult>
 8007e84:	4681      	mov	r9, r0
 8007e86:	2101      	movs	r1, #1
 8007e88:	4658      	mov	r0, fp
 8007e8a:	f000 fc31 	bl	80086f0 <__i2b>
 8007e8e:	9b0e      	ldr	r3, [sp, #56]	@ 0x38
 8007e90:	4604      	mov	r4, r0
 8007e92:	2b00      	cmp	r3, #0
 8007e94:	f000 81c9 	beq.w	800822a <_dtoa_r+0xb42>
 8007e98:	461a      	mov	r2, r3
 8007e9a:	4601      	mov	r1, r0
 8007e9c:	4658      	mov	r0, fp
 8007e9e:	f000 fce5 	bl	800886c <__pow5mult>
 8007ea2:	9b20      	ldr	r3, [sp, #128]	@ 0x80
 8007ea4:	4604      	mov	r4, r0
 8007ea6:	2b01      	cmp	r3, #1
 8007ea8:	f300 808f 	bgt.w	8007fca <_dtoa_r+0x8e2>
 8007eac:	9b02      	ldr	r3, [sp, #8]
 8007eae:	2b00      	cmp	r3, #0
 8007eb0:	f040 8087 	bne.w	8007fc2 <_dtoa_r+0x8da>
 8007eb4:	9b03      	ldr	r3, [sp, #12]
 8007eb6:	f3c3 0313 	ubfx	r3, r3, #0, #20
 8007eba:	2b00      	cmp	r3, #0
 8007ebc:	f040 8083 	bne.w	8007fc6 <_dtoa_r+0x8de>
 8007ec0:	9b03      	ldr	r3, [sp, #12]
 8007ec2:	f023 4300 	bic.w	r3, r3, #2147483648	@ 0x80000000
 8007ec6:	0d1b      	lsrs	r3, r3, #20
 8007ec8:	051b      	lsls	r3, r3, #20
 8007eca:	b12b      	cbz	r3, 8007ed8 <_dtoa_r+0x7f0>
 8007ecc:	9b09      	ldr	r3, [sp, #36]	@ 0x24
 8007ece:	f108 0801 	add.w	r8, r8, #1
 8007ed2:	3301      	adds	r3, #1
 8007ed4:	9309      	str	r3, [sp, #36]	@ 0x24
 8007ed6:	2301      	movs	r3, #1
 8007ed8:	930a      	str	r3, [sp, #40]	@ 0x28
 8007eda:	9b0e      	ldr	r3, [sp, #56]	@ 0x38
 8007edc:	2b00      	cmp	r3, #0
 8007ede:	f000 81aa 	beq.w	8008236 <_dtoa_r+0xb4e>
 8007ee2:	6923      	ldr	r3, [r4, #16]
 8007ee4:	eb04 0383 	add.w	r3, r4, r3, lsl #2
 8007ee8:	6918      	ldr	r0, [r3, #16]
 8007eea:	f000 fbb5 	bl	8008658 <__hi0bits>
 8007eee:	f1c0 0020 	rsb	r0, r0, #32
 8007ef2:	9b09      	ldr	r3, [sp, #36]	@ 0x24
 8007ef4:	4418      	add	r0, r3
 8007ef6:	f010 001f 	ands.w	r0, r0, #31
 8007efa:	d071      	beq.n	8007fe0 <_dtoa_r+0x8f8>
 8007efc:	f1c0 0320 	rsb	r3, r0, #32
 8007f00:	2b04      	cmp	r3, #4
 8007f02:	dd65      	ble.n	8007fd0 <_dtoa_r+0x8e8>
 8007f04:	9b09      	ldr	r3, [sp, #36]	@ 0x24
 8007f06:	f1c0 001c 	rsb	r0, r0, #28
 8007f0a:	4403      	add	r3, r0
 8007f0c:	4480      	add	r8, r0
 8007f0e:	4406      	add	r6, r0
 8007f10:	9309      	str	r3, [sp, #36]	@ 0x24
 8007f12:	f1b8 0f00 	cmp.w	r8, #0
 8007f16:	dd05      	ble.n	8007f24 <_dtoa_r+0x83c>
 8007f18:	4649      	mov	r1, r9
 8007f1a:	4642      	mov	r2, r8
 8007f1c:	4658      	mov	r0, fp
 8007f1e:	f000 fcff 	bl	8008920 <__lshift>
 8007f22:	4681      	mov	r9, r0
 8007f24:	9b09      	ldr	r3, [sp, #36]	@ 0x24
 8007f26:	2b00      	cmp	r3, #0
 8007f28:	dd05      	ble.n	8007f36 <_dtoa_r+0x84e>
 8007f2a:	4621      	mov	r1, r4
 8007f2c:	461a      	mov	r2, r3
 8007f2e:	4658      	mov	r0, fp
 8007f30:	f000 fcf6 	bl	8008920 <__lshift>
 8007f34:	4604      	mov	r4, r0
 8007f36:	9b0f      	ldr	r3, [sp, #60]	@ 0x3c
 8007f38:	2b00      	cmp	r3, #0
 8007f3a:	d053      	beq.n	8007fe4 <_dtoa_r+0x8fc>
 8007f3c:	4621      	mov	r1, r4
 8007f3e:	4648      	mov	r0, r9
 8007f40:	f000 fd5a 	bl	80089f8 <__mcmp>
 8007f44:	2800      	cmp	r0, #0
 8007f46:	da4d      	bge.n	8007fe4 <_dtoa_r+0x8fc>
 8007f48:	1e7b      	subs	r3, r7, #1
 8007f4a:	4649      	mov	r1, r9
 8007f4c:	9304      	str	r3, [sp, #16]
 8007f4e:	220a      	movs	r2, #10
 8007f50:	2300      	movs	r3, #0
 8007f52:	4658      	mov	r0, fp
 8007f54:	f000 faf0 	bl	8008538 <__multadd>
 8007f58:	9b0b      	ldr	r3, [sp, #44]	@ 0x2c
 8007f5a:	4681      	mov	r9, r0
 8007f5c:	2b00      	cmp	r3, #0
 8007f5e:	f000 816c 	beq.w	800823a <_dtoa_r+0xb52>
 8007f62:	2300      	movs	r3, #0
 8007f64:	4629      	mov	r1, r5
 8007f66:	220a      	movs	r2, #10
 8007f68:	4658      	mov	r0, fp
 8007f6a:	f000 fae5 	bl	8008538 <__multadd>
 8007f6e:	9b08      	ldr	r3, [sp, #32]
 8007f70:	4605      	mov	r5, r0
 8007f72:	2b00      	cmp	r3, #0
 8007f74:	dc61      	bgt.n	800803a <_dtoa_r+0x952>
 8007f76:	9b20      	ldr	r3, [sp, #128]	@ 0x80
 8007f78:	2b02      	cmp	r3, #2
 8007f7a:	dc3b      	bgt.n	8007ff4 <_dtoa_r+0x90c>
 8007f7c:	e05d      	b.n	800803a <_dtoa_r+0x952>
 8007f7e:	9b14      	ldr	r3, [sp, #80]	@ 0x50
 8007f80:	f1c3 0336 	rsb	r3, r3, #54	@ 0x36
 8007f84:	e746      	b.n	8007e14 <_dtoa_r+0x72c>
 8007f86:	9b07      	ldr	r3, [sp, #28]
 8007f88:	1e5c      	subs	r4, r3, #1
 8007f8a:	9b0a      	ldr	r3, [sp, #40]	@ 0x28
 8007f8c:	42a3      	cmp	r3, r4
 8007f8e:	bfbf      	itttt	lt
 8007f90:	9b0a      	ldrlt	r3, [sp, #40]	@ 0x28
 8007f92:	9a0e      	ldrlt	r2, [sp, #56]	@ 0x38
 8007f94:	1ae3      	sublt	r3, r4, r3
 8007f96:	18d2      	addlt	r2, r2, r3
 8007f98:	bfa8      	it	ge
 8007f9a:	1b1c      	subge	r4, r3, r4
 8007f9c:	9b07      	ldr	r3, [sp, #28]
 8007f9e:	bfbe      	ittt	lt
 8007fa0:	940a      	strlt	r4, [sp, #40]	@ 0x28
 8007fa2:	920e      	strlt	r2, [sp, #56]	@ 0x38
 8007fa4:	2400      	movlt	r4, #0
 8007fa6:	2b00      	cmp	r3, #0
 8007fa8:	bfb5      	itete	lt
 8007faa:	eba8 0603 	sublt.w	r6, r8, r3
 8007fae:	4646      	movge	r6, r8
 8007fb0:	2300      	movlt	r3, #0
 8007fb2:	9b07      	ldrge	r3, [sp, #28]
 8007fb4:	e730      	b.n	8007e18 <_dtoa_r+0x730>
 8007fb6:	4646      	mov	r6, r8
 8007fb8:	9c0a      	ldr	r4, [sp, #40]	@ 0x28
 8007fba:	9d0b      	ldr	r5, [sp, #44]	@ 0x2c
 8007fbc:	e735      	b.n	8007e2a <_dtoa_r+0x742>
 8007fbe:	9a0a      	ldr	r2, [sp, #40]	@ 0x28
 8007fc0:	e75c      	b.n	8007e7c <_dtoa_r+0x794>
 8007fc2:	2300      	movs	r3, #0
 8007fc4:	e788      	b.n	8007ed8 <_dtoa_r+0x7f0>
 8007fc6:	9b02      	ldr	r3, [sp, #8]
 8007fc8:	e786      	b.n	8007ed8 <_dtoa_r+0x7f0>
 8007fca:	2300      	movs	r3, #0
 8007fcc:	930a      	str	r3, [sp, #40]	@ 0x28
 8007fce:	e788      	b.n	8007ee2 <_dtoa_r+0x7fa>
 8007fd0:	d09f      	beq.n	8007f12 <_dtoa_r+0x82a>
 8007fd2:	9a09      	ldr	r2, [sp, #36]	@ 0x24
 8007fd4:	331c      	adds	r3, #28
 8007fd6:	441a      	add	r2, r3
 8007fd8:	4498      	add	r8, r3
 8007fda:	441e      	add	r6, r3
 8007fdc:	9209      	str	r2, [sp, #36]	@ 0x24
 8007fde:	e798      	b.n	8007f12 <_dtoa_r+0x82a>
 8007fe0:	4603      	mov	r3, r0
 8007fe2:	e7f6      	b.n	8007fd2 <_dtoa_r+0x8ea>
 8007fe4:	9b07      	ldr	r3, [sp, #28]
 8007fe6:	9704      	str	r7, [sp, #16]
 8007fe8:	2b00      	cmp	r3, #0
 8007fea:	dc20      	bgt.n	800802e <_dtoa_r+0x946>
 8007fec:	9308      	str	r3, [sp, #32]
 8007fee:	9b20      	ldr	r3, [sp, #128]	@ 0x80
 8007ff0:	2b02      	cmp	r3, #2
 8007ff2:	dd1e      	ble.n	8008032 <_dtoa_r+0x94a>
 8007ff4:	9b08      	ldr	r3, [sp, #32]
 8007ff6:	2b00      	cmp	r3, #0
 8007ff8:	f47f aebc 	bne.w	8007d74 <_dtoa_r+0x68c>
 8007ffc:	4621      	mov	r1, r4
 8007ffe:	2205      	movs	r2, #5
 8008000:	4658      	mov	r0, fp
 8008002:	f000 fa99 	bl	8008538 <__multadd>
 8008006:	4601      	mov	r1, r0
 8008008:	4604      	mov	r4, r0
 800800a:	4648      	mov	r0, r9
 800800c:	f000 fcf4 	bl	80089f8 <__mcmp>
 8008010:	2800      	cmp	r0, #0
 8008012:	f77f aeaf 	ble.w	8007d74 <_dtoa_r+0x68c>
 8008016:	2331      	movs	r3, #49	@ 0x31
 8008018:	4656      	mov	r6, sl
 800801a:	f806 3b01 	strb.w	r3, [r6], #1
 800801e:	9b04      	ldr	r3, [sp, #16]
 8008020:	3301      	adds	r3, #1
 8008022:	9304      	str	r3, [sp, #16]
 8008024:	e6aa      	b.n	8007d7c <_dtoa_r+0x694>
 8008026:	9c07      	ldr	r4, [sp, #28]
 8008028:	9704      	str	r7, [sp, #16]
 800802a:	4625      	mov	r5, r4
 800802c:	e7f3      	b.n	8008016 <_dtoa_r+0x92e>
 800802e:	9b07      	ldr	r3, [sp, #28]
 8008030:	9308      	str	r3, [sp, #32]
 8008032:	9b0b      	ldr	r3, [sp, #44]	@ 0x2c
 8008034:	2b00      	cmp	r3, #0
 8008036:	f000 8104 	beq.w	8008242 <_dtoa_r+0xb5a>
 800803a:	2e00      	cmp	r6, #0
 800803c:	dd05      	ble.n	800804a <_dtoa_r+0x962>
 800803e:	4629      	mov	r1, r5
 8008040:	4632      	mov	r2, r6
 8008042:	4658      	mov	r0, fp
 8008044:	f000 fc6c 	bl	8008920 <__lshift>
 8008048:	4605      	mov	r5, r0
 800804a:	9b0a      	ldr	r3, [sp, #40]	@ 0x28
 800804c:	2b00      	cmp	r3, #0
 800804e:	d05a      	beq.n	8008106 <_dtoa_r+0xa1e>
 8008050:	4658      	mov	r0, fp
 8008052:	6869      	ldr	r1, [r5, #4]
 8008054:	f000 fa0e 	bl	8008474 <_Balloc>
 8008058:	4606      	mov	r6, r0
 800805a:	b928      	cbnz	r0, 8008068 <_dtoa_r+0x980>
 800805c:	4602      	mov	r2, r0
 800805e:	f240 21ef 	movw	r1, #751	@ 0x2ef
 8008062:	4b83      	ldr	r3, [pc, #524]	@ (8008270 <_dtoa_r+0xb88>)
 8008064:	f7ff bb54 	b.w	8007710 <_dtoa_r+0x28>
 8008068:	692a      	ldr	r2, [r5, #16]
 800806a:	f105 010c 	add.w	r1, r5, #12
 800806e:	3202      	adds	r2, #2
 8008070:	0092      	lsls	r2, r2, #2
 8008072:	300c      	adds	r0, #12
 8008074:	f7ff fa7f 	bl	8007576 <memcpy>
 8008078:	2201      	movs	r2, #1
 800807a:	4631      	mov	r1, r6
 800807c:	4658      	mov	r0, fp
 800807e:	f000 fc4f 	bl	8008920 <__lshift>
 8008082:	462f      	mov	r7, r5
 8008084:	4605      	mov	r5, r0
 8008086:	f10a 0301 	add.w	r3, sl, #1
 800808a:	9307      	str	r3, [sp, #28]
 800808c:	9b08      	ldr	r3, [sp, #32]
 800808e:	4453      	add	r3, sl
 8008090:	930b      	str	r3, [sp, #44]	@ 0x2c
 8008092:	9b02      	ldr	r3, [sp, #8]
 8008094:	f003 0301 	and.w	r3, r3, #1
 8008098:	930a      	str	r3, [sp, #40]	@ 0x28
 800809a:	9b07      	ldr	r3, [sp, #28]
 800809c:	4621      	mov	r1, r4
 800809e:	3b01      	subs	r3, #1
 80080a0:	4648      	mov	r0, r9
 80080a2:	9302      	str	r3, [sp, #8]
 80080a4:	f7ff fa98 	bl	80075d8 <quorem>
 80080a8:	4639      	mov	r1, r7
 80080aa:	9008      	str	r0, [sp, #32]
 80080ac:	f100 0830 	add.w	r8, r0, #48	@ 0x30
 80080b0:	4648      	mov	r0, r9
 80080b2:	f000 fca1 	bl	80089f8 <__mcmp>
 80080b6:	462a      	mov	r2, r5
 80080b8:	9009      	str	r0, [sp, #36]	@ 0x24
 80080ba:	4621      	mov	r1, r4
 80080bc:	4658      	mov	r0, fp
 80080be:	f000 fcb7 	bl	8008a30 <__mdiff>
 80080c2:	68c2      	ldr	r2, [r0, #12]
 80080c4:	4606      	mov	r6, r0
 80080c6:	bb02      	cbnz	r2, 800810a <_dtoa_r+0xa22>
 80080c8:	4601      	mov	r1, r0
 80080ca:	4648      	mov	r0, r9
 80080cc:	f000 fc94 	bl	80089f8 <__mcmp>
 80080d0:	4602      	mov	r2, r0
 80080d2:	4631      	mov	r1, r6
 80080d4:	4658      	mov	r0, fp
 80080d6:	920c      	str	r2, [sp, #48]	@ 0x30
 80080d8:	f000 fa0c 	bl	80084f4 <_Bfree>
 80080dc:	9b20      	ldr	r3, [sp, #128]	@ 0x80
 80080de:	9a0c      	ldr	r2, [sp, #48]	@ 0x30
 80080e0:	9e07      	ldr	r6, [sp, #28]
 80080e2:	ea43 0102 	orr.w	r1, r3, r2
 80080e6:	9b0a      	ldr	r3, [sp, #40]	@ 0x28
 80080e8:	4319      	orrs	r1, r3
 80080ea:	d110      	bne.n	800810e <_dtoa_r+0xa26>
 80080ec:	f1b8 0f39 	cmp.w	r8, #57	@ 0x39
 80080f0:	d029      	beq.n	8008146 <_dtoa_r+0xa5e>
 80080f2:	9b09      	ldr	r3, [sp, #36]	@ 0x24
 80080f4:	2b00      	cmp	r3, #0
 80080f6:	dd02      	ble.n	80080fe <_dtoa_r+0xa16>
 80080f8:	9b08      	ldr	r3, [sp, #32]
 80080fa:	f103 0831 	add.w	r8, r3, #49	@ 0x31
 80080fe:	9b02      	ldr	r3, [sp, #8]
 8008100:	f883 8000 	strb.w	r8, [r3]
 8008104:	e63b      	b.n	8007d7e <_dtoa_r+0x696>
 8008106:	4628      	mov	r0, r5
 8008108:	e7bb      	b.n	8008082 <_dtoa_r+0x99a>
 800810a:	2201      	movs	r2, #1
 800810c:	e7e1      	b.n	80080d2 <_dtoa_r+0x9ea>
 800810e:	9b09      	ldr	r3, [sp, #36]	@ 0x24
 8008110:	2b00      	cmp	r3, #0
 8008112:	db04      	blt.n	800811e <_dtoa_r+0xa36>
 8008114:	9920      	ldr	r1, [sp, #128]	@ 0x80
 8008116:	430b      	orrs	r3, r1
 8008118:	990a      	ldr	r1, [sp, #40]	@ 0x28
 800811a:	430b      	orrs	r3, r1
 800811c:	d120      	bne.n	8008160 <_dtoa_r+0xa78>
 800811e:	2a00      	cmp	r2, #0
 8008120:	dded      	ble.n	80080fe <_dtoa_r+0xa16>
 8008122:	4649      	mov	r1, r9
 8008124:	2201      	movs	r2, #1
 8008126:	4658      	mov	r0, fp
 8008128:	f000 fbfa 	bl	8008920 <__lshift>
 800812c:	4621      	mov	r1, r4
 800812e:	4681      	mov	r9, r0
 8008130:	f000 fc62 	bl	80089f8 <__mcmp>
 8008134:	2800      	cmp	r0, #0
 8008136:	dc03      	bgt.n	8008140 <_dtoa_r+0xa58>
 8008138:	d1e1      	bne.n	80080fe <_dtoa_r+0xa16>
 800813a:	f018 0f01 	tst.w	r8, #1
 800813e:	d0de      	beq.n	80080fe <_dtoa_r+0xa16>
 8008140:	f1b8 0f39 	cmp.w	r8, #57	@ 0x39
 8008144:	d1d8      	bne.n	80080f8 <_dtoa_r+0xa10>
 8008146:	2339      	movs	r3, #57	@ 0x39
 8008148:	9a02      	ldr	r2, [sp, #8]
 800814a:	7013      	strb	r3, [r2, #0]
 800814c:	4633      	mov	r3, r6
 800814e:	461e      	mov	r6, r3
 8008150:	f816 2c01 	ldrb.w	r2, [r6, #-1]
 8008154:	3b01      	subs	r3, #1
 8008156:	2a39      	cmp	r2, #57	@ 0x39
 8008158:	d052      	beq.n	8008200 <_dtoa_r+0xb18>
 800815a:	3201      	adds	r2, #1
 800815c:	701a      	strb	r2, [r3, #0]
 800815e:	e60e      	b.n	8007d7e <_dtoa_r+0x696>
 8008160:	2a00      	cmp	r2, #0
 8008162:	dd07      	ble.n	8008174 <_dtoa_r+0xa8c>
 8008164:	f1b8 0f39 	cmp.w	r8, #57	@ 0x39
 8008168:	d0ed      	beq.n	8008146 <_dtoa_r+0xa5e>
 800816a:	9a02      	ldr	r2, [sp, #8]
 800816c:	f108 0301 	add.w	r3, r8, #1
 8008170:	7013      	strb	r3, [r2, #0]
 8008172:	e604      	b.n	8007d7e <_dtoa_r+0x696>
 8008174:	9b07      	ldr	r3, [sp, #28]
 8008176:	9a07      	ldr	r2, [sp, #28]
 8008178:	f803 8c01 	strb.w	r8, [r3, #-1]
 800817c:	9b0b      	ldr	r3, [sp, #44]	@ 0x2c
 800817e:	4293      	cmp	r3, r2
 8008180:	d028      	beq.n	80081d4 <_dtoa_r+0xaec>
 8008182:	4649      	mov	r1, r9
 8008184:	2300      	movs	r3, #0
 8008186:	220a      	movs	r2, #10
 8008188:	4658      	mov	r0, fp
 800818a:	f000 f9d5 	bl	8008538 <__multadd>
 800818e:	42af      	cmp	r7, r5
 8008190:	4681      	mov	r9, r0
 8008192:	f04f 0300 	mov.w	r3, #0
 8008196:	f04f 020a 	mov.w	r2, #10
 800819a:	4639      	mov	r1, r7
 800819c:	4658      	mov	r0, fp
 800819e:	d107      	bne.n	80081b0 <_dtoa_r+0xac8>
 80081a0:	f000 f9ca 	bl	8008538 <__multadd>
 80081a4:	4607      	mov	r7, r0
 80081a6:	4605      	mov	r5, r0
 80081a8:	9b07      	ldr	r3, [sp, #28]
 80081aa:	3301      	adds	r3, #1
 80081ac:	9307      	str	r3, [sp, #28]
 80081ae:	e774      	b.n	800809a <_dtoa_r+0x9b2>
 80081b0:	f000 f9c2 	bl	8008538 <__multadd>
 80081b4:	4629      	mov	r1, r5
 80081b6:	4607      	mov	r7, r0
 80081b8:	2300      	movs	r3, #0
 80081ba:	220a      	movs	r2, #10
 80081bc:	4658      	mov	r0, fp
 80081be:	f000 f9bb 	bl	8008538 <__multadd>
 80081c2:	4605      	mov	r5, r0
 80081c4:	e7f0      	b.n	80081a8 <_dtoa_r+0xac0>
 80081c6:	9b08      	ldr	r3, [sp, #32]
 80081c8:	2700      	movs	r7, #0
 80081ca:	2b00      	cmp	r3, #0
 80081cc:	bfcc      	ite	gt
 80081ce:	461e      	movgt	r6, r3
 80081d0:	2601      	movle	r6, #1
 80081d2:	4456      	add	r6, sl
 80081d4:	4649      	mov	r1, r9
 80081d6:	2201      	movs	r2, #1
 80081d8:	4658      	mov	r0, fp
 80081da:	f000 fba1 	bl	8008920 <__lshift>
 80081de:	4621      	mov	r1, r4
 80081e0:	4681      	mov	r9, r0
 80081e2:	f000 fc09 	bl	80089f8 <__mcmp>
 80081e6:	2800      	cmp	r0, #0
 80081e8:	dcb0      	bgt.n	800814c <_dtoa_r+0xa64>
 80081ea:	d102      	bne.n	80081f2 <_dtoa_r+0xb0a>
 80081ec:	f018 0f01 	tst.w	r8, #1
 80081f0:	d1ac      	bne.n	800814c <_dtoa_r+0xa64>
 80081f2:	4633      	mov	r3, r6
 80081f4:	461e      	mov	r6, r3
 80081f6:	f813 2d01 	ldrb.w	r2, [r3, #-1]!
 80081fa:	2a30      	cmp	r2, #48	@ 0x30
 80081fc:	d0fa      	beq.n	80081f4 <_dtoa_r+0xb0c>
 80081fe:	e5be      	b.n	8007d7e <_dtoa_r+0x696>
 8008200:	459a      	cmp	sl, r3
 8008202:	d1a4      	bne.n	800814e <_dtoa_r+0xa66>
 8008204:	9b04      	ldr	r3, [sp, #16]
 8008206:	3301      	adds	r3, #1
 8008208:	9304      	str	r3, [sp, #16]
 800820a:	2331      	movs	r3, #49	@ 0x31
 800820c:	f88a 3000 	strb.w	r3, [sl]
 8008210:	e5b5      	b.n	8007d7e <_dtoa_r+0x696>
 8008212:	9b24      	ldr	r3, [sp, #144]	@ 0x90
 8008214:	f8df a05c 	ldr.w	sl, [pc, #92]	@ 8008274 <_dtoa_r+0xb8c>
 8008218:	b11b      	cbz	r3, 8008222 <_dtoa_r+0xb3a>
 800821a:	f10a 0308 	add.w	r3, sl, #8
 800821e:	9a24      	ldr	r2, [sp, #144]	@ 0x90
 8008220:	6013      	str	r3, [r2, #0]
 8008222:	4650      	mov	r0, sl
 8008224:	b017      	add	sp, #92	@ 0x5c
 8008226:	e8bd 8ff0 	ldmia.w	sp!, {r4, r5, r6, r7, r8, r9, sl, fp, pc}
 800822a:	9b20      	ldr	r3, [sp, #128]	@ 0x80
 800822c:	2b01      	cmp	r3, #1
 800822e:	f77f ae3d 	ble.w	8007eac <_dtoa_r+0x7c4>
 8008232:	9b0e      	ldr	r3, [sp, #56]	@ 0x38
 8008234:	930a      	str	r3, [sp, #40]	@ 0x28
 8008236:	2001      	movs	r0, #1
 8008238:	e65b      	b.n	8007ef2 <_dtoa_r+0x80a>
 800823a:	9b08      	ldr	r3, [sp, #32]
 800823c:	2b00      	cmp	r3, #0
 800823e:	f77f aed6 	ble.w	8007fee <_dtoa_r+0x906>
 8008242:	4656      	mov	r6, sl
 8008244:	4621      	mov	r1, r4
 8008246:	4648      	mov	r0, r9
 8008248:	f7ff f9c6 	bl	80075d8 <quorem>
 800824c:	f100 0830 	add.w	r8, r0, #48	@ 0x30
 8008250:	9b08      	ldr	r3, [sp, #32]
 8008252:	f806 8b01 	strb.w	r8, [r6], #1
 8008256:	eba6 020a 	sub.w	r2, r6, sl
 800825a:	4293      	cmp	r3, r2
 800825c:	ddb3      	ble.n	80081c6 <_dtoa_r+0xade>
 800825e:	4649      	mov	r1, r9
 8008260:	2300      	movs	r3, #0
 8008262:	220a      	movs	r2, #10
 8008264:	4658      	mov	r0, fp
 8008266:	f000 f967 	bl	8008538 <__multadd>
 800826a:	4681      	mov	r9, r0
 800826c:	e7ea      	b.n	8008244 <_dtoa_r+0xb5c>
 800826e:	bf00      	nop
 8008270:	0800caf8 	.word	0x0800caf8
 8008274:	0800ca93 	.word	0x0800ca93

08008278 <_free_r>:
 8008278:	b538      	push	{r3, r4, r5, lr}
 800827a:	4605      	mov	r5, r0
 800827c:	2900      	cmp	r1, #0
 800827e:	d040      	beq.n	8008302 <_free_r+0x8a>
 8008280:	f851 3c04 	ldr.w	r3, [r1, #-4]
 8008284:	1f0c      	subs	r4, r1, #4
 8008286:	2b00      	cmp	r3, #0
 8008288:	bfb8      	it	lt
 800828a:	18e4      	addlt	r4, r4, r3
 800828c:	f000 f8e6 	bl	800845c <__malloc_lock>
 8008290:	4a1c      	ldr	r2, [pc, #112]	@ (8008304 <_free_r+0x8c>)
 8008292:	6813      	ldr	r3, [r2, #0]
 8008294:	b933      	cbnz	r3, 80082a4 <_free_r+0x2c>
 8008296:	6063      	str	r3, [r4, #4]
 8008298:	6014      	str	r4, [r2, #0]
 800829a:	4628      	mov	r0, r5
 800829c:	e8bd 4038 	ldmia.w	sp!, {r3, r4, r5, lr}
 80082a0:	f000 b8e2 	b.w	8008468 <__malloc_unlock>
 80082a4:	42a3      	cmp	r3, r4
 80082a6:	d908      	bls.n	80082ba <_free_r+0x42>
 80082a8:	6820      	ldr	r0, [r4, #0]
 80082aa:	1821      	adds	r1, r4, r0
 80082ac:	428b      	cmp	r3, r1
 80082ae:	bf01      	itttt	eq
 80082b0:	6819      	ldreq	r1, [r3, #0]
 80082b2:	685b      	ldreq	r3, [r3, #4]
 80082b4:	1809      	addeq	r1, r1, r0
 80082b6:	6021      	streq	r1, [r4, #0]
 80082b8:	e7ed      	b.n	8008296 <_free_r+0x1e>
 80082ba:	461a      	mov	r2, r3
 80082bc:	685b      	ldr	r3, [r3, #4]
 80082be:	b10b      	cbz	r3, 80082c4 <_free_r+0x4c>
 80082c0:	42a3      	cmp	r3, r4
 80082c2:	d9fa      	bls.n	80082ba <_free_r+0x42>
 80082c4:	6811      	ldr	r1, [r2, #0]
 80082c6:	1850      	adds	r0, r2, r1
 80082c8:	42a0      	cmp	r0, r4
 80082ca:	d10b      	bne.n	80082e4 <_free_r+0x6c>
 80082cc:	6820      	ldr	r0, [r4, #0]
 80082ce:	4401      	add	r1, r0
 80082d0:	1850      	adds	r0, r2, r1
 80082d2:	4283      	cmp	r3, r0
 80082d4:	6011      	str	r1, [r2, #0]
 80082d6:	d1e0      	bne.n	800829a <_free_r+0x22>
 80082d8:	6818      	ldr	r0, [r3, #0]
 80082da:	685b      	ldr	r3, [r3, #4]
 80082dc:	4408      	add	r0, r1
 80082de:	6010      	str	r0, [r2, #0]
 80082e0:	6053      	str	r3, [r2, #4]
 80082e2:	e7da      	b.n	800829a <_free_r+0x22>
 80082e4:	d902      	bls.n	80082ec <_free_r+0x74>
 80082e6:	230c      	movs	r3, #12
 80082e8:	602b      	str	r3, [r5, #0]
 80082ea:	e7d6      	b.n	800829a <_free_r+0x22>
 80082ec:	6820      	ldr	r0, [r4, #0]
 80082ee:	1821      	adds	r1, r4, r0
 80082f0:	428b      	cmp	r3, r1
 80082f2:	bf01      	itttt	eq
 80082f4:	6819      	ldreq	r1, [r3, #0]
 80082f6:	685b      	ldreq	r3, [r3, #4]
 80082f8:	1809      	addeq	r1, r1, r0
 80082fa:	6021      	streq	r1, [r4, #0]
 80082fc:	6063      	str	r3, [r4, #4]
 80082fe:	6054      	str	r4, [r2, #4]
 8008300:	e7cb      	b.n	800829a <_free_r+0x22>
 8008302:	bd38      	pop	{r3, r4, r5, pc}
 8008304:	20000c24 	.word	0x20000c24

08008308 <malloc>:
 8008308:	4b02      	ldr	r3, [pc, #8]	@ (8008314 <malloc+0xc>)
 800830a:	4601      	mov	r1, r0
 800830c:	6818      	ldr	r0, [r3, #0]
 800830e:	f000 b825 	b.w	800835c <_malloc_r>
 8008312:	bf00      	nop
 8008314:	20000114 	.word	0x20000114

08008318 <sbrk_aligned>:
 8008318:	b570      	push	{r4, r5, r6, lr}
 800831a:	4e0f      	ldr	r6, [pc, #60]	@ (8008358 <sbrk_aligned+0x40>)
 800831c:	460c      	mov	r4, r1
 800831e:	6831      	ldr	r1, [r6, #0]
 8008320:	4605      	mov	r5, r0
 8008322:	b911      	cbnz	r1, 800832a <sbrk_aligned+0x12>
 8008324:	f001 fd8c 	bl	8009e40 <_sbrk_r>
 8008328:	6030      	str	r0, [r6, #0]
 800832a:	4621      	mov	r1, r4
 800832c:	4628      	mov	r0, r5
 800832e:	f001 fd87 	bl	8009e40 <_sbrk_r>
 8008332:	1c43      	adds	r3, r0, #1
 8008334:	d103      	bne.n	800833e <sbrk_aligned+0x26>
 8008336:	f04f 34ff 	mov.w	r4, #4294967295
 800833a:	4620      	mov	r0, r4
 800833c:	bd70      	pop	{r4, r5, r6, pc}
 800833e:	1cc4      	adds	r4, r0, #3
 8008340:	f024 0403 	bic.w	r4, r4, #3
 8008344:	42a0      	cmp	r0, r4
 8008346:	d0f8      	beq.n	800833a <sbrk_aligned+0x22>
 8008348:	1a21      	subs	r1, r4, r0
 800834a:	4628      	mov	r0, r5
 800834c:	f001 fd78 	bl	8009e40 <_sbrk_r>
 8008350:	3001      	adds	r0, #1
 8008352:	d1f2      	bne.n	800833a <sbrk_aligned+0x22>
 8008354:	e7ef      	b.n	8008336 <sbrk_aligned+0x1e>
 8008356:	bf00      	nop
 8008358:	20000c20 	.word	0x20000c20

0800835c <_malloc_r>:
 800835c:	e92d 43f8 	stmdb	sp!, {r3, r4, r5, r6, r7, r8, r9, lr}
 8008360:	1ccd      	adds	r5, r1, #3
 8008362:	f025 0503 	bic.w	r5, r5, #3
 8008366:	3508      	adds	r5, #8
 8008368:	2d0c      	cmp	r5, #12
 800836a:	bf38      	it	cc
 800836c:	250c      	movcc	r5, #12
 800836e:	2d00      	cmp	r5, #0
 8008370:	4606      	mov	r6, r0
 8008372:	db01      	blt.n	8008378 <_malloc_r+0x1c>
 8008374:	42a9      	cmp	r1, r5
 8008376:	d904      	bls.n	8008382 <_malloc_r+0x26>
 8008378:	230c      	movs	r3, #12
 800837a:	6033      	str	r3, [r6, #0]
 800837c:	2000      	movs	r0, #0
 800837e:	e8bd 83f8 	ldmia.w	sp!, {r3, r4, r5, r6, r7, r8, r9, pc}
 8008382:	f8df 80d4 	ldr.w	r8, [pc, #212]	@ 8008458 <_malloc_r+0xfc>
 8008386:	f000 f869 	bl	800845c <__malloc_lock>
 800838a:	f8d8 3000 	ldr.w	r3, [r8]
 800838e:	461c      	mov	r4, r3
 8008390:	bb44      	cbnz	r4, 80083e4 <_malloc_r+0x88>
 8008392:	4629      	mov	r1, r5
 8008394:	4630      	mov	r0, r6
 8008396:	f7ff ffbf 	bl	8008318 <sbrk_aligned>
 800839a:	1c43      	adds	r3, r0, #1
 800839c:	4604      	mov	r4, r0
 800839e:	d158      	bne.n	8008452 <_malloc_r+0xf6>
 80083a0:	f8d8 4000 	ldr.w	r4, [r8]
 80083a4:	4627      	mov	r7, r4
 80083a6:	2f00      	cmp	r7, #0
 80083a8:	d143      	bne.n	8008432 <_malloc_r+0xd6>
 80083aa:	2c00      	cmp	r4, #0
 80083ac:	d04b      	beq.n	8008446 <_malloc_r+0xea>
 80083ae:	6823      	ldr	r3, [r4, #0]
 80083b0:	4639      	mov	r1, r7
 80083b2:	4630      	mov	r0, r6
 80083b4:	eb04 0903 	add.w	r9, r4, r3
 80083b8:	f001 fd42 	bl	8009e40 <_sbrk_r>
 80083bc:	4581      	cmp	r9, r0
 80083be:	d142      	bne.n	8008446 <_malloc_r+0xea>
 80083c0:	6821      	ldr	r1, [r4, #0]
 80083c2:	4630      	mov	r0, r6
 80083c4:	1a6d      	subs	r5, r5, r1
 80083c6:	4629      	mov	r1, r5
 80083c8:	f7ff ffa6 	bl	8008318 <sbrk_aligned>
 80083cc:	3001      	adds	r0, #1
 80083ce:	d03a      	beq.n	8008446 <_malloc_r+0xea>
 80083d0:	6823      	ldr	r3, [r4, #0]
 80083d2:	442b      	add	r3, r5
 80083d4:	6023      	str	r3, [r4, #0]
 80083d6:	f8d8 3000 	ldr.w	r3, [r8]
 80083da:	685a      	ldr	r2, [r3, #4]
 80083dc:	bb62      	cbnz	r2, 8008438 <_malloc_r+0xdc>
 80083de:	f8c8 7000 	str.w	r7, [r8]
 80083e2:	e00f      	b.n	8008404 <_malloc_r+0xa8>
 80083e4:	6822      	ldr	r2, [r4, #0]
 80083e6:	1b52      	subs	r2, r2, r5
 80083e8:	d420      	bmi.n	800842c <_malloc_r+0xd0>
 80083ea:	2a0b      	cmp	r2, #11
 80083ec:	d917      	bls.n	800841e <_malloc_r+0xc2>
 80083ee:	1961      	adds	r1, r4, r5
 80083f0:	42a3      	cmp	r3, r4
 80083f2:	6025      	str	r5, [r4, #0]
 80083f4:	bf18      	it	ne
 80083f6:	6059      	strne	r1, [r3, #4]
 80083f8:	6863      	ldr	r3, [r4, #4]
 80083fa:	bf08      	it	eq
 80083fc:	f8c8 1000 	streq.w	r1, [r8]
 8008400:	5162      	str	r2, [r4, r5]
 8008402:	604b      	str	r3, [r1, #4]
 8008404:	4630      	mov	r0, r6
 8008406:	f000 f82f 	bl	8008468 <__malloc_unlock>
 800840a:	f104 000b 	add.w	r0, r4, #11
 800840e:	1d23      	adds	r3, r4, #4
 8008410:	f020 0007 	bic.w	r0, r0, #7
 8008414:	1ac2      	subs	r2, r0, r3
 8008416:	bf1c      	itt	ne
 8008418:	1a1b      	subne	r3, r3, r0
 800841a:	50a3      	strne	r3, [r4, r2]
 800841c:	e7af      	b.n	800837e <_malloc_r+0x22>
 800841e:	6862      	ldr	r2, [r4, #4]
 8008420:	42a3      	cmp	r3, r4
 8008422:	bf0c      	ite	eq
 8008424:	f8c8 2000 	streq.w	r2, [r8]
 8008428:	605a      	strne	r2, [r3, #4]
 800842a:	e7eb      	b.n	8008404 <_malloc_r+0xa8>
 800842c:	4623      	mov	r3, r4
 800842e:	6864      	ldr	r4, [r4, #4]
 8008430:	e7ae      	b.n	8008390 <_malloc_r+0x34>
 8008432:	463c      	mov	r4, r7
 8008434:	687f      	ldr	r7, [r7, #4]
 8008436:	e7b6      	b.n	80083a6 <_malloc_r+0x4a>
 8008438:	461a      	mov	r2, r3
 800843a:	685b      	ldr	r3, [r3, #4]
 800843c:	42a3      	cmp	r3, r4
 800843e:	d1fb      	bne.n	8008438 <_malloc_r+0xdc>
 8008440:	2300      	movs	r3, #0
 8008442:	6053      	str	r3, [r2, #4]
 8008444:	e7de      	b.n	8008404 <_malloc_r+0xa8>
 8008446:	230c      	movs	r3, #12
 8008448:	4630      	mov	r0, r6
 800844a:	6033      	str	r3, [r6, #0]
 800844c:	f000 f80c 	bl	8008468 <__malloc_unlock>
 8008450:	e794      	b.n	800837c <_malloc_r+0x20>
 8008452:	6005      	str	r5, [r0, #0]
 8008454:	e7d6      	b.n	8008404 <_malloc_r+0xa8>
 8008456:	bf00      	nop
 8008458:	20000c24 	.word	0x20000c24

0800845c <__malloc_lock>:
 800845c:	4801      	ldr	r0, [pc, #4]	@ (8008464 <__malloc_lock+0x8>)
 800845e:	f7ff b872 	b.w	8007546 <__retarget_lock_acquire_recursive>
 8008462:	bf00      	nop
 8008464:	20000c1c 	.word	0x20000c1c

08008468 <__malloc_unlock>:
 8008468:	4801      	ldr	r0, [pc, #4]	@ (8008470 <__malloc_unlock+0x8>)
 800846a:	f7ff b86d 	b.w	8007548 <__retarget_lock_release_recursive>
 800846e:	bf00      	nop
 8008470:	20000c1c 	.word	0x20000c1c

08008474 <_Balloc>:
 8008474:	b570      	push	{r4, r5, r6, lr}
 8008476:	69c6      	ldr	r6, [r0, #28]
 8008478:	4604      	mov	r4, r0
 800847a:	460d      	mov	r5, r1
 800847c:	b976      	cbnz	r6, 800849c <_Balloc+0x28>
 800847e:	2010      	movs	r0, #16
 8008480:	f7ff ff42 	bl	8008308 <malloc>
 8008484:	4602      	mov	r2, r0
 8008486:	61e0      	str	r0, [r4, #28]
 8008488:	b920      	cbnz	r0, 8008494 <_Balloc+0x20>
 800848a:	216b      	movs	r1, #107	@ 0x6b
 800848c:	4b17      	ldr	r3, [pc, #92]	@ (80084ec <_Balloc+0x78>)
 800848e:	4818      	ldr	r0, [pc, #96]	@ (80084f0 <_Balloc+0x7c>)
 8008490:	f7ff f884 	bl	800759c <__assert_func>
 8008494:	e9c0 6601 	strd	r6, r6, [r0, #4]
 8008498:	6006      	str	r6, [r0, #0]
 800849a:	60c6      	str	r6, [r0, #12]
 800849c:	69e6      	ldr	r6, [r4, #28]
 800849e:	68f3      	ldr	r3, [r6, #12]
 80084a0:	b183      	cbz	r3, 80084c4 <_Balloc+0x50>
 80084a2:	69e3      	ldr	r3, [r4, #28]
 80084a4:	68db      	ldr	r3, [r3, #12]
 80084a6:	f853 0025 	ldr.w	r0, [r3, r5, lsl #2]
 80084aa:	b9b8      	cbnz	r0, 80084dc <_Balloc+0x68>
 80084ac:	2101      	movs	r1, #1
 80084ae:	fa01 f605 	lsl.w	r6, r1, r5
 80084b2:	1d72      	adds	r2, r6, #5
 80084b4:	4620      	mov	r0, r4
 80084b6:	0092      	lsls	r2, r2, #2
 80084b8:	f001 fcdf 	bl	8009e7a <_calloc_r>
 80084bc:	b160      	cbz	r0, 80084d8 <_Balloc+0x64>
 80084be:	e9c0 5601 	strd	r5, r6, [r0, #4]
 80084c2:	e00e      	b.n	80084e2 <_Balloc+0x6e>
 80084c4:	2221      	movs	r2, #33	@ 0x21
 80084c6:	2104      	movs	r1, #4
 80084c8:	4620      	mov	r0, r4
 80084ca:	f001 fcd6 	bl	8009e7a <_calloc_r>
 80084ce:	69e3      	ldr	r3, [r4, #28]
 80084d0:	60f0      	str	r0, [r6, #12]
 80084d2:	68db      	ldr	r3, [r3, #12]
 80084d4:	2b00      	cmp	r3, #0
 80084d6:	d1e4      	bne.n	80084a2 <_Balloc+0x2e>
 80084d8:	2000      	movs	r0, #0
 80084da:	bd70      	pop	{r4, r5, r6, pc}
 80084dc:	6802      	ldr	r2, [r0, #0]
 80084de:	f843 2025 	str.w	r2, [r3, r5, lsl #2]
 80084e2:	2300      	movs	r3, #0
 80084e4:	e9c0 3303 	strd	r3, r3, [r0, #12]
 80084e8:	e7f7      	b.n	80084da <_Balloc+0x66>
 80084ea:	bf00      	nop
 80084ec:	0800c9e6 	.word	0x0800c9e6
 80084f0:	0800cb09 	.word	0x0800cb09

080084f4 <_Bfree>:
 80084f4:	b570      	push	{r4, r5, r6, lr}
 80084f6:	69c6      	ldr	r6, [r0, #28]
 80084f8:	4605      	mov	r5, r0
 80084fa:	460c      	mov	r4, r1
 80084fc:	b976      	cbnz	r6, 800851c <_Bfree+0x28>
 80084fe:	2010      	movs	r0, #16
 8008500:	f7ff ff02 	bl	8008308 <malloc>
 8008504:	4602      	mov	r2, r0
 8008506:	61e8      	str	r0, [r5, #28]
 8008508:	b920      	cbnz	r0, 8008514 <_Bfree+0x20>
 800850a:	218f      	movs	r1, #143	@ 0x8f
 800850c:	4b08      	ldr	r3, [pc, #32]	@ (8008530 <_Bfree+0x3c>)
 800850e:	4809      	ldr	r0, [pc, #36]	@ (8008534 <_Bfree+0x40>)
 8008510:	f7ff f844 	bl	800759c <__assert_func>
 8008514:	e9c0 6601 	strd	r6, r6, [r0, #4]
 8008518:	6006      	str	r6, [r0, #0]
 800851a:	60c6      	str	r6, [r0, #12]
 800851c:	b13c      	cbz	r4, 800852e <_Bfree+0x3a>
 800851e:	69eb      	ldr	r3, [r5, #28]
 8008520:	6862      	ldr	r2, [r4, #4]
 8008522:	68db      	ldr	r3, [r3, #12]
 8008524:	f853 1022 	ldr.w	r1, [r3, r2, lsl #2]
 8008528:	6021      	str	r1, [r4, #0]
 800852a:	f843 4022 	str.w	r4, [r3, r2, lsl #2]
 800852e:	bd70      	pop	{r4, r5, r6, pc}
 8008530:	0800c9e6 	.word	0x0800c9e6
 8008534:	0800cb09 	.word	0x0800cb09

08008538 <__multadd>:
 8008538:	e92d 41f0 	stmdb	sp!, {r4, r5, r6, r7, r8, lr}
 800853c:	4607      	mov	r7, r0
 800853e:	460c      	mov	r4, r1
 8008540:	461e      	mov	r6, r3
 8008542:	2000      	movs	r0, #0
 8008544:	690d      	ldr	r5, [r1, #16]
 8008546:	f101 0c14 	add.w	ip, r1, #20
 800854a:	f8dc 3000 	ldr.w	r3, [ip]
 800854e:	3001      	adds	r0, #1
 8008550:	b299      	uxth	r1, r3
 8008552:	fb02 6101 	mla	r1, r2, r1, r6
 8008556:	0c1e      	lsrs	r6, r3, #16
 8008558:	0c0b      	lsrs	r3, r1, #16
 800855a:	fb02 3306 	mla	r3, r2, r6, r3
 800855e:	b289      	uxth	r1, r1
 8008560:	eb01 4103 	add.w	r1, r1, r3, lsl #16
 8008564:	4285      	cmp	r5, r0
 8008566:	ea4f 4613 	mov.w	r6, r3, lsr #16
 800856a:	f84c 1b04 	str.w	r1, [ip], #4
 800856e:	dcec      	bgt.n	800854a <__multadd+0x12>
 8008570:	b30e      	cbz	r6, 80085b6 <__multadd+0x7e>
 8008572:	68a3      	ldr	r3, [r4, #8]
 8008574:	42ab      	cmp	r3, r5
 8008576:	dc19      	bgt.n	80085ac <__multadd+0x74>
 8008578:	6861      	ldr	r1, [r4, #4]
 800857a:	4638      	mov	r0, r7
 800857c:	3101      	adds	r1, #1
 800857e:	f7ff ff79 	bl	8008474 <_Balloc>
 8008582:	4680      	mov	r8, r0
 8008584:	b928      	cbnz	r0, 8008592 <__multadd+0x5a>
 8008586:	4602      	mov	r2, r0
 8008588:	21ba      	movs	r1, #186	@ 0xba
 800858a:	4b0c      	ldr	r3, [pc, #48]	@ (80085bc <__multadd+0x84>)
 800858c:	480c      	ldr	r0, [pc, #48]	@ (80085c0 <__multadd+0x88>)
 800858e:	f7ff f805 	bl	800759c <__assert_func>
 8008592:	6922      	ldr	r2, [r4, #16]
 8008594:	f104 010c 	add.w	r1, r4, #12
 8008598:	3202      	adds	r2, #2
 800859a:	0092      	lsls	r2, r2, #2
 800859c:	300c      	adds	r0, #12
 800859e:	f7fe ffea 	bl	8007576 <memcpy>
 80085a2:	4621      	mov	r1, r4
 80085a4:	4638      	mov	r0, r7
 80085a6:	f7ff ffa5 	bl	80084f4 <_Bfree>
 80085aa:	4644      	mov	r4, r8
 80085ac:	eb04 0385 	add.w	r3, r4, r5, lsl #2
 80085b0:	3501      	adds	r5, #1
 80085b2:	615e      	str	r6, [r3, #20]
 80085b4:	6125      	str	r5, [r4, #16]
 80085b6:	4620      	mov	r0, r4
 80085b8:	e8bd 81f0 	ldmia.w	sp!, {r4, r5, r6, r7, r8, pc}
 80085bc:	0800caf8 	.word	0x0800caf8
 80085c0:	0800cb09 	.word	0x0800cb09

080085c4 <__s2b>:
 80085c4:	e92d 43f8 	stmdb	sp!, {r3, r4, r5, r6, r7, r8, r9, lr}
 80085c8:	4615      	mov	r5, r2
 80085ca:	2209      	movs	r2, #9
 80085cc:	461f      	mov	r7, r3
 80085ce:	3308      	adds	r3, #8
 80085d0:	460c      	mov	r4, r1
 80085d2:	fb93 f3f2 	sdiv	r3, r3, r2
 80085d6:	4606      	mov	r6, r0
 80085d8:	2201      	movs	r2, #1
 80085da:	2100      	movs	r1, #0
 80085dc:	429a      	cmp	r2, r3
 80085de:	db09      	blt.n	80085f4 <__s2b+0x30>
 80085e0:	4630      	mov	r0, r6
 80085e2:	f7ff ff47 	bl	8008474 <_Balloc>
 80085e6:	b940      	cbnz	r0, 80085fa <__s2b+0x36>
 80085e8:	4602      	mov	r2, r0
 80085ea:	21d3      	movs	r1, #211	@ 0xd3
 80085ec:	4b18      	ldr	r3, [pc, #96]	@ (8008650 <__s2b+0x8c>)
 80085ee:	4819      	ldr	r0, [pc, #100]	@ (8008654 <__s2b+0x90>)
 80085f0:	f7fe ffd4 	bl	800759c <__assert_func>
 80085f4:	0052      	lsls	r2, r2, #1
 80085f6:	3101      	adds	r1, #1
 80085f8:	e7f0      	b.n	80085dc <__s2b+0x18>
 80085fa:	9b08      	ldr	r3, [sp, #32]
 80085fc:	2d09      	cmp	r5, #9
 80085fe:	6143      	str	r3, [r0, #20]
 8008600:	f04f 0301 	mov.w	r3, #1
 8008604:	6103      	str	r3, [r0, #16]
 8008606:	dd16      	ble.n	8008636 <__s2b+0x72>
 8008608:	f104 0909 	add.w	r9, r4, #9
 800860c:	46c8      	mov	r8, r9
 800860e:	442c      	add	r4, r5
 8008610:	f818 3b01 	ldrb.w	r3, [r8], #1
 8008614:	4601      	mov	r1, r0
 8008616:	220a      	movs	r2, #10
 8008618:	4630      	mov	r0, r6
 800861a:	3b30      	subs	r3, #48	@ 0x30
 800861c:	f7ff ff8c 	bl	8008538 <__multadd>
 8008620:	45a0      	cmp	r8, r4
 8008622:	d1f5      	bne.n	8008610 <__s2b+0x4c>
 8008624:	f1a5 0408 	sub.w	r4, r5, #8
 8008628:	444c      	add	r4, r9
 800862a:	1b2d      	subs	r5, r5, r4
 800862c:	1963      	adds	r3, r4, r5
 800862e:	42bb      	cmp	r3, r7
 8008630:	db04      	blt.n	800863c <__s2b+0x78>
 8008632:	e8bd 83f8 	ldmia.w	sp!, {r3, r4, r5, r6, r7, r8, r9, pc}
 8008636:	2509      	movs	r5, #9
 8008638:	340a      	adds	r4, #10
 800863a:	e7f6      	b.n	800862a <__s2b+0x66>
 800863c:	f814 3b01 	ldrb.w	r3, [r4], #1
 8008640:	4601      	mov	r1, r0
 8008642:	220a      	movs	r2, #10
 8008644:	4630      	mov	r0, r6
 8008646:	3b30      	subs	r3, #48	@ 0x30
 8008648:	f7ff ff76 	bl	8008538 <__multadd>
 800864c:	e7ee      	b.n	800862c <__s2b+0x68>
 800864e:	bf00      	nop
 8008650:	0800caf8 	.word	0x0800caf8
 8008654:	0800cb09 	.word	0x0800cb09

08008658 <__hi0bits>:
 8008658:	4603      	mov	r3, r0
 800865a:	f5b0 3f80 	cmp.w	r0, #65536	@ 0x10000
 800865e:	bf3a      	itte	cc
 8008660:	0403      	lslcc	r3, r0, #16
 8008662:	2010      	movcc	r0, #16
 8008664:	2000      	movcs	r0, #0
 8008666:	f1b3 7f80 	cmp.w	r3, #16777216	@ 0x1000000
 800866a:	bf3c      	itt	cc
 800866c:	021b      	lslcc	r3, r3, #8
 800866e:	3008      	addcc	r0, #8
 8008670:	f1b3 5f80 	cmp.w	r3, #268435456	@ 0x10000000
 8008674:	bf3c      	itt	cc
 8008676:	011b      	lslcc	r3, r3, #4
 8008678:	3004      	addcc	r0, #4
 800867a:	f1b3 4f80 	cmp.w	r3, #1073741824	@ 0x40000000
 800867e:	bf3c      	itt	cc
 8008680:	009b      	lslcc	r3, r3, #2
 8008682:	3002      	addcc	r0, #2
 8008684:	2b00      	cmp	r3, #0
 8008686:	db05      	blt.n	8008694 <__hi0bits+0x3c>
 8008688:	f013 4f80 	tst.w	r3, #1073741824	@ 0x40000000
 800868c:	f100 0001 	add.w	r0, r0, #1
 8008690:	bf08      	it	eq
 8008692:	2020      	moveq	r0, #32
 8008694:	4770      	bx	lr

08008696 <__lo0bits>:
 8008696:	6803      	ldr	r3, [r0, #0]
 8008698:	4602      	mov	r2, r0
 800869a:	f013 0007 	ands.w	r0, r3, #7
 800869e:	d00b      	beq.n	80086b8 <__lo0bits+0x22>
 80086a0:	07d9      	lsls	r1, r3, #31
 80086a2:	d421      	bmi.n	80086e8 <__lo0bits+0x52>
 80086a4:	0798      	lsls	r0, r3, #30
 80086a6:	bf49      	itett	mi
 80086a8:	085b      	lsrmi	r3, r3, #1
 80086aa:	089b      	lsrpl	r3, r3, #2
 80086ac:	2001      	movmi	r0, #1
 80086ae:	6013      	strmi	r3, [r2, #0]
 80086b0:	bf5c      	itt	pl
 80086b2:	2002      	movpl	r0, #2
 80086b4:	6013      	strpl	r3, [r2, #0]
 80086b6:	4770      	bx	lr
 80086b8:	b299      	uxth	r1, r3
 80086ba:	b909      	cbnz	r1, 80086c0 <__lo0bits+0x2a>
 80086bc:	2010      	movs	r0, #16
 80086be:	0c1b      	lsrs	r3, r3, #16
 80086c0:	b2d9      	uxtb	r1, r3
 80086c2:	b909      	cbnz	r1, 80086c8 <__lo0bits+0x32>
 80086c4:	3008      	adds	r0, #8
 80086c6:	0a1b      	lsrs	r3, r3, #8
 80086c8:	0719      	lsls	r1, r3, #28
 80086ca:	bf04      	itt	eq
 80086cc:	091b      	lsreq	r3, r3, #4
 80086ce:	3004      	addeq	r0, #4
 80086d0:	0799      	lsls	r1, r3, #30
 80086d2:	bf04      	itt	eq
 80086d4:	089b      	lsreq	r3, r3, #2
 80086d6:	3002      	addeq	r0, #2
 80086d8:	07d9      	lsls	r1, r3, #31
 80086da:	d403      	bmi.n	80086e4 <__lo0bits+0x4e>
 80086dc:	085b      	lsrs	r3, r3, #1
 80086de:	f100 0001 	add.w	r0, r0, #1
 80086e2:	d003      	beq.n	80086ec <__lo0bits+0x56>
 80086e4:	6013      	str	r3, [r2, #0]
 80086e6:	4770      	bx	lr
 80086e8:	2000      	movs	r0, #0
 80086ea:	4770      	bx	lr
 80086ec:	2020      	movs	r0, #32
 80086ee:	4770      	bx	lr

080086f0 <__i2b>:
 80086f0:	b510      	push	{r4, lr}
 80086f2:	460c      	mov	r4, r1
 80086f4:	2101      	movs	r1, #1
 80086f6:	f7ff febd 	bl	8008474 <_Balloc>
 80086fa:	4602      	mov	r2, r0
 80086fc:	b928      	cbnz	r0, 800870a <__i2b+0x1a>
 80086fe:	f240 1145 	movw	r1, #325	@ 0x145
 8008702:	4b04      	ldr	r3, [pc, #16]	@ (8008714 <__i2b+0x24>)
 8008704:	4804      	ldr	r0, [pc, #16]	@ (8008718 <__i2b+0x28>)
 8008706:	f7fe ff49 	bl	800759c <__assert_func>
 800870a:	2301      	movs	r3, #1
 800870c:	6144      	str	r4, [r0, #20]
 800870e:	6103      	str	r3, [r0, #16]
 8008710:	bd10      	pop	{r4, pc}
 8008712:	bf00      	nop
 8008714:	0800caf8 	.word	0x0800caf8
 8008718:	0800cb09 	.word	0x0800cb09

0800871c <__multiply>:
 800871c:	e92d 4ff0 	stmdb	sp!, {r4, r5, r6, r7, r8, r9, sl, fp, lr}
 8008720:	4614      	mov	r4, r2
 8008722:	690a      	ldr	r2, [r1, #16]
 8008724:	6923      	ldr	r3, [r4, #16]
 8008726:	460f      	mov	r7, r1
 8008728:	429a      	cmp	r2, r3
 800872a:	bfa2      	ittt	ge
 800872c:	4623      	movge	r3, r4
 800872e:	460c      	movge	r4, r1
 8008730:	461f      	movge	r7, r3
 8008732:	f8d4 a010 	ldr.w	sl, [r4, #16]
 8008736:	f8d7 9010 	ldr.w	r9, [r7, #16]
 800873a:	68a3      	ldr	r3, [r4, #8]
 800873c:	6861      	ldr	r1, [r4, #4]
 800873e:	eb0a 0609 	add.w	r6, sl, r9
 8008742:	42b3      	cmp	r3, r6
 8008744:	b085      	sub	sp, #20
 8008746:	bfb8      	it	lt
 8008748:	3101      	addlt	r1, #1
 800874a:	f7ff fe93 	bl	8008474 <_Balloc>
 800874e:	b930      	cbnz	r0, 800875e <__multiply+0x42>
 8008750:	4602      	mov	r2, r0
 8008752:	f44f 71b1 	mov.w	r1, #354	@ 0x162
 8008756:	4b43      	ldr	r3, [pc, #268]	@ (8008864 <__multiply+0x148>)
 8008758:	4843      	ldr	r0, [pc, #268]	@ (8008868 <__multiply+0x14c>)
 800875a:	f7fe ff1f 	bl	800759c <__assert_func>
 800875e:	f100 0514 	add.w	r5, r0, #20
 8008762:	462b      	mov	r3, r5
 8008764:	2200      	movs	r2, #0
 8008766:	eb05 0886 	add.w	r8, r5, r6, lsl #2
 800876a:	4543      	cmp	r3, r8
 800876c:	d321      	bcc.n	80087b2 <__multiply+0x96>
 800876e:	f107 0114 	add.w	r1, r7, #20
 8008772:	f104 0214 	add.w	r2, r4, #20
 8008776:	eb02 028a 	add.w	r2, r2, sl, lsl #2
 800877a:	eb01 0389 	add.w	r3, r1, r9, lsl #2
 800877e:	9302      	str	r3, [sp, #8]
 8008780:	1b13      	subs	r3, r2, r4
 8008782:	3b15      	subs	r3, #21
 8008784:	f023 0303 	bic.w	r3, r3, #3
 8008788:	3304      	adds	r3, #4
 800878a:	f104 0715 	add.w	r7, r4, #21
 800878e:	42ba      	cmp	r2, r7
 8008790:	bf38      	it	cc
 8008792:	2304      	movcc	r3, #4
 8008794:	9301      	str	r3, [sp, #4]
 8008796:	9b02      	ldr	r3, [sp, #8]
 8008798:	9103      	str	r1, [sp, #12]
 800879a:	428b      	cmp	r3, r1
 800879c:	d80c      	bhi.n	80087b8 <__multiply+0x9c>
 800879e:	2e00      	cmp	r6, #0
 80087a0:	dd03      	ble.n	80087aa <__multiply+0x8e>
 80087a2:	f858 3d04 	ldr.w	r3, [r8, #-4]!
 80087a6:	2b00      	cmp	r3, #0
 80087a8:	d05a      	beq.n	8008860 <__multiply+0x144>
 80087aa:	6106      	str	r6, [r0, #16]
 80087ac:	b005      	add	sp, #20
 80087ae:	e8bd 8ff0 	ldmia.w	sp!, {r4, r5, r6, r7, r8, r9, sl, fp, pc}
 80087b2:	f843 2b04 	str.w	r2, [r3], #4
 80087b6:	e7d8      	b.n	800876a <__multiply+0x4e>
 80087b8:	f8b1 a000 	ldrh.w	sl, [r1]
 80087bc:	f1ba 0f00 	cmp.w	sl, #0
 80087c0:	d023      	beq.n	800880a <__multiply+0xee>
 80087c2:	46a9      	mov	r9, r5
 80087c4:	f04f 0c00 	mov.w	ip, #0
 80087c8:	f104 0e14 	add.w	lr, r4, #20
 80087cc:	f85e 7b04 	ldr.w	r7, [lr], #4
 80087d0:	f8d9 3000 	ldr.w	r3, [r9]
 80087d4:	fa1f fb87 	uxth.w	fp, r7
 80087d8:	b29b      	uxth	r3, r3
 80087da:	fb0a 330b 	mla	r3, sl, fp, r3
 80087de:	4463      	add	r3, ip
 80087e0:	f8d9 c000 	ldr.w	ip, [r9]
 80087e4:	0c3f      	lsrs	r7, r7, #16
 80087e6:	ea4f 4c1c 	mov.w	ip, ip, lsr #16
 80087ea:	fb0a c707 	mla	r7, sl, r7, ip
 80087ee:	eb07 4713 	add.w	r7, r7, r3, lsr #16
 80087f2:	b29b      	uxth	r3, r3
 80087f4:	ea43 4307 	orr.w	r3, r3, r7, lsl #16
 80087f8:	4572      	cmp	r2, lr
 80087fa:	ea4f 4c17 	mov.w	ip, r7, lsr #16
 80087fe:	f849 3b04 	str.w	r3, [r9], #4
 8008802:	d8e3      	bhi.n	80087cc <__multiply+0xb0>
 8008804:	9b01      	ldr	r3, [sp, #4]
 8008806:	f845 c003 	str.w	ip, [r5, r3]
 800880a:	9b03      	ldr	r3, [sp, #12]
 800880c:	3104      	adds	r1, #4
 800880e:	f8b3 9002 	ldrh.w	r9, [r3, #2]
 8008812:	f1b9 0f00 	cmp.w	r9, #0
 8008816:	d021      	beq.n	800885c <__multiply+0x140>
 8008818:	46ae      	mov	lr, r5
 800881a:	f04f 0a00 	mov.w	sl, #0
 800881e:	682b      	ldr	r3, [r5, #0]
 8008820:	f104 0c14 	add.w	ip, r4, #20
 8008824:	f8bc b000 	ldrh.w	fp, [ip]
 8008828:	f8be 7002 	ldrh.w	r7, [lr, #2]
 800882c:	b29b      	uxth	r3, r3
 800882e:	fb09 770b 	mla	r7, r9, fp, r7
 8008832:	4457      	add	r7, sl
 8008834:	ea43 4307 	orr.w	r3, r3, r7, lsl #16
 8008838:	f84e 3b04 	str.w	r3, [lr], #4
 800883c:	f85c 3b04 	ldr.w	r3, [ip], #4
 8008840:	ea4f 4a13 	mov.w	sl, r3, lsr #16
 8008844:	f8be 3000 	ldrh.w	r3, [lr]
 8008848:	4562      	cmp	r2, ip
 800884a:	fb09 330a 	mla	r3, r9, sl, r3
 800884e:	eb03 4317 	add.w	r3, r3, r7, lsr #16
 8008852:	ea4f 4a13 	mov.w	sl, r3, lsr #16
 8008856:	d8e5      	bhi.n	8008824 <__multiply+0x108>
 8008858:	9f01      	ldr	r7, [sp, #4]
 800885a:	51eb      	str	r3, [r5, r7]
 800885c:	3504      	adds	r5, #4
 800885e:	e79a      	b.n	8008796 <__multiply+0x7a>
 8008860:	3e01      	subs	r6, #1
 8008862:	e79c      	b.n	800879e <__multiply+0x82>
 8008864:	0800caf8 	.word	0x0800caf8
 8008868:	0800cb09 	.word	0x0800cb09

0800886c <__pow5mult>:
 800886c:	e92d 43f8 	stmdb	sp!, {r3, r4, r5, r6, r7, r8, r9, lr}
 8008870:	4615      	mov	r5, r2
 8008872:	f012 0203 	ands.w	r2, r2, #3
 8008876:	4607      	mov	r7, r0
 8008878:	460e      	mov	r6, r1
 800887a:	d007      	beq.n	800888c <__pow5mult+0x20>
 800887c:	4c25      	ldr	r4, [pc, #148]	@ (8008914 <__pow5mult+0xa8>)
 800887e:	3a01      	subs	r2, #1
 8008880:	2300      	movs	r3, #0
 8008882:	f854 2022 	ldr.w	r2, [r4, r2, lsl #2]
 8008886:	f7ff fe57 	bl	8008538 <__multadd>
 800888a:	4606      	mov	r6, r0
 800888c:	10ad      	asrs	r5, r5, #2
 800888e:	d03d      	beq.n	800890c <__pow5mult+0xa0>
 8008890:	69fc      	ldr	r4, [r7, #28]
 8008892:	b97c      	cbnz	r4, 80088b4 <__pow5mult+0x48>
 8008894:	2010      	movs	r0, #16
 8008896:	f7ff fd37 	bl	8008308 <malloc>
 800889a:	4602      	mov	r2, r0
 800889c:	61f8      	str	r0, [r7, #28]
 800889e:	b928      	cbnz	r0, 80088ac <__pow5mult+0x40>
 80088a0:	f240 11b3 	movw	r1, #435	@ 0x1b3
 80088a4:	4b1c      	ldr	r3, [pc, #112]	@ (8008918 <__pow5mult+0xac>)
 80088a6:	481d      	ldr	r0, [pc, #116]	@ (800891c <__pow5mult+0xb0>)
 80088a8:	f7fe fe78 	bl	800759c <__assert_func>
 80088ac:	e9c0 4401 	strd	r4, r4, [r0, #4]
 80088b0:	6004      	str	r4, [r0, #0]
 80088b2:	60c4      	str	r4, [r0, #12]
 80088b4:	f8d7 801c 	ldr.w	r8, [r7, #28]
 80088b8:	f8d8 4008 	ldr.w	r4, [r8, #8]
 80088bc:	b94c      	cbnz	r4, 80088d2 <__pow5mult+0x66>
 80088be:	f240 2171 	movw	r1, #625	@ 0x271
 80088c2:	4638      	mov	r0, r7
 80088c4:	f7ff ff14 	bl	80086f0 <__i2b>
 80088c8:	2300      	movs	r3, #0
 80088ca:	4604      	mov	r4, r0
 80088cc:	f8c8 0008 	str.w	r0, [r8, #8]
 80088d0:	6003      	str	r3, [r0, #0]
 80088d2:	f04f 0900 	mov.w	r9, #0
 80088d6:	07eb      	lsls	r3, r5, #31
 80088d8:	d50a      	bpl.n	80088f0 <__pow5mult+0x84>
 80088da:	4631      	mov	r1, r6
 80088dc:	4622      	mov	r2, r4
 80088de:	4638      	mov	r0, r7
 80088e0:	f7ff ff1c 	bl	800871c <__multiply>
 80088e4:	4680      	mov	r8, r0
 80088e6:	4631      	mov	r1, r6
 80088e8:	4638      	mov	r0, r7
 80088ea:	f7ff fe03 	bl	80084f4 <_Bfree>
 80088ee:	4646      	mov	r6, r8
 80088f0:	106d      	asrs	r5, r5, #1
 80088f2:	d00b      	beq.n	800890c <__pow5mult+0xa0>
 80088f4:	6820      	ldr	r0, [r4, #0]
 80088f6:	b938      	cbnz	r0, 8008908 <__pow5mult+0x9c>
 80088f8:	4622      	mov	r2, r4
 80088fa:	4621      	mov	r1, r4
 80088fc:	4638      	mov	r0, r7
 80088fe:	f7ff ff0d 	bl	800871c <__multiply>
 8008902:	6020      	str	r0, [r4, #0]
 8008904:	f8c0 9000 	str.w	r9, [r0]
 8008908:	4604      	mov	r4, r0
 800890a:	e7e4      	b.n	80088d6 <__pow5mult+0x6a>
 800890c:	4630      	mov	r0, r6
 800890e:	e8bd 83f8 	ldmia.w	sp!, {r3, r4, r5, r6, r7, r8, r9, pc}
 8008912:	bf00      	nop
 8008914:	0800cb64 	.word	0x0800cb64
 8008918:	0800c9e6 	.word	0x0800c9e6
 800891c:	0800cb09 	.word	0x0800cb09

08008920 <__lshift>:
 8008920:	e92d 47f0 	stmdb	sp!, {r4, r5, r6, r7, r8, r9, sl, lr}
 8008924:	460c      	mov	r4, r1
 8008926:	4607      	mov	r7, r0
 8008928:	4691      	mov	r9, r2
 800892a:	6923      	ldr	r3, [r4, #16]
 800892c:	6849      	ldr	r1, [r1, #4]
 800892e:	eb03 1862 	add.w	r8, r3, r2, asr #5
 8008932:	68a3      	ldr	r3, [r4, #8]
 8008934:	ea4f 1a62 	mov.w	sl, r2, asr #5
 8008938:	f108 0601 	add.w	r6, r8, #1
 800893c:	42b3      	cmp	r3, r6
 800893e:	db0b      	blt.n	8008958 <__lshift+0x38>
 8008940:	4638      	mov	r0, r7
 8008942:	f7ff fd97 	bl	8008474 <_Balloc>
 8008946:	4605      	mov	r5, r0
 8008948:	b948      	cbnz	r0, 800895e <__lshift+0x3e>
 800894a:	4602      	mov	r2, r0
 800894c:	f44f 71ef 	mov.w	r1, #478	@ 0x1de
 8008950:	4b27      	ldr	r3, [pc, #156]	@ (80089f0 <__lshift+0xd0>)
 8008952:	4828      	ldr	r0, [pc, #160]	@ (80089f4 <__lshift+0xd4>)
 8008954:	f7fe fe22 	bl	800759c <__assert_func>
 8008958:	3101      	adds	r1, #1
 800895a:	005b      	lsls	r3, r3, #1
 800895c:	e7ee      	b.n	800893c <__lshift+0x1c>
 800895e:	2300      	movs	r3, #0
 8008960:	f100 0114 	add.w	r1, r0, #20
 8008964:	f100 0210 	add.w	r2, r0, #16
 8008968:	4618      	mov	r0, r3
 800896a:	4553      	cmp	r3, sl
 800896c:	db33      	blt.n	80089d6 <__lshift+0xb6>
 800896e:	6920      	ldr	r0, [r4, #16]
 8008970:	ea2a 7aea 	bic.w	sl, sl, sl, asr #31
 8008974:	f104 0314 	add.w	r3, r4, #20
 8008978:	f019 091f 	ands.w	r9, r9, #31
 800897c:	eb01 018a 	add.w	r1, r1, sl, lsl #2
 8008980:	eb03 0c80 	add.w	ip, r3, r0, lsl #2
 8008984:	d02b      	beq.n	80089de <__lshift+0xbe>
 8008986:	468a      	mov	sl, r1
 8008988:	2200      	movs	r2, #0
 800898a:	f1c9 0e20 	rsb	lr, r9, #32
 800898e:	6818      	ldr	r0, [r3, #0]
 8008990:	fa00 f009 	lsl.w	r0, r0, r9
 8008994:	4310      	orrs	r0, r2
 8008996:	f84a 0b04 	str.w	r0, [sl], #4
 800899a:	f853 2b04 	ldr.w	r2, [r3], #4
 800899e:	459c      	cmp	ip, r3
 80089a0:	fa22 f20e 	lsr.w	r2, r2, lr
 80089a4:	d8f3      	bhi.n	800898e <__lshift+0x6e>
 80089a6:	ebac 0304 	sub.w	r3, ip, r4
 80089aa:	3b15      	subs	r3, #21
 80089ac:	f023 0303 	bic.w	r3, r3, #3
 80089b0:	3304      	adds	r3, #4
 80089b2:	f104 0015 	add.w	r0, r4, #21
 80089b6:	4584      	cmp	ip, r0
 80089b8:	bf38      	it	cc
 80089ba:	2304      	movcc	r3, #4
 80089bc:	50ca      	str	r2, [r1, r3]
 80089be:	b10a      	cbz	r2, 80089c4 <__lshift+0xa4>
 80089c0:	f108 0602 	add.w	r6, r8, #2
 80089c4:	3e01      	subs	r6, #1
 80089c6:	4638      	mov	r0, r7
 80089c8:	4621      	mov	r1, r4
 80089ca:	612e      	str	r6, [r5, #16]
 80089cc:	f7ff fd92 	bl	80084f4 <_Bfree>
 80089d0:	4628      	mov	r0, r5
 80089d2:	e8bd 87f0 	ldmia.w	sp!, {r4, r5, r6, r7, r8, r9, sl, pc}
 80089d6:	f842 0f04 	str.w	r0, [r2, #4]!
 80089da:	3301      	adds	r3, #1
 80089dc:	e7c5      	b.n	800896a <__lshift+0x4a>
 80089de:	3904      	subs	r1, #4
 80089e0:	f853 2b04 	ldr.w	r2, [r3], #4
 80089e4:	459c      	cmp	ip, r3
 80089e6:	f841 2f04 	str.w	r2, [r1, #4]!
 80089ea:	d8f9      	bhi.n	80089e0 <__lshift+0xc0>
 80089ec:	e7ea      	b.n	80089c4 <__lshift+0xa4>
 80089ee:	bf00      	nop
 80089f0:	0800caf8 	.word	0x0800caf8
 80089f4:	0800cb09 	.word	0x0800cb09

080089f8 <__mcmp>:
 80089f8:	4603      	mov	r3, r0
 80089fa:	690a      	ldr	r2, [r1, #16]
 80089fc:	6900      	ldr	r0, [r0, #16]
 80089fe:	b530      	push	{r4, r5, lr}
 8008a00:	1a80      	subs	r0, r0, r2
 8008a02:	d10e      	bne.n	8008a22 <__mcmp+0x2a>
 8008a04:	3314      	adds	r3, #20
 8008a06:	3114      	adds	r1, #20
 8008a08:	eb03 0482 	add.w	r4, r3, r2, lsl #2
 8008a0c:	eb01 0182 	add.w	r1, r1, r2, lsl #2
 8008a10:	f854 5d04 	ldr.w	r5, [r4, #-4]!
 8008a14:	f851 2d04 	ldr.w	r2, [r1, #-4]!
 8008a18:	4295      	cmp	r5, r2
 8008a1a:	d003      	beq.n	8008a24 <__mcmp+0x2c>
 8008a1c:	d205      	bcs.n	8008a2a <__mcmp+0x32>
 8008a1e:	f04f 30ff 	mov.w	r0, #4294967295
 8008a22:	bd30      	pop	{r4, r5, pc}
 8008a24:	42a3      	cmp	r3, r4
 8008a26:	d3f3      	bcc.n	8008a10 <__mcmp+0x18>
 8008a28:	e7fb      	b.n	8008a22 <__mcmp+0x2a>
 8008a2a:	2001      	movs	r0, #1
 8008a2c:	e7f9      	b.n	8008a22 <__mcmp+0x2a>
	...

08008a30 <__mdiff>:
 8008a30:	e92d 4ff7 	stmdb	sp!, {r0, r1, r2, r4, r5, r6, r7, r8, r9, sl, fp, lr}
 8008a34:	4689      	mov	r9, r1
 8008a36:	4606      	mov	r6, r0
 8008a38:	4611      	mov	r1, r2
 8008a3a:	4648      	mov	r0, r9
 8008a3c:	4614      	mov	r4, r2
 8008a3e:	f7ff ffdb 	bl	80089f8 <__mcmp>
 8008a42:	1e05      	subs	r5, r0, #0
 8008a44:	d112      	bne.n	8008a6c <__mdiff+0x3c>
 8008a46:	4629      	mov	r1, r5
 8008a48:	4630      	mov	r0, r6
 8008a4a:	f7ff fd13 	bl	8008474 <_Balloc>
 8008a4e:	4602      	mov	r2, r0
 8008a50:	b928      	cbnz	r0, 8008a5e <__mdiff+0x2e>
 8008a52:	f240 2137 	movw	r1, #567	@ 0x237
 8008a56:	4b3e      	ldr	r3, [pc, #248]	@ (8008b50 <__mdiff+0x120>)
 8008a58:	483e      	ldr	r0, [pc, #248]	@ (8008b54 <__mdiff+0x124>)
 8008a5a:	f7fe fd9f 	bl	800759c <__assert_func>
 8008a5e:	2301      	movs	r3, #1
 8008a60:	e9c0 3504 	strd	r3, r5, [r0, #16]
 8008a64:	4610      	mov	r0, r2
 8008a66:	b003      	add	sp, #12
 8008a68:	e8bd 8ff0 	ldmia.w	sp!, {r4, r5, r6, r7, r8, r9, sl, fp, pc}
 8008a6c:	bfbc      	itt	lt
 8008a6e:	464b      	movlt	r3, r9
 8008a70:	46a1      	movlt	r9, r4
 8008a72:	4630      	mov	r0, r6
 8008a74:	f8d9 1004 	ldr.w	r1, [r9, #4]
 8008a78:	bfba      	itte	lt
 8008a7a:	461c      	movlt	r4, r3
 8008a7c:	2501      	movlt	r5, #1
 8008a7e:	2500      	movge	r5, #0
 8008a80:	f7ff fcf8 	bl	8008474 <_Balloc>
 8008a84:	4602      	mov	r2, r0
 8008a86:	b918      	cbnz	r0, 8008a90 <__mdiff+0x60>
 8008a88:	f240 2145 	movw	r1, #581	@ 0x245
 8008a8c:	4b30      	ldr	r3, [pc, #192]	@ (8008b50 <__mdiff+0x120>)
 8008a8e:	e7e3      	b.n	8008a58 <__mdiff+0x28>
 8008a90:	f100 0b14 	add.w	fp, r0, #20
 8008a94:	f8d9 7010 	ldr.w	r7, [r9, #16]
 8008a98:	f109 0310 	add.w	r3, r9, #16
 8008a9c:	60c5      	str	r5, [r0, #12]
 8008a9e:	f04f 0c00 	mov.w	ip, #0
 8008aa2:	f109 0514 	add.w	r5, r9, #20
 8008aa6:	46d9      	mov	r9, fp
 8008aa8:	6926      	ldr	r6, [r4, #16]
 8008aaa:	f104 0e14 	add.w	lr, r4, #20
 8008aae:	eb05 0887 	add.w	r8, r5, r7, lsl #2
 8008ab2:	eb0e 0686 	add.w	r6, lr, r6, lsl #2
 8008ab6:	9301      	str	r3, [sp, #4]
 8008ab8:	9b01      	ldr	r3, [sp, #4]
 8008aba:	f85e 0b04 	ldr.w	r0, [lr], #4
 8008abe:	f853 af04 	ldr.w	sl, [r3, #4]!
 8008ac2:	b281      	uxth	r1, r0
 8008ac4:	9301      	str	r3, [sp, #4]
 8008ac6:	fa1f f38a 	uxth.w	r3, sl
 8008aca:	1a5b      	subs	r3, r3, r1
 8008acc:	0c00      	lsrs	r0, r0, #16
 8008ace:	4463      	add	r3, ip
 8008ad0:	ebc0 401a 	rsb	r0, r0, sl, lsr #16
 8008ad4:	eb00 4023 	add.w	r0, r0, r3, asr #16
 8008ad8:	b29b      	uxth	r3, r3
 8008ada:	ea43 4300 	orr.w	r3, r3, r0, lsl #16
 8008ade:	4576      	cmp	r6, lr
 8008ae0:	ea4f 4c20 	mov.w	ip, r0, asr #16
 8008ae4:	f849 3b04 	str.w	r3, [r9], #4
 8008ae8:	d8e6      	bhi.n	8008ab8 <__mdiff+0x88>
 8008aea:	1b33      	subs	r3, r6, r4
 8008aec:	3b15      	subs	r3, #21
 8008aee:	f023 0303 	bic.w	r3, r3, #3
 8008af2:	3415      	adds	r4, #21
 8008af4:	3304      	adds	r3, #4
 8008af6:	42a6      	cmp	r6, r4
 8008af8:	bf38      	it	cc
 8008afa:	2304      	movcc	r3, #4
 8008afc:	441d      	add	r5, r3
 8008afe:	445b      	add	r3, fp
 8008b00:	461e      	mov	r6, r3
 8008b02:	462c      	mov	r4, r5
 8008b04:	4544      	cmp	r4, r8
 8008b06:	d30e      	bcc.n	8008b26 <__mdiff+0xf6>
 8008b08:	f108 0103 	add.w	r1, r8, #3
 8008b0c:	1b49      	subs	r1, r1, r5
 8008b0e:	f021 0103 	bic.w	r1, r1, #3
 8008b12:	3d03      	subs	r5, #3
 8008b14:	45a8      	cmp	r8, r5
 8008b16:	bf38      	it	cc
 8008b18:	2100      	movcc	r1, #0
 8008b1a:	440b      	add	r3, r1
 8008b1c:	f853 1d04 	ldr.w	r1, [r3, #-4]!
 8008b20:	b199      	cbz	r1, 8008b4a <__mdiff+0x11a>
 8008b22:	6117      	str	r7, [r2, #16]
 8008b24:	e79e      	b.n	8008a64 <__mdiff+0x34>
 8008b26:	46e6      	mov	lr, ip
 8008b28:	f854 1b04 	ldr.w	r1, [r4], #4
 8008b2c:	fa1f fc81 	uxth.w	ip, r1
 8008b30:	44f4      	add	ip, lr
 8008b32:	0c08      	lsrs	r0, r1, #16
 8008b34:	4471      	add	r1, lr
 8008b36:	eb00 402c 	add.w	r0, r0, ip, asr #16
 8008b3a:	b289      	uxth	r1, r1
 8008b3c:	ea41 4100 	orr.w	r1, r1, r0, lsl #16
 8008b40:	ea4f 4c20 	mov.w	ip, r0, asr #16
 8008b44:	f846 1b04 	str.w	r1, [r6], #4
 8008b48:	e7dc      	b.n	8008b04 <__mdiff+0xd4>
 8008b4a:	3f01      	subs	r7, #1
 8008b4c:	e7e6      	b.n	8008b1c <__mdiff+0xec>
 8008b4e:	bf00      	nop
 8008b50:	0800caf8 	.word	0x0800caf8
 8008b54:	0800cb09 	.word	0x0800cb09

08008b58 <__ulp>:
 8008b58:	4b0e      	ldr	r3, [pc, #56]	@ (8008b94 <__ulp+0x3c>)
 8008b5a:	400b      	ands	r3, r1
 8008b5c:	f1a3 7350 	sub.w	r3, r3, #54525952	@ 0x3400000
 8008b60:	2b00      	cmp	r3, #0
 8008b62:	dc08      	bgt.n	8008b76 <__ulp+0x1e>
 8008b64:	425b      	negs	r3, r3
 8008b66:	f1b3 7fa0 	cmp.w	r3, #20971520	@ 0x1400000
 8008b6a:	ea4f 5223 	mov.w	r2, r3, asr #20
 8008b6e:	da04      	bge.n	8008b7a <__ulp+0x22>
 8008b70:	f44f 2300 	mov.w	r3, #524288	@ 0x80000
 8008b74:	4113      	asrs	r3, r2
 8008b76:	2200      	movs	r2, #0
 8008b78:	e008      	b.n	8008b8c <__ulp+0x34>
 8008b7a:	f1a2 0314 	sub.w	r3, r2, #20
 8008b7e:	2b1e      	cmp	r3, #30
 8008b80:	bfd6      	itet	le
 8008b82:	f04f 4200 	movle.w	r2, #2147483648	@ 0x80000000
 8008b86:	2201      	movgt	r2, #1
 8008b88:	40da      	lsrle	r2, r3
 8008b8a:	2300      	movs	r3, #0
 8008b8c:	4619      	mov	r1, r3
 8008b8e:	4610      	mov	r0, r2
 8008b90:	4770      	bx	lr
 8008b92:	bf00      	nop
 8008b94:	7ff00000 	.word	0x7ff00000

08008b98 <__b2d>:
 8008b98:	6902      	ldr	r2, [r0, #16]
 8008b9a:	b5f8      	push	{r3, r4, r5, r6, r7, lr}
 8008b9c:	f100 0614 	add.w	r6, r0, #20
 8008ba0:	eb06 0282 	add.w	r2, r6, r2, lsl #2
 8008ba4:	f852 4c04 	ldr.w	r4, [r2, #-4]
 8008ba8:	4f1e      	ldr	r7, [pc, #120]	@ (8008c24 <__b2d+0x8c>)
 8008baa:	4620      	mov	r0, r4
 8008bac:	f7ff fd54 	bl	8008658 <__hi0bits>
 8008bb0:	4603      	mov	r3, r0
 8008bb2:	f1c0 0020 	rsb	r0, r0, #32
 8008bb6:	2b0a      	cmp	r3, #10
 8008bb8:	f1a2 0504 	sub.w	r5, r2, #4
 8008bbc:	6008      	str	r0, [r1, #0]
 8008bbe:	dc12      	bgt.n	8008be6 <__b2d+0x4e>
 8008bc0:	42ae      	cmp	r6, r5
 8008bc2:	bf2c      	ite	cs
 8008bc4:	2200      	movcs	r2, #0
 8008bc6:	f852 2c08 	ldrcc.w	r2, [r2, #-8]
 8008bca:	f1c3 0c0b 	rsb	ip, r3, #11
 8008bce:	3315      	adds	r3, #21
 8008bd0:	fa24 fe0c 	lsr.w	lr, r4, ip
 8008bd4:	fa04 f303 	lsl.w	r3, r4, r3
 8008bd8:	fa22 f20c 	lsr.w	r2, r2, ip
 8008bdc:	ea4e 0107 	orr.w	r1, lr, r7
 8008be0:	431a      	orrs	r2, r3
 8008be2:	4610      	mov	r0, r2
 8008be4:	bdf8      	pop	{r3, r4, r5, r6, r7, pc}
 8008be6:	42ae      	cmp	r6, r5
 8008be8:	bf36      	itet	cc
 8008bea:	f1a2 0508 	subcc.w	r5, r2, #8
 8008bee:	2200      	movcs	r2, #0
 8008bf0:	f852 2c08 	ldrcc.w	r2, [r2, #-8]
 8008bf4:	3b0b      	subs	r3, #11
 8008bf6:	d012      	beq.n	8008c1e <__b2d+0x86>
 8008bf8:	f1c3 0720 	rsb	r7, r3, #32
 8008bfc:	fa22 f107 	lsr.w	r1, r2, r7
 8008c00:	409c      	lsls	r4, r3
 8008c02:	430c      	orrs	r4, r1
 8008c04:	42b5      	cmp	r5, r6
 8008c06:	f044 517f 	orr.w	r1, r4, #1069547520	@ 0x3fc00000
 8008c0a:	bf94      	ite	ls
 8008c0c:	2400      	movls	r4, #0
 8008c0e:	f855 4c04 	ldrhi.w	r4, [r5, #-4]
 8008c12:	409a      	lsls	r2, r3
 8008c14:	40fc      	lsrs	r4, r7
 8008c16:	f441 1140 	orr.w	r1, r1, #3145728	@ 0x300000
 8008c1a:	4322      	orrs	r2, r4
 8008c1c:	e7e1      	b.n	8008be2 <__b2d+0x4a>
 8008c1e:	ea44 0107 	orr.w	r1, r4, r7
 8008c22:	e7de      	b.n	8008be2 <__b2d+0x4a>
 8008c24:	3ff00000 	.word	0x3ff00000

08008c28 <__d2b>:
 8008c28:	e92d 4373 	stmdb	sp!, {r0, r1, r4, r5, r6, r8, r9, lr}
 8008c2c:	2101      	movs	r1, #1
 8008c2e:	4690      	mov	r8, r2
 8008c30:	4699      	mov	r9, r3
 8008c32:	9e08      	ldr	r6, [sp, #32]
 8008c34:	f7ff fc1e 	bl	8008474 <_Balloc>
 8008c38:	4604      	mov	r4, r0
 8008c3a:	b930      	cbnz	r0, 8008c4a <__d2b+0x22>
 8008c3c:	4602      	mov	r2, r0
 8008c3e:	f240 310f 	movw	r1, #783	@ 0x30f
 8008c42:	4b23      	ldr	r3, [pc, #140]	@ (8008cd0 <__d2b+0xa8>)
 8008c44:	4823      	ldr	r0, [pc, #140]	@ (8008cd4 <__d2b+0xac>)
 8008c46:	f7fe fca9 	bl	800759c <__assert_func>
 8008c4a:	f3c9 550a 	ubfx	r5, r9, #20, #11
 8008c4e:	f3c9 0313 	ubfx	r3, r9, #0, #20
 8008c52:	b10d      	cbz	r5, 8008c58 <__d2b+0x30>
 8008c54:	f443 1380 	orr.w	r3, r3, #1048576	@ 0x100000
 8008c58:	9301      	str	r3, [sp, #4]
 8008c5a:	f1b8 0300 	subs.w	r3, r8, #0
 8008c5e:	d024      	beq.n	8008caa <__d2b+0x82>
 8008c60:	4668      	mov	r0, sp
 8008c62:	9300      	str	r3, [sp, #0]
 8008c64:	f7ff fd17 	bl	8008696 <__lo0bits>
 8008c68:	e9dd 1200 	ldrd	r1, r2, [sp]
 8008c6c:	b1d8      	cbz	r0, 8008ca6 <__d2b+0x7e>
 8008c6e:	f1c0 0320 	rsb	r3, r0, #32
 8008c72:	fa02 f303 	lsl.w	r3, r2, r3
 8008c76:	430b      	orrs	r3, r1
 8008c78:	40c2      	lsrs	r2, r0
 8008c7a:	6163      	str	r3, [r4, #20]
 8008c7c:	9201      	str	r2, [sp, #4]
 8008c7e:	9b01      	ldr	r3, [sp, #4]
 8008c80:	2b00      	cmp	r3, #0
 8008c82:	bf0c      	ite	eq
 8008c84:	2201      	moveq	r2, #1
 8008c86:	2202      	movne	r2, #2
 8008c88:	61a3      	str	r3, [r4, #24]
 8008c8a:	6122      	str	r2, [r4, #16]
 8008c8c:	b1ad      	cbz	r5, 8008cba <__d2b+0x92>
 8008c8e:	f2a5 4533 	subw	r5, r5, #1075	@ 0x433
 8008c92:	4405      	add	r5, r0
 8008c94:	6035      	str	r5, [r6, #0]
 8008c96:	f1c0 0035 	rsb	r0, r0, #53	@ 0x35
 8008c9a:	9b09      	ldr	r3, [sp, #36]	@ 0x24
 8008c9c:	6018      	str	r0, [r3, #0]
 8008c9e:	4620      	mov	r0, r4
 8008ca0:	b002      	add	sp, #8
 8008ca2:	e8bd 8370 	ldmia.w	sp!, {r4, r5, r6, r8, r9, pc}
 8008ca6:	6161      	str	r1, [r4, #20]
 8008ca8:	e7e9      	b.n	8008c7e <__d2b+0x56>
 8008caa:	a801      	add	r0, sp, #4
 8008cac:	f7ff fcf3 	bl	8008696 <__lo0bits>
 8008cb0:	9b01      	ldr	r3, [sp, #4]
 8008cb2:	2201      	movs	r2, #1
 8008cb4:	6163      	str	r3, [r4, #20]
 8008cb6:	3020      	adds	r0, #32
 8008cb8:	e7e7      	b.n	8008c8a <__d2b+0x62>
 8008cba:	f2a0 4032 	subw	r0, r0, #1074	@ 0x432
 8008cbe:	eb04 0382 	add.w	r3, r4, r2, lsl #2
 8008cc2:	6030      	str	r0, [r6, #0]
 8008cc4:	6918      	ldr	r0, [r3, #16]
 8008cc6:	f7ff fcc7 	bl	8008658 <__hi0bits>
 8008cca:	ebc0 1042 	rsb	r0, r0, r2, lsl #5
 8008cce:	e7e4      	b.n	8008c9a <__d2b+0x72>
 8008cd0:	0800caf8 	.word	0x0800caf8
 8008cd4:	0800cb09 	.word	0x0800cb09

08008cd8 <__ratio>:
 8008cd8:	e92d 4ff0 	stmdb	sp!, {r4, r5, r6, r7, r8, r9, sl, fp, lr}
 8008cdc:	b085      	sub	sp, #20
 8008cde:	e9cd 1000 	strd	r1, r0, [sp]
 8008ce2:	a902      	add	r1, sp, #8
 8008ce4:	f7ff ff58 	bl	8008b98 <__b2d>
 8008ce8:	468b      	mov	fp, r1
 8008cea:	4606      	mov	r6, r0
 8008cec:	460f      	mov	r7, r1
 8008cee:	9800      	ldr	r0, [sp, #0]
 8008cf0:	a903      	add	r1, sp, #12
 8008cf2:	f7ff ff51 	bl	8008b98 <__b2d>
 8008cf6:	460d      	mov	r5, r1
 8008cf8:	9b01      	ldr	r3, [sp, #4]
 8008cfa:	4689      	mov	r9, r1
 8008cfc:	6919      	ldr	r1, [r3, #16]
 8008cfe:	9b00      	ldr	r3, [sp, #0]
 8008d00:	4604      	mov	r4, r0
 8008d02:	691b      	ldr	r3, [r3, #16]
 8008d04:	4630      	mov	r0, r6
 8008d06:	1ac9      	subs	r1, r1, r3
 8008d08:	e9dd 3202 	ldrd	r3, r2, [sp, #8]
 8008d0c:	1a9b      	subs	r3, r3, r2
 8008d0e:	eb03 1341 	add.w	r3, r3, r1, lsl #5
 8008d12:	2b00      	cmp	r3, #0
 8008d14:	bfcd      	iteet	gt
 8008d16:	463a      	movgt	r2, r7
 8008d18:	462a      	movle	r2, r5
 8008d1a:	ebc3 3303 	rsble	r3, r3, r3, lsl #12
 8008d1e:	eb02 5b03 	addgt.w	fp, r2, r3, lsl #20
 8008d22:	bfd8      	it	le
 8008d24:	eb02 5903 	addle.w	r9, r2, r3, lsl #20
 8008d28:	464b      	mov	r3, r9
 8008d2a:	4622      	mov	r2, r4
 8008d2c:	4659      	mov	r1, fp
 8008d2e:	f7f7 fdb1 	bl	8000894 <__aeabi_ddiv>
 8008d32:	b005      	add	sp, #20
 8008d34:	e8bd 8ff0 	ldmia.w	sp!, {r4, r5, r6, r7, r8, r9, sl, fp, pc}

08008d38 <__copybits>:
 8008d38:	3901      	subs	r1, #1
 8008d3a:	b570      	push	{r4, r5, r6, lr}
 8008d3c:	1149      	asrs	r1, r1, #5
 8008d3e:	6914      	ldr	r4, [r2, #16]
 8008d40:	3101      	adds	r1, #1
 8008d42:	f102 0314 	add.w	r3, r2, #20
 8008d46:	eb00 0181 	add.w	r1, r0, r1, lsl #2
 8008d4a:	eb03 0484 	add.w	r4, r3, r4, lsl #2
 8008d4e:	1f05      	subs	r5, r0, #4
 8008d50:	42a3      	cmp	r3, r4
 8008d52:	d30c      	bcc.n	8008d6e <__copybits+0x36>
 8008d54:	1aa3      	subs	r3, r4, r2
 8008d56:	3b11      	subs	r3, #17
 8008d58:	f023 0303 	bic.w	r3, r3, #3
 8008d5c:	3211      	adds	r2, #17
 8008d5e:	42a2      	cmp	r2, r4
 8008d60:	bf88      	it	hi
 8008d62:	2300      	movhi	r3, #0
 8008d64:	4418      	add	r0, r3
 8008d66:	2300      	movs	r3, #0
 8008d68:	4288      	cmp	r0, r1
 8008d6a:	d305      	bcc.n	8008d78 <__copybits+0x40>
 8008d6c:	bd70      	pop	{r4, r5, r6, pc}
 8008d6e:	f853 6b04 	ldr.w	r6, [r3], #4
 8008d72:	f845 6f04 	str.w	r6, [r5, #4]!
 8008d76:	e7eb      	b.n	8008d50 <__copybits+0x18>
 8008d78:	f840 3b04 	str.w	r3, [r0], #4
 8008d7c:	e7f4      	b.n	8008d68 <__copybits+0x30>

08008d7e <__any_on>:
 8008d7e:	f100 0214 	add.w	r2, r0, #20
 8008d82:	6900      	ldr	r0, [r0, #16]
 8008d84:	114b      	asrs	r3, r1, #5
 8008d86:	4298      	cmp	r0, r3
 8008d88:	b510      	push	{r4, lr}
 8008d8a:	db11      	blt.n	8008db0 <__any_on+0x32>
 8008d8c:	dd0a      	ble.n	8008da4 <__any_on+0x26>
 8008d8e:	f011 011f 	ands.w	r1, r1, #31
 8008d92:	d007      	beq.n	8008da4 <__any_on+0x26>
 8008d94:	f852 4023 	ldr.w	r4, [r2, r3, lsl #2]
 8008d98:	fa24 f001 	lsr.w	r0, r4, r1
 8008d9c:	fa00 f101 	lsl.w	r1, r0, r1
 8008da0:	428c      	cmp	r4, r1
 8008da2:	d10b      	bne.n	8008dbc <__any_on+0x3e>
 8008da4:	eb02 0383 	add.w	r3, r2, r3, lsl #2
 8008da8:	4293      	cmp	r3, r2
 8008daa:	d803      	bhi.n	8008db4 <__any_on+0x36>
 8008dac:	2000      	movs	r0, #0
 8008dae:	bd10      	pop	{r4, pc}
 8008db0:	4603      	mov	r3, r0
 8008db2:	e7f7      	b.n	8008da4 <__any_on+0x26>
 8008db4:	f853 1d04 	ldr.w	r1, [r3, #-4]!
 8008db8:	2900      	cmp	r1, #0
 8008dba:	d0f5      	beq.n	8008da8 <__any_on+0x2a>
 8008dbc:	2001      	movs	r0, #1
 8008dbe:	e7f6      	b.n	8008dae <__any_on+0x30>

08008dc0 <sulp>:
 8008dc0:	e92d 41f0 	stmdb	sp!, {r4, r5, r6, r7, r8, lr}
 8008dc4:	460f      	mov	r7, r1
 8008dc6:	4690      	mov	r8, r2
 8008dc8:	f7ff fec6 	bl	8008b58 <__ulp>
 8008dcc:	4604      	mov	r4, r0
 8008dce:	460d      	mov	r5, r1
 8008dd0:	f1b8 0f00 	cmp.w	r8, #0
 8008dd4:	d011      	beq.n	8008dfa <sulp+0x3a>
 8008dd6:	f3c7 530a 	ubfx	r3, r7, #20, #11
 8008dda:	f1c3 036b 	rsb	r3, r3, #107	@ 0x6b
 8008dde:	2b00      	cmp	r3, #0
 8008de0:	dd0b      	ble.n	8008dfa <sulp+0x3a>
 8008de2:	2400      	movs	r4, #0
 8008de4:	051b      	lsls	r3, r3, #20
 8008de6:	f103 557f 	add.w	r5, r3, #1069547520	@ 0x3fc00000
 8008dea:	f505 1540 	add.w	r5, r5, #3145728	@ 0x300000
 8008dee:	4622      	mov	r2, r4
 8008df0:	462b      	mov	r3, r5
 8008df2:	f7f7 fc25 	bl	8000640 <__aeabi_dmul>
 8008df6:	4604      	mov	r4, r0
 8008df8:	460d      	mov	r5, r1
 8008dfa:	4620      	mov	r0, r4
 8008dfc:	4629      	mov	r1, r5
 8008dfe:	e8bd 81f0 	ldmia.w	sp!, {r4, r5, r6, r7, r8, pc}
 8008e02:	0000      	movs	r0, r0
 8008e04:	0000      	movs	r0, r0
	...

08008e08 <_strtod_l>:
 8008e08:	e92d 4ff0 	stmdb	sp!, {r4, r5, r6, r7, r8, r9, sl, fp, lr}
 8008e0c:	b09f      	sub	sp, #124	@ 0x7c
 8008e0e:	9217      	str	r2, [sp, #92]	@ 0x5c
 8008e10:	2200      	movs	r2, #0
 8008e12:	460c      	mov	r4, r1
 8008e14:	921a      	str	r2, [sp, #104]	@ 0x68
 8008e16:	f04f 0a00 	mov.w	sl, #0
 8008e1a:	f04f 0b00 	mov.w	fp, #0
 8008e1e:	460a      	mov	r2, r1
 8008e20:	9005      	str	r0, [sp, #20]
 8008e22:	9219      	str	r2, [sp, #100]	@ 0x64
 8008e24:	7811      	ldrb	r1, [r2, #0]
 8008e26:	292b      	cmp	r1, #43	@ 0x2b
 8008e28:	d048      	beq.n	8008ebc <_strtod_l+0xb4>
 8008e2a:	d836      	bhi.n	8008e9a <_strtod_l+0x92>
 8008e2c:	290d      	cmp	r1, #13
 8008e2e:	d830      	bhi.n	8008e92 <_strtod_l+0x8a>
 8008e30:	2908      	cmp	r1, #8
 8008e32:	d830      	bhi.n	8008e96 <_strtod_l+0x8e>
 8008e34:	2900      	cmp	r1, #0
 8008e36:	d039      	beq.n	8008eac <_strtod_l+0xa4>
 8008e38:	2200      	movs	r2, #0
 8008e3a:	920b      	str	r2, [sp, #44]	@ 0x2c
 8008e3c:	9d19      	ldr	r5, [sp, #100]	@ 0x64
 8008e3e:	782a      	ldrb	r2, [r5, #0]
 8008e40:	2a30      	cmp	r2, #48	@ 0x30
 8008e42:	f040 80b1 	bne.w	8008fa8 <_strtod_l+0x1a0>
 8008e46:	786a      	ldrb	r2, [r5, #1]
 8008e48:	f002 02df 	and.w	r2, r2, #223	@ 0xdf
 8008e4c:	2a58      	cmp	r2, #88	@ 0x58
 8008e4e:	d16c      	bne.n	8008f2a <_strtod_l+0x122>
 8008e50:	9302      	str	r3, [sp, #8]
 8008e52:	9b0b      	ldr	r3, [sp, #44]	@ 0x2c
 8008e54:	4a8e      	ldr	r2, [pc, #568]	@ (8009090 <_strtod_l+0x288>)
 8008e56:	9301      	str	r3, [sp, #4]
 8008e58:	ab1a      	add	r3, sp, #104	@ 0x68
 8008e5a:	9300      	str	r3, [sp, #0]
 8008e5c:	9805      	ldr	r0, [sp, #20]
 8008e5e:	ab1b      	add	r3, sp, #108	@ 0x6c
 8008e60:	a919      	add	r1, sp, #100	@ 0x64
 8008e62:	f001 f887 	bl	8009f74 <__gethex>
 8008e66:	f010 060f 	ands.w	r6, r0, #15
 8008e6a:	4604      	mov	r4, r0
 8008e6c:	d005      	beq.n	8008e7a <_strtod_l+0x72>
 8008e6e:	2e06      	cmp	r6, #6
 8008e70:	d126      	bne.n	8008ec0 <_strtod_l+0xb8>
 8008e72:	2300      	movs	r3, #0
 8008e74:	3501      	adds	r5, #1
 8008e76:	9519      	str	r5, [sp, #100]	@ 0x64
 8008e78:	930b      	str	r3, [sp, #44]	@ 0x2c
 8008e7a:	9b17      	ldr	r3, [sp, #92]	@ 0x5c
 8008e7c:	2b00      	cmp	r3, #0
 8008e7e:	f040 8584 	bne.w	800998a <_strtod_l+0xb82>
 8008e82:	9b0b      	ldr	r3, [sp, #44]	@ 0x2c
 8008e84:	b1bb      	cbz	r3, 8008eb6 <_strtod_l+0xae>
 8008e86:	4650      	mov	r0, sl
 8008e88:	f10b 4100 	add.w	r1, fp, #2147483648	@ 0x80000000
 8008e8c:	b01f      	add	sp, #124	@ 0x7c
 8008e8e:	e8bd 8ff0 	ldmia.w	sp!, {r4, r5, r6, r7, r8, r9, sl, fp, pc}
 8008e92:	2920      	cmp	r1, #32
 8008e94:	d1d0      	bne.n	8008e38 <_strtod_l+0x30>
 8008e96:	3201      	adds	r2, #1
 8008e98:	e7c3      	b.n	8008e22 <_strtod_l+0x1a>
 8008e9a:	292d      	cmp	r1, #45	@ 0x2d
 8008e9c:	d1cc      	bne.n	8008e38 <_strtod_l+0x30>
 8008e9e:	2101      	movs	r1, #1
 8008ea0:	910b      	str	r1, [sp, #44]	@ 0x2c
 8008ea2:	1c51      	adds	r1, r2, #1
 8008ea4:	9119      	str	r1, [sp, #100]	@ 0x64
 8008ea6:	7852      	ldrb	r2, [r2, #1]
 8008ea8:	2a00      	cmp	r2, #0
 8008eaa:	d1c7      	bne.n	8008e3c <_strtod_l+0x34>
 8008eac:	9b17      	ldr	r3, [sp, #92]	@ 0x5c
 8008eae:	9419      	str	r4, [sp, #100]	@ 0x64
 8008eb0:	2b00      	cmp	r3, #0
 8008eb2:	f040 8568 	bne.w	8009986 <_strtod_l+0xb7e>
 8008eb6:	4650      	mov	r0, sl
 8008eb8:	4659      	mov	r1, fp
 8008eba:	e7e7      	b.n	8008e8c <_strtod_l+0x84>
 8008ebc:	2100      	movs	r1, #0
 8008ebe:	e7ef      	b.n	8008ea0 <_strtod_l+0x98>
 8008ec0:	9a1a      	ldr	r2, [sp, #104]	@ 0x68
 8008ec2:	b13a      	cbz	r2, 8008ed4 <_strtod_l+0xcc>
 8008ec4:	2135      	movs	r1, #53	@ 0x35
 8008ec6:	a81c      	add	r0, sp, #112	@ 0x70
 8008ec8:	f7ff ff36 	bl	8008d38 <__copybits>
 8008ecc:	991a      	ldr	r1, [sp, #104]	@ 0x68
 8008ece:	9805      	ldr	r0, [sp, #20]
 8008ed0:	f7ff fb10 	bl	80084f4 <_Bfree>
 8008ed4:	3e01      	subs	r6, #1
 8008ed6:	9a1b      	ldr	r2, [sp, #108]	@ 0x6c
 8008ed8:	2e04      	cmp	r6, #4
 8008eda:	d806      	bhi.n	8008eea <_strtod_l+0xe2>
 8008edc:	e8df f006 	tbb	[pc, r6]
 8008ee0:	201d0314 	.word	0x201d0314
 8008ee4:	14          	.byte	0x14
 8008ee5:	00          	.byte	0x00
 8008ee6:	e9dd ab1c 	ldrd	sl, fp, [sp, #112]	@ 0x70
 8008eea:	05e1      	lsls	r1, r4, #23
 8008eec:	bf48      	it	mi
 8008eee:	f04b 4b00 	orrmi.w	fp, fp, #2147483648	@ 0x80000000
 8008ef2:	f02b 4300 	bic.w	r3, fp, #2147483648	@ 0x80000000
 8008ef6:	0d1b      	lsrs	r3, r3, #20
 8008ef8:	051b      	lsls	r3, r3, #20
 8008efa:	2b00      	cmp	r3, #0
 8008efc:	d1bd      	bne.n	8008e7a <_strtod_l+0x72>
 8008efe:	f7fe faf7 	bl	80074f0 <__errno>
 8008f02:	2322      	movs	r3, #34	@ 0x22
 8008f04:	6003      	str	r3, [r0, #0]
 8008f06:	e7b8      	b.n	8008e7a <_strtod_l+0x72>
 8008f08:	f202 4233 	addw	r2, r2, #1075	@ 0x433
 8008f0c:	e9dd a31c 	ldrd	sl, r3, [sp, #112]	@ 0x70
 8008f10:	f423 1380 	bic.w	r3, r3, #1048576	@ 0x100000
 8008f14:	ea43 5b02 	orr.w	fp, r3, r2, lsl #20
 8008f18:	e7e7      	b.n	8008eea <_strtod_l+0xe2>
 8008f1a:	f8df b178 	ldr.w	fp, [pc, #376]	@ 8009094 <_strtod_l+0x28c>
 8008f1e:	e7e4      	b.n	8008eea <_strtod_l+0xe2>
 8008f20:	f06f 4b00 	mvn.w	fp, #2147483648	@ 0x80000000
 8008f24:	f04f 3aff 	mov.w	sl, #4294967295
 8008f28:	e7df      	b.n	8008eea <_strtod_l+0xe2>
 8008f2a:	9b19      	ldr	r3, [sp, #100]	@ 0x64
 8008f2c:	1c5a      	adds	r2, r3, #1
 8008f2e:	9219      	str	r2, [sp, #100]	@ 0x64
 8008f30:	785b      	ldrb	r3, [r3, #1]
 8008f32:	2b30      	cmp	r3, #48	@ 0x30
 8008f34:	d0f9      	beq.n	8008f2a <_strtod_l+0x122>
 8008f36:	2b00      	cmp	r3, #0
 8008f38:	d09f      	beq.n	8008e7a <_strtod_l+0x72>
 8008f3a:	2301      	movs	r3, #1
 8008f3c:	9309      	str	r3, [sp, #36]	@ 0x24
 8008f3e:	9b19      	ldr	r3, [sp, #100]	@ 0x64
 8008f40:	220a      	movs	r2, #10
 8008f42:	930c      	str	r3, [sp, #48]	@ 0x30
 8008f44:	2300      	movs	r3, #0
 8008f46:	461f      	mov	r7, r3
 8008f48:	9308      	str	r3, [sp, #32]
 8008f4a:	930a      	str	r3, [sp, #40]	@ 0x28
 8008f4c:	9819      	ldr	r0, [sp, #100]	@ 0x64
 8008f4e:	7805      	ldrb	r5, [r0, #0]
 8008f50:	f1a5 0330 	sub.w	r3, r5, #48	@ 0x30
 8008f54:	b2d9      	uxtb	r1, r3
 8008f56:	2909      	cmp	r1, #9
 8008f58:	d928      	bls.n	8008fac <_strtod_l+0x1a4>
 8008f5a:	2201      	movs	r2, #1
 8008f5c:	494e      	ldr	r1, [pc, #312]	@ (8009098 <_strtod_l+0x290>)
 8008f5e:	f000 ff5d 	bl	8009e1c <strncmp>
 8008f62:	2800      	cmp	r0, #0
 8008f64:	d032      	beq.n	8008fcc <_strtod_l+0x1c4>
 8008f66:	2000      	movs	r0, #0
 8008f68:	462a      	mov	r2, r5
 8008f6a:	4681      	mov	r9, r0
 8008f6c:	463d      	mov	r5, r7
 8008f6e:	4603      	mov	r3, r0
 8008f70:	2a65      	cmp	r2, #101	@ 0x65
 8008f72:	d001      	beq.n	8008f78 <_strtod_l+0x170>
 8008f74:	2a45      	cmp	r2, #69	@ 0x45
 8008f76:	d114      	bne.n	8008fa2 <_strtod_l+0x19a>
 8008f78:	b91d      	cbnz	r5, 8008f82 <_strtod_l+0x17a>
 8008f7a:	9a09      	ldr	r2, [sp, #36]	@ 0x24
 8008f7c:	4302      	orrs	r2, r0
 8008f7e:	d095      	beq.n	8008eac <_strtod_l+0xa4>
 8008f80:	2500      	movs	r5, #0
 8008f82:	9c19      	ldr	r4, [sp, #100]	@ 0x64
 8008f84:	1c62      	adds	r2, r4, #1
 8008f86:	9219      	str	r2, [sp, #100]	@ 0x64
 8008f88:	7862      	ldrb	r2, [r4, #1]
 8008f8a:	2a2b      	cmp	r2, #43	@ 0x2b
 8008f8c:	d077      	beq.n	800907e <_strtod_l+0x276>
 8008f8e:	2a2d      	cmp	r2, #45	@ 0x2d
 8008f90:	d07b      	beq.n	800908a <_strtod_l+0x282>
 8008f92:	f04f 0c00 	mov.w	ip, #0
 8008f96:	f1a2 0130 	sub.w	r1, r2, #48	@ 0x30
 8008f9a:	2909      	cmp	r1, #9
 8008f9c:	f240 8082 	bls.w	80090a4 <_strtod_l+0x29c>
 8008fa0:	9419      	str	r4, [sp, #100]	@ 0x64
 8008fa2:	f04f 0800 	mov.w	r8, #0
 8008fa6:	e0a2      	b.n	80090ee <_strtod_l+0x2e6>
 8008fa8:	2300      	movs	r3, #0
 8008faa:	e7c7      	b.n	8008f3c <_strtod_l+0x134>
 8008fac:	2f08      	cmp	r7, #8
 8008fae:	bfd5      	itete	le
 8008fb0:	990a      	ldrle	r1, [sp, #40]	@ 0x28
 8008fb2:	9908      	ldrgt	r1, [sp, #32]
 8008fb4:	fb02 3301 	mlale	r3, r2, r1, r3
 8008fb8:	fb02 3301 	mlagt	r3, r2, r1, r3
 8008fbc:	f100 0001 	add.w	r0, r0, #1
 8008fc0:	bfd4      	ite	le
 8008fc2:	930a      	strle	r3, [sp, #40]	@ 0x28
 8008fc4:	9308      	strgt	r3, [sp, #32]
 8008fc6:	3701      	adds	r7, #1
 8008fc8:	9019      	str	r0, [sp, #100]	@ 0x64
 8008fca:	e7bf      	b.n	8008f4c <_strtod_l+0x144>
 8008fcc:	9b19      	ldr	r3, [sp, #100]	@ 0x64
 8008fce:	1c5a      	adds	r2, r3, #1
 8008fd0:	9219      	str	r2, [sp, #100]	@ 0x64
 8008fd2:	785a      	ldrb	r2, [r3, #1]
 8008fd4:	b37f      	cbz	r7, 8009036 <_strtod_l+0x22e>
 8008fd6:	4681      	mov	r9, r0
 8008fd8:	463d      	mov	r5, r7
 8008fda:	f1a2 0330 	sub.w	r3, r2, #48	@ 0x30
 8008fde:	2b09      	cmp	r3, #9
 8008fe0:	d912      	bls.n	8009008 <_strtod_l+0x200>
 8008fe2:	2301      	movs	r3, #1
 8008fe4:	e7c4      	b.n	8008f70 <_strtod_l+0x168>
 8008fe6:	9b19      	ldr	r3, [sp, #100]	@ 0x64
 8008fe8:	3001      	adds	r0, #1
 8008fea:	1c5a      	adds	r2, r3, #1
 8008fec:	9219      	str	r2, [sp, #100]	@ 0x64
 8008fee:	785a      	ldrb	r2, [r3, #1]
 8008ff0:	2a30      	cmp	r2, #48	@ 0x30
 8008ff2:	d0f8      	beq.n	8008fe6 <_strtod_l+0x1de>
 8008ff4:	f1a2 0331 	sub.w	r3, r2, #49	@ 0x31
 8008ff8:	2b08      	cmp	r3, #8
 8008ffa:	f200 84cb 	bhi.w	8009994 <_strtod_l+0xb8c>
 8008ffe:	4681      	mov	r9, r0
 8009000:	2000      	movs	r0, #0
 8009002:	4605      	mov	r5, r0
 8009004:	9b19      	ldr	r3, [sp, #100]	@ 0x64
 8009006:	930c      	str	r3, [sp, #48]	@ 0x30
 8009008:	3a30      	subs	r2, #48	@ 0x30
 800900a:	f100 0301 	add.w	r3, r0, #1
 800900e:	d02a      	beq.n	8009066 <_strtod_l+0x25e>
 8009010:	4499      	add	r9, r3
 8009012:	210a      	movs	r1, #10
 8009014:	462b      	mov	r3, r5
 8009016:	eb00 0c05 	add.w	ip, r0, r5
 800901a:	4563      	cmp	r3, ip
 800901c:	d10d      	bne.n	800903a <_strtod_l+0x232>
 800901e:	1c69      	adds	r1, r5, #1
 8009020:	4401      	add	r1, r0
 8009022:	4428      	add	r0, r5
 8009024:	2808      	cmp	r0, #8
 8009026:	dc16      	bgt.n	8009056 <_strtod_l+0x24e>
 8009028:	230a      	movs	r3, #10
 800902a:	980a      	ldr	r0, [sp, #40]	@ 0x28
 800902c:	fb03 2300 	mla	r3, r3, r0, r2
 8009030:	930a      	str	r3, [sp, #40]	@ 0x28
 8009032:	2300      	movs	r3, #0
 8009034:	e018      	b.n	8009068 <_strtod_l+0x260>
 8009036:	4638      	mov	r0, r7
 8009038:	e7da      	b.n	8008ff0 <_strtod_l+0x1e8>
 800903a:	2b08      	cmp	r3, #8
 800903c:	f103 0301 	add.w	r3, r3, #1
 8009040:	dc03      	bgt.n	800904a <_strtod_l+0x242>
 8009042:	9e0a      	ldr	r6, [sp, #40]	@ 0x28
 8009044:	434e      	muls	r6, r1
 8009046:	960a      	str	r6, [sp, #40]	@ 0x28
 8009048:	e7e7      	b.n	800901a <_strtod_l+0x212>
 800904a:	2b10      	cmp	r3, #16
 800904c:	bfde      	ittt	le
 800904e:	9e08      	ldrle	r6, [sp, #32]
 8009050:	434e      	mulle	r6, r1
 8009052:	9608      	strle	r6, [sp, #32]
 8009054:	e7e1      	b.n	800901a <_strtod_l+0x212>
 8009056:	280f      	cmp	r0, #15
 8009058:	dceb      	bgt.n	8009032 <_strtod_l+0x22a>
 800905a:	230a      	movs	r3, #10
 800905c:	9808      	ldr	r0, [sp, #32]
 800905e:	fb03 2300 	mla	r3, r3, r0, r2
 8009062:	9308      	str	r3, [sp, #32]
 8009064:	e7e5      	b.n	8009032 <_strtod_l+0x22a>
 8009066:	4629      	mov	r1, r5
 8009068:	9a19      	ldr	r2, [sp, #100]	@ 0x64
 800906a:	460d      	mov	r5, r1
 800906c:	1c50      	adds	r0, r2, #1
 800906e:	9019      	str	r0, [sp, #100]	@ 0x64
 8009070:	7852      	ldrb	r2, [r2, #1]
 8009072:	4618      	mov	r0, r3
 8009074:	e7b1      	b.n	8008fda <_strtod_l+0x1d2>
 8009076:	f04f 0900 	mov.w	r9, #0
 800907a:	2301      	movs	r3, #1
 800907c:	e77d      	b.n	8008f7a <_strtod_l+0x172>
 800907e:	f04f 0c00 	mov.w	ip, #0
 8009082:	1ca2      	adds	r2, r4, #2
 8009084:	9219      	str	r2, [sp, #100]	@ 0x64
 8009086:	78a2      	ldrb	r2, [r4, #2]
 8009088:	e785      	b.n	8008f96 <_strtod_l+0x18e>
 800908a:	f04f 0c01 	mov.w	ip, #1
 800908e:	e7f8      	b.n	8009082 <_strtod_l+0x27a>
 8009090:	0800cc78 	.word	0x0800cc78
 8009094:	7ff00000 	.word	0x7ff00000
 8009098:	0800cc60 	.word	0x0800cc60
 800909c:	9a19      	ldr	r2, [sp, #100]	@ 0x64
 800909e:	1c51      	adds	r1, r2, #1
 80090a0:	9119      	str	r1, [sp, #100]	@ 0x64
 80090a2:	7852      	ldrb	r2, [r2, #1]
 80090a4:	2a30      	cmp	r2, #48	@ 0x30
 80090a6:	d0f9      	beq.n	800909c <_strtod_l+0x294>
 80090a8:	f1a2 0131 	sub.w	r1, r2, #49	@ 0x31
 80090ac:	2908      	cmp	r1, #8
 80090ae:	f63f af78 	bhi.w	8008fa2 <_strtod_l+0x19a>
 80090b2:	f04f 080a 	mov.w	r8, #10
 80090b6:	3a30      	subs	r2, #48	@ 0x30
 80090b8:	920e      	str	r2, [sp, #56]	@ 0x38
 80090ba:	9a19      	ldr	r2, [sp, #100]	@ 0x64
 80090bc:	920f      	str	r2, [sp, #60]	@ 0x3c
 80090be:	9a19      	ldr	r2, [sp, #100]	@ 0x64
 80090c0:	1c56      	adds	r6, r2, #1
 80090c2:	9619      	str	r6, [sp, #100]	@ 0x64
 80090c4:	7852      	ldrb	r2, [r2, #1]
 80090c6:	f1a2 0e30 	sub.w	lr, r2, #48	@ 0x30
 80090ca:	f1be 0f09 	cmp.w	lr, #9
 80090ce:	d939      	bls.n	8009144 <_strtod_l+0x33c>
 80090d0:	990f      	ldr	r1, [sp, #60]	@ 0x3c
 80090d2:	f644 681f 	movw	r8, #19999	@ 0x4e1f
 80090d6:	1a76      	subs	r6, r6, r1
 80090d8:	2e08      	cmp	r6, #8
 80090da:	dc03      	bgt.n	80090e4 <_strtod_l+0x2dc>
 80090dc:	990e      	ldr	r1, [sp, #56]	@ 0x38
 80090de:	4588      	cmp	r8, r1
 80090e0:	bfa8      	it	ge
 80090e2:	4688      	movge	r8, r1
 80090e4:	f1bc 0f00 	cmp.w	ip, #0
 80090e8:	d001      	beq.n	80090ee <_strtod_l+0x2e6>
 80090ea:	f1c8 0800 	rsb	r8, r8, #0
 80090ee:	2d00      	cmp	r5, #0
 80090f0:	d14e      	bne.n	8009190 <_strtod_l+0x388>
 80090f2:	9909      	ldr	r1, [sp, #36]	@ 0x24
 80090f4:	4308      	orrs	r0, r1
 80090f6:	f47f aec0 	bne.w	8008e7a <_strtod_l+0x72>
 80090fa:	2b00      	cmp	r3, #0
 80090fc:	f47f aed6 	bne.w	8008eac <_strtod_l+0xa4>
 8009100:	2a69      	cmp	r2, #105	@ 0x69
 8009102:	d028      	beq.n	8009156 <_strtod_l+0x34e>
 8009104:	dc25      	bgt.n	8009152 <_strtod_l+0x34a>
 8009106:	2a49      	cmp	r2, #73	@ 0x49
 8009108:	d025      	beq.n	8009156 <_strtod_l+0x34e>
 800910a:	2a4e      	cmp	r2, #78	@ 0x4e
 800910c:	f47f aece 	bne.w	8008eac <_strtod_l+0xa4>
 8009110:	499a      	ldr	r1, [pc, #616]	@ (800937c <_strtod_l+0x574>)
 8009112:	a819      	add	r0, sp, #100	@ 0x64
 8009114:	f001 f950 	bl	800a3b8 <__match>
 8009118:	2800      	cmp	r0, #0
 800911a:	f43f aec7 	beq.w	8008eac <_strtod_l+0xa4>
 800911e:	9b19      	ldr	r3, [sp, #100]	@ 0x64
 8009120:	781b      	ldrb	r3, [r3, #0]
 8009122:	2b28      	cmp	r3, #40	@ 0x28
 8009124:	d12e      	bne.n	8009184 <_strtod_l+0x37c>
 8009126:	4996      	ldr	r1, [pc, #600]	@ (8009380 <_strtod_l+0x578>)
 8009128:	aa1c      	add	r2, sp, #112	@ 0x70
 800912a:	a819      	add	r0, sp, #100	@ 0x64
 800912c:	f001 f958 	bl	800a3e0 <__hexnan>
 8009130:	2805      	cmp	r0, #5
 8009132:	d127      	bne.n	8009184 <_strtod_l+0x37c>
 8009134:	9b1d      	ldr	r3, [sp, #116]	@ 0x74
 8009136:	f8dd a070 	ldr.w	sl, [sp, #112]	@ 0x70
 800913a:	f043 4bff 	orr.w	fp, r3, #2139095040	@ 0x7f800000
 800913e:	f44b 0be0 	orr.w	fp, fp, #7340032	@ 0x700000
 8009142:	e69a      	b.n	8008e7a <_strtod_l+0x72>
 8009144:	990e      	ldr	r1, [sp, #56]	@ 0x38
 8009146:	fb08 2101 	mla	r1, r8, r1, r2
 800914a:	f1a1 0230 	sub.w	r2, r1, #48	@ 0x30
 800914e:	920e      	str	r2, [sp, #56]	@ 0x38
 8009150:	e7b5      	b.n	80090be <_strtod_l+0x2b6>
 8009152:	2a6e      	cmp	r2, #110	@ 0x6e
 8009154:	e7da      	b.n	800910c <_strtod_l+0x304>
 8009156:	498b      	ldr	r1, [pc, #556]	@ (8009384 <_strtod_l+0x57c>)
 8009158:	a819      	add	r0, sp, #100	@ 0x64
 800915a:	f001 f92d 	bl	800a3b8 <__match>
 800915e:	2800      	cmp	r0, #0
 8009160:	f43f aea4 	beq.w	8008eac <_strtod_l+0xa4>
 8009164:	9b19      	ldr	r3, [sp, #100]	@ 0x64
 8009166:	4988      	ldr	r1, [pc, #544]	@ (8009388 <_strtod_l+0x580>)
 8009168:	3b01      	subs	r3, #1
 800916a:	a819      	add	r0, sp, #100	@ 0x64
 800916c:	9319      	str	r3, [sp, #100]	@ 0x64
 800916e:	f001 f923 	bl	800a3b8 <__match>
 8009172:	b910      	cbnz	r0, 800917a <_strtod_l+0x372>
 8009174:	9b19      	ldr	r3, [sp, #100]	@ 0x64
 8009176:	3301      	adds	r3, #1
 8009178:	9319      	str	r3, [sp, #100]	@ 0x64
 800917a:	f04f 0a00 	mov.w	sl, #0
 800917e:	f8df b20c 	ldr.w	fp, [pc, #524]	@ 800938c <_strtod_l+0x584>
 8009182:	e67a      	b.n	8008e7a <_strtod_l+0x72>
 8009184:	4882      	ldr	r0, [pc, #520]	@ (8009390 <_strtod_l+0x588>)
 8009186:	f000 fe6b 	bl	8009e60 <nan>
 800918a:	4682      	mov	sl, r0
 800918c:	468b      	mov	fp, r1
 800918e:	e674      	b.n	8008e7a <_strtod_l+0x72>
 8009190:	eba8 0309 	sub.w	r3, r8, r9
 8009194:	2f00      	cmp	r7, #0
 8009196:	bf08      	it	eq
 8009198:	462f      	moveq	r7, r5
 800919a:	980a      	ldr	r0, [sp, #40]	@ 0x28
 800919c:	2d10      	cmp	r5, #16
 800919e:	462c      	mov	r4, r5
 80091a0:	9309      	str	r3, [sp, #36]	@ 0x24
 80091a2:	bfa8      	it	ge
 80091a4:	2410      	movge	r4, #16
 80091a6:	f7f7 f9d1 	bl	800054c <__aeabi_ui2d>
 80091aa:	2d09      	cmp	r5, #9
 80091ac:	4682      	mov	sl, r0
 80091ae:	468b      	mov	fp, r1
 80091b0:	dc11      	bgt.n	80091d6 <_strtod_l+0x3ce>
 80091b2:	9b09      	ldr	r3, [sp, #36]	@ 0x24
 80091b4:	2b00      	cmp	r3, #0
 80091b6:	f43f ae60 	beq.w	8008e7a <_strtod_l+0x72>
 80091ba:	9b09      	ldr	r3, [sp, #36]	@ 0x24
 80091bc:	dd76      	ble.n	80092ac <_strtod_l+0x4a4>
 80091be:	2b16      	cmp	r3, #22
 80091c0:	dc5d      	bgt.n	800927e <_strtod_l+0x476>
 80091c2:	4974      	ldr	r1, [pc, #464]	@ (8009394 <_strtod_l+0x58c>)
 80091c4:	4652      	mov	r2, sl
 80091c6:	eb01 01c3 	add.w	r1, r1, r3, lsl #3
 80091ca:	465b      	mov	r3, fp
 80091cc:	e9d1 0100 	ldrd	r0, r1, [r1]
 80091d0:	f7f7 fa36 	bl	8000640 <__aeabi_dmul>
 80091d4:	e7d9      	b.n	800918a <_strtod_l+0x382>
 80091d6:	4b6f      	ldr	r3, [pc, #444]	@ (8009394 <_strtod_l+0x58c>)
 80091d8:	eb03 03c4 	add.w	r3, r3, r4, lsl #3
 80091dc:	e953 2312 	ldrd	r2, r3, [r3, #-72]	@ 0x48
 80091e0:	f7f7 fa2e 	bl	8000640 <__aeabi_dmul>
 80091e4:	4682      	mov	sl, r0
 80091e6:	9808      	ldr	r0, [sp, #32]
 80091e8:	468b      	mov	fp, r1
 80091ea:	f7f7 f9af 	bl	800054c <__aeabi_ui2d>
 80091ee:	4602      	mov	r2, r0
 80091f0:	460b      	mov	r3, r1
 80091f2:	4650      	mov	r0, sl
 80091f4:	4659      	mov	r1, fp
 80091f6:	f7f7 f86d 	bl	80002d4 <__adddf3>
 80091fa:	2d0f      	cmp	r5, #15
 80091fc:	4682      	mov	sl, r0
 80091fe:	468b      	mov	fp, r1
 8009200:	ddd7      	ble.n	80091b2 <_strtod_l+0x3aa>
 8009202:	9b09      	ldr	r3, [sp, #36]	@ 0x24
 8009204:	1b2c      	subs	r4, r5, r4
 8009206:	441c      	add	r4, r3
 8009208:	2c00      	cmp	r4, #0
 800920a:	f340 8096 	ble.w	800933a <_strtod_l+0x532>
 800920e:	f014 030f 	ands.w	r3, r4, #15
 8009212:	d00a      	beq.n	800922a <_strtod_l+0x422>
 8009214:	495f      	ldr	r1, [pc, #380]	@ (8009394 <_strtod_l+0x58c>)
 8009216:	4652      	mov	r2, sl
 8009218:	eb01 01c3 	add.w	r1, r1, r3, lsl #3
 800921c:	e9d1 0100 	ldrd	r0, r1, [r1]
 8009220:	465b      	mov	r3, fp
 8009222:	f7f7 fa0d 	bl	8000640 <__aeabi_dmul>
 8009226:	4682      	mov	sl, r0
 8009228:	468b      	mov	fp, r1
 800922a:	f034 040f 	bics.w	r4, r4, #15
 800922e:	d073      	beq.n	8009318 <_strtod_l+0x510>
 8009230:	f5b4 7f9a 	cmp.w	r4, #308	@ 0x134
 8009234:	dd48      	ble.n	80092c8 <_strtod_l+0x4c0>
 8009236:	2400      	movs	r4, #0
 8009238:	46a0      	mov	r8, r4
 800923a:	46a1      	mov	r9, r4
 800923c:	940a      	str	r4, [sp, #40]	@ 0x28
 800923e:	2322      	movs	r3, #34	@ 0x22
 8009240:	f04f 0a00 	mov.w	sl, #0
 8009244:	9a05      	ldr	r2, [sp, #20]
 8009246:	f8df b144 	ldr.w	fp, [pc, #324]	@ 800938c <_strtod_l+0x584>
 800924a:	6013      	str	r3, [r2, #0]
 800924c:	9b0a      	ldr	r3, [sp, #40]	@ 0x28
 800924e:	2b00      	cmp	r3, #0
 8009250:	f43f ae13 	beq.w	8008e7a <_strtod_l+0x72>
 8009254:	991a      	ldr	r1, [sp, #104]	@ 0x68
 8009256:	9805      	ldr	r0, [sp, #20]
 8009258:	f7ff f94c 	bl	80084f4 <_Bfree>
 800925c:	4649      	mov	r1, r9
 800925e:	9805      	ldr	r0, [sp, #20]
 8009260:	f7ff f948 	bl	80084f4 <_Bfree>
 8009264:	4641      	mov	r1, r8
 8009266:	9805      	ldr	r0, [sp, #20]
 8009268:	f7ff f944 	bl	80084f4 <_Bfree>
 800926c:	990a      	ldr	r1, [sp, #40]	@ 0x28
 800926e:	9805      	ldr	r0, [sp, #20]
 8009270:	f7ff f940 	bl	80084f4 <_Bfree>
 8009274:	4621      	mov	r1, r4
 8009276:	9805      	ldr	r0, [sp, #20]
 8009278:	f7ff f93c 	bl	80084f4 <_Bfree>
 800927c:	e5fd      	b.n	8008e7a <_strtod_l+0x72>
 800927e:	9a09      	ldr	r2, [sp, #36]	@ 0x24
 8009280:	f1c5 0325 	rsb	r3, r5, #37	@ 0x25
 8009284:	4293      	cmp	r3, r2
 8009286:	dbbc      	blt.n	8009202 <_strtod_l+0x3fa>
 8009288:	4c42      	ldr	r4, [pc, #264]	@ (8009394 <_strtod_l+0x58c>)
 800928a:	f1c5 050f 	rsb	r5, r5, #15
 800928e:	eb04 01c5 	add.w	r1, r4, r5, lsl #3
 8009292:	4652      	mov	r2, sl
 8009294:	e9d1 0100 	ldrd	r0, r1, [r1]
 8009298:	465b      	mov	r3, fp
 800929a:	f7f7 f9d1 	bl	8000640 <__aeabi_dmul>
 800929e:	9b09      	ldr	r3, [sp, #36]	@ 0x24
 80092a0:	1b5d      	subs	r5, r3, r5
 80092a2:	eb04 04c5 	add.w	r4, r4, r5, lsl #3
 80092a6:	e9d4 2300 	ldrd	r2, r3, [r4]
 80092aa:	e791      	b.n	80091d0 <_strtod_l+0x3c8>
 80092ac:	3316      	adds	r3, #22
 80092ae:	dba8      	blt.n	8009202 <_strtod_l+0x3fa>
 80092b0:	4b38      	ldr	r3, [pc, #224]	@ (8009394 <_strtod_l+0x58c>)
 80092b2:	eba9 0808 	sub.w	r8, r9, r8
 80092b6:	eb03 08c8 	add.w	r8, r3, r8, lsl #3
 80092ba:	4650      	mov	r0, sl
 80092bc:	e9d8 2300 	ldrd	r2, r3, [r8]
 80092c0:	4659      	mov	r1, fp
 80092c2:	f7f7 fae7 	bl	8000894 <__aeabi_ddiv>
 80092c6:	e760      	b.n	800918a <_strtod_l+0x382>
 80092c8:	4b33      	ldr	r3, [pc, #204]	@ (8009398 <_strtod_l+0x590>)
 80092ca:	4650      	mov	r0, sl
 80092cc:	9308      	str	r3, [sp, #32]
 80092ce:	2300      	movs	r3, #0
 80092d0:	4659      	mov	r1, fp
 80092d2:	461e      	mov	r6, r3
 80092d4:	1124      	asrs	r4, r4, #4
 80092d6:	2c01      	cmp	r4, #1
 80092d8:	dc21      	bgt.n	800931e <_strtod_l+0x516>
 80092da:	b10b      	cbz	r3, 80092e0 <_strtod_l+0x4d8>
 80092dc:	4682      	mov	sl, r0
 80092de:	468b      	mov	fp, r1
 80092e0:	492d      	ldr	r1, [pc, #180]	@ (8009398 <_strtod_l+0x590>)
 80092e2:	f1ab 7b54 	sub.w	fp, fp, #55574528	@ 0x3500000
 80092e6:	eb01 01c6 	add.w	r1, r1, r6, lsl #3
 80092ea:	4652      	mov	r2, sl
 80092ec:	e9d1 0100 	ldrd	r0, r1, [r1]
 80092f0:	465b      	mov	r3, fp
 80092f2:	f7f7 f9a5 	bl	8000640 <__aeabi_dmul>
 80092f6:	4b25      	ldr	r3, [pc, #148]	@ (800938c <_strtod_l+0x584>)
 80092f8:	460a      	mov	r2, r1
 80092fa:	400b      	ands	r3, r1
 80092fc:	4927      	ldr	r1, [pc, #156]	@ (800939c <_strtod_l+0x594>)
 80092fe:	4682      	mov	sl, r0
 8009300:	428b      	cmp	r3, r1
 8009302:	d898      	bhi.n	8009236 <_strtod_l+0x42e>
 8009304:	f5a1 1180 	sub.w	r1, r1, #1048576	@ 0x100000
 8009308:	428b      	cmp	r3, r1
 800930a:	bf86      	itte	hi
 800930c:	f04f 3aff 	movhi.w	sl, #4294967295
 8009310:	f8df b08c 	ldrhi.w	fp, [pc, #140]	@ 80093a0 <_strtod_l+0x598>
 8009314:	f102 7b54 	addls.w	fp, r2, #55574528	@ 0x3500000
 8009318:	2300      	movs	r3, #0
 800931a:	9308      	str	r3, [sp, #32]
 800931c:	e07a      	b.n	8009414 <_strtod_l+0x60c>
 800931e:	07e2      	lsls	r2, r4, #31
 8009320:	d505      	bpl.n	800932e <_strtod_l+0x526>
 8009322:	9b08      	ldr	r3, [sp, #32]
 8009324:	e9d3 2300 	ldrd	r2, r3, [r3]
 8009328:	f7f7 f98a 	bl	8000640 <__aeabi_dmul>
 800932c:	2301      	movs	r3, #1
 800932e:	9a08      	ldr	r2, [sp, #32]
 8009330:	3601      	adds	r6, #1
 8009332:	3208      	adds	r2, #8
 8009334:	1064      	asrs	r4, r4, #1
 8009336:	9208      	str	r2, [sp, #32]
 8009338:	e7cd      	b.n	80092d6 <_strtod_l+0x4ce>
 800933a:	d0ed      	beq.n	8009318 <_strtod_l+0x510>
 800933c:	4264      	negs	r4, r4
 800933e:	f014 020f 	ands.w	r2, r4, #15
 8009342:	d00a      	beq.n	800935a <_strtod_l+0x552>
 8009344:	4b13      	ldr	r3, [pc, #76]	@ (8009394 <_strtod_l+0x58c>)
 8009346:	4650      	mov	r0, sl
 8009348:	eb03 03c2 	add.w	r3, r3, r2, lsl #3
 800934c:	4659      	mov	r1, fp
 800934e:	e9d3 2300 	ldrd	r2, r3, [r3]
 8009352:	f7f7 fa9f 	bl	8000894 <__aeabi_ddiv>
 8009356:	4682      	mov	sl, r0
 8009358:	468b      	mov	fp, r1
 800935a:	1124      	asrs	r4, r4, #4
 800935c:	d0dc      	beq.n	8009318 <_strtod_l+0x510>
 800935e:	2c1f      	cmp	r4, #31
 8009360:	dd20      	ble.n	80093a4 <_strtod_l+0x59c>
 8009362:	2400      	movs	r4, #0
 8009364:	46a0      	mov	r8, r4
 8009366:	46a1      	mov	r9, r4
 8009368:	940a      	str	r4, [sp, #40]	@ 0x28
 800936a:	2322      	movs	r3, #34	@ 0x22
 800936c:	9a05      	ldr	r2, [sp, #20]
 800936e:	f04f 0a00 	mov.w	sl, #0
 8009372:	f04f 0b00 	mov.w	fp, #0
 8009376:	6013      	str	r3, [r2, #0]
 8009378:	e768      	b.n	800924c <_strtod_l+0x444>
 800937a:	bf00      	nop
 800937c:	0800c9ba 	.word	0x0800c9ba
 8009380:	0800cc64 	.word	0x0800cc64
 8009384:	0800c9b2 	.word	0x0800c9b2
 8009388:	0800ca96 	.word	0x0800ca96
 800938c:	7ff00000 	.word	0x7ff00000
 8009390:	0800ca92 	.word	0x0800ca92
 8009394:	0800cb98 	.word	0x0800cb98
 8009398:	0800cb70 	.word	0x0800cb70
 800939c:	7ca00000 	.word	0x7ca00000
 80093a0:	7fefffff 	.word	0x7fefffff
 80093a4:	f014 0310 	ands.w	r3, r4, #16
 80093a8:	bf18      	it	ne
 80093aa:	236a      	movne	r3, #106	@ 0x6a
 80093ac:	4650      	mov	r0, sl
 80093ae:	9308      	str	r3, [sp, #32]
 80093b0:	4659      	mov	r1, fp
 80093b2:	2300      	movs	r3, #0
 80093b4:	4ea9      	ldr	r6, [pc, #676]	@ (800965c <_strtod_l+0x854>)
 80093b6:	07e2      	lsls	r2, r4, #31
 80093b8:	d504      	bpl.n	80093c4 <_strtod_l+0x5bc>
 80093ba:	e9d6 2300 	ldrd	r2, r3, [r6]
 80093be:	f7f7 f93f 	bl	8000640 <__aeabi_dmul>
 80093c2:	2301      	movs	r3, #1
 80093c4:	1064      	asrs	r4, r4, #1
 80093c6:	f106 0608 	add.w	r6, r6, #8
 80093ca:	d1f4      	bne.n	80093b6 <_strtod_l+0x5ae>
 80093cc:	b10b      	cbz	r3, 80093d2 <_strtod_l+0x5ca>
 80093ce:	4682      	mov	sl, r0
 80093d0:	468b      	mov	fp, r1
 80093d2:	9b08      	ldr	r3, [sp, #32]
 80093d4:	b1b3      	cbz	r3, 8009404 <_strtod_l+0x5fc>
 80093d6:	f3cb 520a 	ubfx	r2, fp, #20, #11
 80093da:	f1c2 036b 	rsb	r3, r2, #107	@ 0x6b
 80093de:	2b00      	cmp	r3, #0
 80093e0:	4659      	mov	r1, fp
 80093e2:	dd0f      	ble.n	8009404 <_strtod_l+0x5fc>
 80093e4:	2b1f      	cmp	r3, #31
 80093e6:	dd57      	ble.n	8009498 <_strtod_l+0x690>
 80093e8:	2b34      	cmp	r3, #52	@ 0x34
 80093ea:	bfd8      	it	le
 80093ec:	f04f 33ff 	movle.w	r3, #4294967295
 80093f0:	f04f 0a00 	mov.w	sl, #0
 80093f4:	bfcf      	iteee	gt
 80093f6:	f04f 7b5c 	movgt.w	fp, #57671680	@ 0x3700000
 80093fa:	f1c2 024b 	rsble	r2, r2, #75	@ 0x4b
 80093fe:	4093      	lslle	r3, r2
 8009400:	ea03 0b01 	andle.w	fp, r3, r1
 8009404:	2200      	movs	r2, #0
 8009406:	2300      	movs	r3, #0
 8009408:	4650      	mov	r0, sl
 800940a:	4659      	mov	r1, fp
 800940c:	f7f7 fb80 	bl	8000b10 <__aeabi_dcmpeq>
 8009410:	2800      	cmp	r0, #0
 8009412:	d1a6      	bne.n	8009362 <_strtod_l+0x55a>
 8009414:	9b0a      	ldr	r3, [sp, #40]	@ 0x28
 8009416:	463a      	mov	r2, r7
 8009418:	9300      	str	r3, [sp, #0]
 800941a:	990c      	ldr	r1, [sp, #48]	@ 0x30
 800941c:	462b      	mov	r3, r5
 800941e:	9805      	ldr	r0, [sp, #20]
 8009420:	f7ff f8d0 	bl	80085c4 <__s2b>
 8009424:	900a      	str	r0, [sp, #40]	@ 0x28
 8009426:	2800      	cmp	r0, #0
 8009428:	f43f af05 	beq.w	8009236 <_strtod_l+0x42e>
 800942c:	2400      	movs	r4, #0
 800942e:	9a09      	ldr	r2, [sp, #36]	@ 0x24
 8009430:	eba9 0308 	sub.w	r3, r9, r8
 8009434:	2a00      	cmp	r2, #0
 8009436:	bfa8      	it	ge
 8009438:	2300      	movge	r3, #0
 800943a:	46a0      	mov	r8, r4
 800943c:	9312      	str	r3, [sp, #72]	@ 0x48
 800943e:	ea22 73e2 	bic.w	r3, r2, r2, asr #31
 8009442:	9316      	str	r3, [sp, #88]	@ 0x58
 8009444:	9b0a      	ldr	r3, [sp, #40]	@ 0x28
 8009446:	9805      	ldr	r0, [sp, #20]
 8009448:	6859      	ldr	r1, [r3, #4]
 800944a:	f7ff f813 	bl	8008474 <_Balloc>
 800944e:	4681      	mov	r9, r0
 8009450:	2800      	cmp	r0, #0
 8009452:	f43f aef4 	beq.w	800923e <_strtod_l+0x436>
 8009456:	9b0a      	ldr	r3, [sp, #40]	@ 0x28
 8009458:	300c      	adds	r0, #12
 800945a:	691a      	ldr	r2, [r3, #16]
 800945c:	f103 010c 	add.w	r1, r3, #12
 8009460:	3202      	adds	r2, #2
 8009462:	0092      	lsls	r2, r2, #2
 8009464:	f7fe f887 	bl	8007576 <memcpy>
 8009468:	ab1c      	add	r3, sp, #112	@ 0x70
 800946a:	9301      	str	r3, [sp, #4]
 800946c:	ab1b      	add	r3, sp, #108	@ 0x6c
 800946e:	9300      	str	r3, [sp, #0]
 8009470:	4652      	mov	r2, sl
 8009472:	465b      	mov	r3, fp
 8009474:	9805      	ldr	r0, [sp, #20]
 8009476:	e9cd ab0c 	strd	sl, fp, [sp, #48]	@ 0x30
 800947a:	f7ff fbd5 	bl	8008c28 <__d2b>
 800947e:	901a      	str	r0, [sp, #104]	@ 0x68
 8009480:	2800      	cmp	r0, #0
 8009482:	f43f aedc 	beq.w	800923e <_strtod_l+0x436>
 8009486:	2101      	movs	r1, #1
 8009488:	9805      	ldr	r0, [sp, #20]
 800948a:	f7ff f931 	bl	80086f0 <__i2b>
 800948e:	4680      	mov	r8, r0
 8009490:	b948      	cbnz	r0, 80094a6 <_strtod_l+0x69e>
 8009492:	f04f 0800 	mov.w	r8, #0
 8009496:	e6d2      	b.n	800923e <_strtod_l+0x436>
 8009498:	f04f 32ff 	mov.w	r2, #4294967295
 800949c:	fa02 f303 	lsl.w	r3, r2, r3
 80094a0:	ea03 0a0a 	and.w	sl, r3, sl
 80094a4:	e7ae      	b.n	8009404 <_strtod_l+0x5fc>
 80094a6:	9d1b      	ldr	r5, [sp, #108]	@ 0x6c
 80094a8:	9a1c      	ldr	r2, [sp, #112]	@ 0x70
 80094aa:	2d00      	cmp	r5, #0
 80094ac:	bfab      	itete	ge
 80094ae:	9b12      	ldrge	r3, [sp, #72]	@ 0x48
 80094b0:	9b16      	ldrlt	r3, [sp, #88]	@ 0x58
 80094b2:	18ef      	addge	r7, r5, r3
 80094b4:	1b5e      	sublt	r6, r3, r5
 80094b6:	9b08      	ldr	r3, [sp, #32]
 80094b8:	bfa8      	it	ge
 80094ba:	9e16      	ldrge	r6, [sp, #88]	@ 0x58
 80094bc:	eba5 0503 	sub.w	r5, r5, r3
 80094c0:	4415      	add	r5, r2
 80094c2:	4b67      	ldr	r3, [pc, #412]	@ (8009660 <_strtod_l+0x858>)
 80094c4:	f105 35ff 	add.w	r5, r5, #4294967295
 80094c8:	bfb8      	it	lt
 80094ca:	9f12      	ldrlt	r7, [sp, #72]	@ 0x48
 80094cc:	429d      	cmp	r5, r3
 80094ce:	f1c2 0236 	rsb	r2, r2, #54	@ 0x36
 80094d2:	da50      	bge.n	8009576 <_strtod_l+0x76e>
 80094d4:	1b5b      	subs	r3, r3, r5
 80094d6:	2b1f      	cmp	r3, #31
 80094d8:	f04f 0101 	mov.w	r1, #1
 80094dc:	eba2 0203 	sub.w	r2, r2, r3
 80094e0:	dc3d      	bgt.n	800955e <_strtod_l+0x756>
 80094e2:	fa01 f303 	lsl.w	r3, r1, r3
 80094e6:	9313      	str	r3, [sp, #76]	@ 0x4c
 80094e8:	2300      	movs	r3, #0
 80094ea:	9310      	str	r3, [sp, #64]	@ 0x40
 80094ec:	18bd      	adds	r5, r7, r2
 80094ee:	9b08      	ldr	r3, [sp, #32]
 80094f0:	42af      	cmp	r7, r5
 80094f2:	4416      	add	r6, r2
 80094f4:	441e      	add	r6, r3
 80094f6:	463b      	mov	r3, r7
 80094f8:	bfa8      	it	ge
 80094fa:	462b      	movge	r3, r5
 80094fc:	42b3      	cmp	r3, r6
 80094fe:	bfa8      	it	ge
 8009500:	4633      	movge	r3, r6
 8009502:	2b00      	cmp	r3, #0
 8009504:	bfc2      	ittt	gt
 8009506:	1aed      	subgt	r5, r5, r3
 8009508:	1af6      	subgt	r6, r6, r3
 800950a:	1aff      	subgt	r7, r7, r3
 800950c:	9b12      	ldr	r3, [sp, #72]	@ 0x48
 800950e:	2b00      	cmp	r3, #0
 8009510:	dd16      	ble.n	8009540 <_strtod_l+0x738>
 8009512:	4641      	mov	r1, r8
 8009514:	461a      	mov	r2, r3
 8009516:	9805      	ldr	r0, [sp, #20]
 8009518:	f7ff f9a8 	bl	800886c <__pow5mult>
 800951c:	4680      	mov	r8, r0
 800951e:	2800      	cmp	r0, #0
 8009520:	d0b7      	beq.n	8009492 <_strtod_l+0x68a>
 8009522:	4601      	mov	r1, r0
 8009524:	9a1a      	ldr	r2, [sp, #104]	@ 0x68
 8009526:	9805      	ldr	r0, [sp, #20]
 8009528:	f7ff f8f8 	bl	800871c <__multiply>
 800952c:	900e      	str	r0, [sp, #56]	@ 0x38
 800952e:	2800      	cmp	r0, #0
 8009530:	f43f ae85 	beq.w	800923e <_strtod_l+0x436>
 8009534:	991a      	ldr	r1, [sp, #104]	@ 0x68
 8009536:	9805      	ldr	r0, [sp, #20]
 8009538:	f7fe ffdc 	bl	80084f4 <_Bfree>
 800953c:	9b0e      	ldr	r3, [sp, #56]	@ 0x38
 800953e:	931a      	str	r3, [sp, #104]	@ 0x68
 8009540:	2d00      	cmp	r5, #0
 8009542:	dc1d      	bgt.n	8009580 <_strtod_l+0x778>
 8009544:	9b09      	ldr	r3, [sp, #36]	@ 0x24
 8009546:	2b00      	cmp	r3, #0
 8009548:	dd23      	ble.n	8009592 <_strtod_l+0x78a>
 800954a:	4649      	mov	r1, r9
 800954c:	9a16      	ldr	r2, [sp, #88]	@ 0x58
 800954e:	9805      	ldr	r0, [sp, #20]
 8009550:	f7ff f98c 	bl	800886c <__pow5mult>
 8009554:	4681      	mov	r9, r0
 8009556:	b9e0      	cbnz	r0, 8009592 <_strtod_l+0x78a>
 8009558:	f04f 0900 	mov.w	r9, #0
 800955c:	e66f      	b.n	800923e <_strtod_l+0x436>
 800955e:	f1c5 457f 	rsb	r5, r5, #4278190080	@ 0xff000000
 8009562:	f505 057f 	add.w	r5, r5, #16711680	@ 0xff0000
 8009566:	f505 457b 	add.w	r5, r5, #64256	@ 0xfb00
 800956a:	35e2      	adds	r5, #226	@ 0xe2
 800956c:	fa01 f305 	lsl.w	r3, r1, r5
 8009570:	9310      	str	r3, [sp, #64]	@ 0x40
 8009572:	9113      	str	r1, [sp, #76]	@ 0x4c
 8009574:	e7ba      	b.n	80094ec <_strtod_l+0x6e4>
 8009576:	2300      	movs	r3, #0
 8009578:	9310      	str	r3, [sp, #64]	@ 0x40
 800957a:	2301      	movs	r3, #1
 800957c:	9313      	str	r3, [sp, #76]	@ 0x4c
 800957e:	e7b5      	b.n	80094ec <_strtod_l+0x6e4>
 8009580:	462a      	mov	r2, r5
 8009582:	991a      	ldr	r1, [sp, #104]	@ 0x68
 8009584:	9805      	ldr	r0, [sp, #20]
 8009586:	f7ff f9cb 	bl	8008920 <__lshift>
 800958a:	901a      	str	r0, [sp, #104]	@ 0x68
 800958c:	2800      	cmp	r0, #0
 800958e:	d1d9      	bne.n	8009544 <_strtod_l+0x73c>
 8009590:	e655      	b.n	800923e <_strtod_l+0x436>
 8009592:	2e00      	cmp	r6, #0
 8009594:	dd07      	ble.n	80095a6 <_strtod_l+0x79e>
 8009596:	4649      	mov	r1, r9
 8009598:	4632      	mov	r2, r6
 800959a:	9805      	ldr	r0, [sp, #20]
 800959c:	f7ff f9c0 	bl	8008920 <__lshift>
 80095a0:	4681      	mov	r9, r0
 80095a2:	2800      	cmp	r0, #0
 80095a4:	d0d8      	beq.n	8009558 <_strtod_l+0x750>
 80095a6:	2f00      	cmp	r7, #0
 80095a8:	dd08      	ble.n	80095bc <_strtod_l+0x7b4>
 80095aa:	4641      	mov	r1, r8
 80095ac:	463a      	mov	r2, r7
 80095ae:	9805      	ldr	r0, [sp, #20]
 80095b0:	f7ff f9b6 	bl	8008920 <__lshift>
 80095b4:	4680      	mov	r8, r0
 80095b6:	2800      	cmp	r0, #0
 80095b8:	f43f ae41 	beq.w	800923e <_strtod_l+0x436>
 80095bc:	464a      	mov	r2, r9
 80095be:	991a      	ldr	r1, [sp, #104]	@ 0x68
 80095c0:	9805      	ldr	r0, [sp, #20]
 80095c2:	f7ff fa35 	bl	8008a30 <__mdiff>
 80095c6:	4604      	mov	r4, r0
 80095c8:	2800      	cmp	r0, #0
 80095ca:	f43f ae38 	beq.w	800923e <_strtod_l+0x436>
 80095ce:	68c3      	ldr	r3, [r0, #12]
 80095d0:	4641      	mov	r1, r8
 80095d2:	930f      	str	r3, [sp, #60]	@ 0x3c
 80095d4:	2300      	movs	r3, #0
 80095d6:	60c3      	str	r3, [r0, #12]
 80095d8:	f7ff fa0e 	bl	80089f8 <__mcmp>
 80095dc:	2800      	cmp	r0, #0
 80095de:	da45      	bge.n	800966c <_strtod_l+0x864>
 80095e0:	9b0f      	ldr	r3, [sp, #60]	@ 0x3c
 80095e2:	ea53 030a 	orrs.w	r3, r3, sl
 80095e6:	d16b      	bne.n	80096c0 <_strtod_l+0x8b8>
 80095e8:	f3cb 0313 	ubfx	r3, fp, #0, #20
 80095ec:	2b00      	cmp	r3, #0
 80095ee:	d167      	bne.n	80096c0 <_strtod_l+0x8b8>
 80095f0:	f02b 4300 	bic.w	r3, fp, #2147483648	@ 0x80000000
 80095f4:	0d1b      	lsrs	r3, r3, #20
 80095f6:	051b      	lsls	r3, r3, #20
 80095f8:	f1b3 6fd6 	cmp.w	r3, #112197632	@ 0x6b00000
 80095fc:	d960      	bls.n	80096c0 <_strtod_l+0x8b8>
 80095fe:	6963      	ldr	r3, [r4, #20]
 8009600:	b913      	cbnz	r3, 8009608 <_strtod_l+0x800>
 8009602:	6923      	ldr	r3, [r4, #16]
 8009604:	2b01      	cmp	r3, #1
 8009606:	dd5b      	ble.n	80096c0 <_strtod_l+0x8b8>
 8009608:	4621      	mov	r1, r4
 800960a:	2201      	movs	r2, #1
 800960c:	9805      	ldr	r0, [sp, #20]
 800960e:	f7ff f987 	bl	8008920 <__lshift>
 8009612:	4641      	mov	r1, r8
 8009614:	4604      	mov	r4, r0
 8009616:	f7ff f9ef 	bl	80089f8 <__mcmp>
 800961a:	2800      	cmp	r0, #0
 800961c:	dd50      	ble.n	80096c0 <_strtod_l+0x8b8>
 800961e:	f02b 4300 	bic.w	r3, fp, #2147483648	@ 0x80000000
 8009622:	9a08      	ldr	r2, [sp, #32]
 8009624:	0d1b      	lsrs	r3, r3, #20
 8009626:	051b      	lsls	r3, r3, #20
 8009628:	2a00      	cmp	r2, #0
 800962a:	d06a      	beq.n	8009702 <_strtod_l+0x8fa>
 800962c:	f1b3 6fd6 	cmp.w	r3, #112197632	@ 0x6b00000
 8009630:	d867      	bhi.n	8009702 <_strtod_l+0x8fa>
 8009632:	f1b3 7f5c 	cmp.w	r3, #57671680	@ 0x3700000
 8009636:	f67f ae98 	bls.w	800936a <_strtod_l+0x562>
 800963a:	4650      	mov	r0, sl
 800963c:	4659      	mov	r1, fp
 800963e:	4b09      	ldr	r3, [pc, #36]	@ (8009664 <_strtod_l+0x85c>)
 8009640:	2200      	movs	r2, #0
 8009642:	f7f6 fffd 	bl	8000640 <__aeabi_dmul>
 8009646:	4b08      	ldr	r3, [pc, #32]	@ (8009668 <_strtod_l+0x860>)
 8009648:	4682      	mov	sl, r0
 800964a:	400b      	ands	r3, r1
 800964c:	468b      	mov	fp, r1
 800964e:	2b00      	cmp	r3, #0
 8009650:	f47f ae00 	bne.w	8009254 <_strtod_l+0x44c>
 8009654:	2322      	movs	r3, #34	@ 0x22
 8009656:	9a05      	ldr	r2, [sp, #20]
 8009658:	6013      	str	r3, [r2, #0]
 800965a:	e5fb      	b.n	8009254 <_strtod_l+0x44c>
 800965c:	0800cc90 	.word	0x0800cc90
 8009660:	fffffc02 	.word	0xfffffc02
 8009664:	39500000 	.word	0x39500000
 8009668:	7ff00000 	.word	0x7ff00000
 800966c:	f8cd b038 	str.w	fp, [sp, #56]	@ 0x38
 8009670:	d165      	bne.n	800973e <_strtod_l+0x936>
 8009672:	9a0f      	ldr	r2, [sp, #60]	@ 0x3c
 8009674:	f3cb 0313 	ubfx	r3, fp, #0, #20
 8009678:	b35a      	cbz	r2, 80096d2 <_strtod_l+0x8ca>
 800967a:	4a99      	ldr	r2, [pc, #612]	@ (80098e0 <_strtod_l+0xad8>)
 800967c:	4293      	cmp	r3, r2
 800967e:	d12b      	bne.n	80096d8 <_strtod_l+0x8d0>
 8009680:	9b08      	ldr	r3, [sp, #32]
 8009682:	4651      	mov	r1, sl
 8009684:	b303      	cbz	r3, 80096c8 <_strtod_l+0x8c0>
 8009686:	465a      	mov	r2, fp
 8009688:	4b96      	ldr	r3, [pc, #600]	@ (80098e4 <_strtod_l+0xadc>)
 800968a:	4013      	ands	r3, r2
 800968c:	f1b3 6fd4 	cmp.w	r3, #111149056	@ 0x6a00000
 8009690:	f04f 32ff 	mov.w	r2, #4294967295
 8009694:	d81b      	bhi.n	80096ce <_strtod_l+0x8c6>
 8009696:	0d1b      	lsrs	r3, r3, #20
 8009698:	f1c3 036b 	rsb	r3, r3, #107	@ 0x6b
 800969c:	fa02 f303 	lsl.w	r3, r2, r3
 80096a0:	4299      	cmp	r1, r3
 80096a2:	d119      	bne.n	80096d8 <_strtod_l+0x8d0>
 80096a4:	4b90      	ldr	r3, [pc, #576]	@ (80098e8 <_strtod_l+0xae0>)
 80096a6:	9a0e      	ldr	r2, [sp, #56]	@ 0x38
 80096a8:	429a      	cmp	r2, r3
 80096aa:	d102      	bne.n	80096b2 <_strtod_l+0x8aa>
 80096ac:	3101      	adds	r1, #1
 80096ae:	f43f adc6 	beq.w	800923e <_strtod_l+0x436>
 80096b2:	f04f 0a00 	mov.w	sl, #0
 80096b6:	4b8b      	ldr	r3, [pc, #556]	@ (80098e4 <_strtod_l+0xadc>)
 80096b8:	9a0e      	ldr	r2, [sp, #56]	@ 0x38
 80096ba:	401a      	ands	r2, r3
 80096bc:	f502 1b80 	add.w	fp, r2, #1048576	@ 0x100000
 80096c0:	9b08      	ldr	r3, [sp, #32]
 80096c2:	2b00      	cmp	r3, #0
 80096c4:	d1b9      	bne.n	800963a <_strtod_l+0x832>
 80096c6:	e5c5      	b.n	8009254 <_strtod_l+0x44c>
 80096c8:	f04f 33ff 	mov.w	r3, #4294967295
 80096cc:	e7e8      	b.n	80096a0 <_strtod_l+0x898>
 80096ce:	4613      	mov	r3, r2
 80096d0:	e7e6      	b.n	80096a0 <_strtod_l+0x898>
 80096d2:	ea53 030a 	orrs.w	r3, r3, sl
 80096d6:	d0a2      	beq.n	800961e <_strtod_l+0x816>
 80096d8:	9b10      	ldr	r3, [sp, #64]	@ 0x40
 80096da:	b1db      	cbz	r3, 8009714 <_strtod_l+0x90c>
 80096dc:	9a0e      	ldr	r2, [sp, #56]	@ 0x38
 80096de:	4213      	tst	r3, r2
 80096e0:	d0ee      	beq.n	80096c0 <_strtod_l+0x8b8>
 80096e2:	9b0f      	ldr	r3, [sp, #60]	@ 0x3c
 80096e4:	4650      	mov	r0, sl
 80096e6:	4659      	mov	r1, fp
 80096e8:	9a08      	ldr	r2, [sp, #32]
 80096ea:	b1bb      	cbz	r3, 800971c <_strtod_l+0x914>
 80096ec:	f7ff fb68 	bl	8008dc0 <sulp>
 80096f0:	4602      	mov	r2, r0
 80096f2:	460b      	mov	r3, r1
 80096f4:	e9dd 010c 	ldrd	r0, r1, [sp, #48]	@ 0x30
 80096f8:	f7f6 fdec 	bl	80002d4 <__adddf3>
 80096fc:	4682      	mov	sl, r0
 80096fe:	468b      	mov	fp, r1
 8009700:	e7de      	b.n	80096c0 <_strtod_l+0x8b8>
 8009702:	f5a3 1380 	sub.w	r3, r3, #1048576	@ 0x100000
 8009706:	ea6f 5b13 	mvn.w	fp, r3, lsr #20
 800970a:	f04f 3aff 	mov.w	sl, #4294967295
 800970e:	ea6f 5b0b 	mvn.w	fp, fp, lsl #20
 8009712:	e7d5      	b.n	80096c0 <_strtod_l+0x8b8>
 8009714:	9b13      	ldr	r3, [sp, #76]	@ 0x4c
 8009716:	ea13 0f0a 	tst.w	r3, sl
 800971a:	e7e1      	b.n	80096e0 <_strtod_l+0x8d8>
 800971c:	f7ff fb50 	bl	8008dc0 <sulp>
 8009720:	4602      	mov	r2, r0
 8009722:	460b      	mov	r3, r1
 8009724:	e9dd 010c 	ldrd	r0, r1, [sp, #48]	@ 0x30
 8009728:	f7f6 fdd2 	bl	80002d0 <__aeabi_dsub>
 800972c:	2200      	movs	r2, #0
 800972e:	2300      	movs	r3, #0
 8009730:	4682      	mov	sl, r0
 8009732:	468b      	mov	fp, r1
 8009734:	f7f7 f9ec 	bl	8000b10 <__aeabi_dcmpeq>
 8009738:	2800      	cmp	r0, #0
 800973a:	d0c1      	beq.n	80096c0 <_strtod_l+0x8b8>
 800973c:	e615      	b.n	800936a <_strtod_l+0x562>
 800973e:	4641      	mov	r1, r8
 8009740:	4620      	mov	r0, r4
 8009742:	f7ff fac9 	bl	8008cd8 <__ratio>
 8009746:	2200      	movs	r2, #0
 8009748:	f04f 4380 	mov.w	r3, #1073741824	@ 0x40000000
 800974c:	4606      	mov	r6, r0
 800974e:	460f      	mov	r7, r1
 8009750:	f7f7 f9f2 	bl	8000b38 <__aeabi_dcmple>
 8009754:	2800      	cmp	r0, #0
 8009756:	d06d      	beq.n	8009834 <_strtod_l+0xa2c>
 8009758:	9b0f      	ldr	r3, [sp, #60]	@ 0x3c
 800975a:	2b00      	cmp	r3, #0
 800975c:	d178      	bne.n	8009850 <_strtod_l+0xa48>
 800975e:	f1ba 0f00 	cmp.w	sl, #0
 8009762:	d156      	bne.n	8009812 <_strtod_l+0xa0a>
 8009764:	9b0e      	ldr	r3, [sp, #56]	@ 0x38
 8009766:	f3c3 0313 	ubfx	r3, r3, #0, #20
 800976a:	2b00      	cmp	r3, #0
 800976c:	d158      	bne.n	8009820 <_strtod_l+0xa18>
 800976e:	2200      	movs	r2, #0
 8009770:	4630      	mov	r0, r6
 8009772:	4639      	mov	r1, r7
 8009774:	4b5d      	ldr	r3, [pc, #372]	@ (80098ec <_strtod_l+0xae4>)
 8009776:	f7f7 f9d5 	bl	8000b24 <__aeabi_dcmplt>
 800977a:	2800      	cmp	r0, #0
 800977c:	d157      	bne.n	800982e <_strtod_l+0xa26>
 800977e:	4630      	mov	r0, r6
 8009780:	4639      	mov	r1, r7
 8009782:	2200      	movs	r2, #0
 8009784:	4b5a      	ldr	r3, [pc, #360]	@ (80098f0 <_strtod_l+0xae8>)
 8009786:	f7f6 ff5b 	bl	8000640 <__aeabi_dmul>
 800978a:	4606      	mov	r6, r0
 800978c:	460f      	mov	r7, r1
 800978e:	f107 4300 	add.w	r3, r7, #2147483648	@ 0x80000000
 8009792:	9606      	str	r6, [sp, #24]
 8009794:	9307      	str	r3, [sp, #28]
 8009796:	e9dd 2306 	ldrd	r2, r3, [sp, #24]
 800979a:	4d52      	ldr	r5, [pc, #328]	@ (80098e4 <_strtod_l+0xadc>)
 800979c:	e9cd 2310 	strd	r2, r3, [sp, #64]	@ 0x40
 80097a0:	9b0e      	ldr	r3, [sp, #56]	@ 0x38
 80097a2:	401d      	ands	r5, r3
 80097a4:	4b53      	ldr	r3, [pc, #332]	@ (80098f4 <_strtod_l+0xaec>)
 80097a6:	429d      	cmp	r5, r3
 80097a8:	f040 80aa 	bne.w	8009900 <_strtod_l+0xaf8>
 80097ac:	9b0e      	ldr	r3, [sp, #56]	@ 0x38
 80097ae:	4650      	mov	r0, sl
 80097b0:	f1a3 7b54 	sub.w	fp, r3, #55574528	@ 0x3500000
 80097b4:	4659      	mov	r1, fp
 80097b6:	f7ff f9cf 	bl	8008b58 <__ulp>
 80097ba:	e9dd 2306 	ldrd	r2, r3, [sp, #24]
 80097be:	f7f6 ff3f 	bl	8000640 <__aeabi_dmul>
 80097c2:	4652      	mov	r2, sl
 80097c4:	465b      	mov	r3, fp
 80097c6:	f7f6 fd85 	bl	80002d4 <__adddf3>
 80097ca:	460b      	mov	r3, r1
 80097cc:	4945      	ldr	r1, [pc, #276]	@ (80098e4 <_strtod_l+0xadc>)
 80097ce:	4a4a      	ldr	r2, [pc, #296]	@ (80098f8 <_strtod_l+0xaf0>)
 80097d0:	4019      	ands	r1, r3
 80097d2:	4291      	cmp	r1, r2
 80097d4:	4682      	mov	sl, r0
 80097d6:	d942      	bls.n	800985e <_strtod_l+0xa56>
 80097d8:	9a0d      	ldr	r2, [sp, #52]	@ 0x34
 80097da:	4b43      	ldr	r3, [pc, #268]	@ (80098e8 <_strtod_l+0xae0>)
 80097dc:	429a      	cmp	r2, r3
 80097de:	d103      	bne.n	80097e8 <_strtod_l+0x9e0>
 80097e0:	9b0c      	ldr	r3, [sp, #48]	@ 0x30
 80097e2:	3301      	adds	r3, #1
 80097e4:	f43f ad2b 	beq.w	800923e <_strtod_l+0x436>
 80097e8:	f04f 3aff 	mov.w	sl, #4294967295
 80097ec:	f8df b0f8 	ldr.w	fp, [pc, #248]	@ 80098e8 <_strtod_l+0xae0>
 80097f0:	991a      	ldr	r1, [sp, #104]	@ 0x68
 80097f2:	9805      	ldr	r0, [sp, #20]
 80097f4:	f7fe fe7e 	bl	80084f4 <_Bfree>
 80097f8:	4649      	mov	r1, r9
 80097fa:	9805      	ldr	r0, [sp, #20]
 80097fc:	f7fe fe7a 	bl	80084f4 <_Bfree>
 8009800:	4641      	mov	r1, r8
 8009802:	9805      	ldr	r0, [sp, #20]
 8009804:	f7fe fe76 	bl	80084f4 <_Bfree>
 8009808:	4621      	mov	r1, r4
 800980a:	9805      	ldr	r0, [sp, #20]
 800980c:	f7fe fe72 	bl	80084f4 <_Bfree>
 8009810:	e618      	b.n	8009444 <_strtod_l+0x63c>
 8009812:	f1ba 0f01 	cmp.w	sl, #1
 8009816:	d103      	bne.n	8009820 <_strtod_l+0xa18>
 8009818:	9b0e      	ldr	r3, [sp, #56]	@ 0x38
 800981a:	2b00      	cmp	r3, #0
 800981c:	f43f ada5 	beq.w	800936a <_strtod_l+0x562>
 8009820:	2200      	movs	r2, #0
 8009822:	4b36      	ldr	r3, [pc, #216]	@ (80098fc <_strtod_l+0xaf4>)
 8009824:	2600      	movs	r6, #0
 8009826:	e9cd 2306 	strd	r2, r3, [sp, #24]
 800982a:	4f30      	ldr	r7, [pc, #192]	@ (80098ec <_strtod_l+0xae4>)
 800982c:	e7b3      	b.n	8009796 <_strtod_l+0x98e>
 800982e:	2600      	movs	r6, #0
 8009830:	4f2f      	ldr	r7, [pc, #188]	@ (80098f0 <_strtod_l+0xae8>)
 8009832:	e7ac      	b.n	800978e <_strtod_l+0x986>
 8009834:	4630      	mov	r0, r6
 8009836:	4639      	mov	r1, r7
 8009838:	4b2d      	ldr	r3, [pc, #180]	@ (80098f0 <_strtod_l+0xae8>)
 800983a:	2200      	movs	r2, #0
 800983c:	f7f6 ff00 	bl	8000640 <__aeabi_dmul>
 8009840:	9b0f      	ldr	r3, [sp, #60]	@ 0x3c
 8009842:	4606      	mov	r6, r0
 8009844:	460f      	mov	r7, r1
 8009846:	2b00      	cmp	r3, #0
 8009848:	d0a1      	beq.n	800978e <_strtod_l+0x986>
 800984a:	e9cd 6706 	strd	r6, r7, [sp, #24]
 800984e:	e7a2      	b.n	8009796 <_strtod_l+0x98e>
 8009850:	2200      	movs	r2, #0
 8009852:	4b26      	ldr	r3, [pc, #152]	@ (80098ec <_strtod_l+0xae4>)
 8009854:	4616      	mov	r6, r2
 8009856:	461f      	mov	r7, r3
 8009858:	e9cd 2306 	strd	r2, r3, [sp, #24]
 800985c:	e79b      	b.n	8009796 <_strtod_l+0x98e>
 800985e:	f103 7b54 	add.w	fp, r3, #55574528	@ 0x3500000
 8009862:	9b08      	ldr	r3, [sp, #32]
 8009864:	f8cd b038 	str.w	fp, [sp, #56]	@ 0x38
 8009868:	2b00      	cmp	r3, #0
 800986a:	d1c1      	bne.n	80097f0 <_strtod_l+0x9e8>
 800986c:	f02b 4300 	bic.w	r3, fp, #2147483648	@ 0x80000000
 8009870:	0d1b      	lsrs	r3, r3, #20
 8009872:	051b      	lsls	r3, r3, #20
 8009874:	429d      	cmp	r5, r3
 8009876:	d1bb      	bne.n	80097f0 <_strtod_l+0x9e8>
 8009878:	4630      	mov	r0, r6
 800987a:	4639      	mov	r1, r7
 800987c:	f7f7 fb56 	bl	8000f2c <__aeabi_d2lz>
 8009880:	f7f6 feb0 	bl	80005e4 <__aeabi_l2d>
 8009884:	4602      	mov	r2, r0
 8009886:	460b      	mov	r3, r1
 8009888:	4630      	mov	r0, r6
 800988a:	4639      	mov	r1, r7
 800988c:	f7f6 fd20 	bl	80002d0 <__aeabi_dsub>
 8009890:	460b      	mov	r3, r1
 8009892:	4602      	mov	r2, r0
 8009894:	f3cb 0613 	ubfx	r6, fp, #0, #20
 8009898:	e9cd 230c 	strd	r2, r3, [sp, #48]	@ 0x30
 800989c:	9b0f      	ldr	r3, [sp, #60]	@ 0x3c
 800989e:	ea46 060a 	orr.w	r6, r6, sl
 80098a2:	431e      	orrs	r6, r3
 80098a4:	d069      	beq.n	800997a <_strtod_l+0xb72>
 80098a6:	a30a      	add	r3, pc, #40	@ (adr r3, 80098d0 <_strtod_l+0xac8>)
 80098a8:	e9d3 2300 	ldrd	r2, r3, [r3]
 80098ac:	f7f7 f93a 	bl	8000b24 <__aeabi_dcmplt>
 80098b0:	2800      	cmp	r0, #0
 80098b2:	f47f accf 	bne.w	8009254 <_strtod_l+0x44c>
 80098b6:	a308      	add	r3, pc, #32	@ (adr r3, 80098d8 <_strtod_l+0xad0>)
 80098b8:	e9d3 2300 	ldrd	r2, r3, [r3]
 80098bc:	e9dd 010c 	ldrd	r0, r1, [sp, #48]	@ 0x30
 80098c0:	f7f7 f94e 	bl	8000b60 <__aeabi_dcmpgt>
 80098c4:	2800      	cmp	r0, #0
 80098c6:	d093      	beq.n	80097f0 <_strtod_l+0x9e8>
 80098c8:	e4c4      	b.n	8009254 <_strtod_l+0x44c>
 80098ca:	bf00      	nop
 80098cc:	f3af 8000 	nop.w
 80098d0:	94a03595 	.word	0x94a03595
 80098d4:	3fdfffff 	.word	0x3fdfffff
 80098d8:	35afe535 	.word	0x35afe535
 80098dc:	3fe00000 	.word	0x3fe00000
 80098e0:	000fffff 	.word	0x000fffff
 80098e4:	7ff00000 	.word	0x7ff00000
 80098e8:	7fefffff 	.word	0x7fefffff
 80098ec:	3ff00000 	.word	0x3ff00000
 80098f0:	3fe00000 	.word	0x3fe00000
 80098f4:	7fe00000 	.word	0x7fe00000
 80098f8:	7c9fffff 	.word	0x7c9fffff
 80098fc:	bff00000 	.word	0xbff00000
 8009900:	9b08      	ldr	r3, [sp, #32]
 8009902:	b323      	cbz	r3, 800994e <_strtod_l+0xb46>
 8009904:	f1b5 6fd4 	cmp.w	r5, #111149056	@ 0x6a00000
 8009908:	d821      	bhi.n	800994e <_strtod_l+0xb46>
 800990a:	a327      	add	r3, pc, #156	@ (adr r3, 80099a8 <_strtod_l+0xba0>)
 800990c:	e9d3 2300 	ldrd	r2, r3, [r3]
 8009910:	4630      	mov	r0, r6
 8009912:	4639      	mov	r1, r7
 8009914:	f7f7 f910 	bl	8000b38 <__aeabi_dcmple>
 8009918:	b1a0      	cbz	r0, 8009944 <_strtod_l+0xb3c>
 800991a:	4639      	mov	r1, r7
 800991c:	4630      	mov	r0, r6
 800991e:	f7f7 f967 	bl	8000bf0 <__aeabi_d2uiz>
 8009922:	2801      	cmp	r0, #1
 8009924:	bf38      	it	cc
 8009926:	2001      	movcc	r0, #1
 8009928:	f7f6 fe10 	bl	800054c <__aeabi_ui2d>
 800992c:	9b0f      	ldr	r3, [sp, #60]	@ 0x3c
 800992e:	4606      	mov	r6, r0
 8009930:	460f      	mov	r7, r1
 8009932:	b9fb      	cbnz	r3, 8009974 <_strtod_l+0xb6c>
 8009934:	f101 4300 	add.w	r3, r1, #2147483648	@ 0x80000000
 8009938:	9014      	str	r0, [sp, #80]	@ 0x50
 800993a:	9315      	str	r3, [sp, #84]	@ 0x54
 800993c:	e9dd 2314 	ldrd	r2, r3, [sp, #80]	@ 0x50
 8009940:	e9cd 2310 	strd	r2, r3, [sp, #64]	@ 0x40
 8009944:	9b11      	ldr	r3, [sp, #68]	@ 0x44
 8009946:	f103 63d6 	add.w	r3, r3, #112197632	@ 0x6b00000
 800994a:	1b5b      	subs	r3, r3, r5
 800994c:	9311      	str	r3, [sp, #68]	@ 0x44
 800994e:	e9dd 010c 	ldrd	r0, r1, [sp, #48]	@ 0x30
 8009952:	e9dd ab10 	ldrd	sl, fp, [sp, #64]	@ 0x40
 8009956:	f7ff f8ff 	bl	8008b58 <__ulp>
 800995a:	4602      	mov	r2, r0
 800995c:	460b      	mov	r3, r1
 800995e:	4650      	mov	r0, sl
 8009960:	4659      	mov	r1, fp
 8009962:	f7f6 fe6d 	bl	8000640 <__aeabi_dmul>
 8009966:	e9dd 230c 	ldrd	r2, r3, [sp, #48]	@ 0x30
 800996a:	f7f6 fcb3 	bl	80002d4 <__adddf3>
 800996e:	4682      	mov	sl, r0
 8009970:	468b      	mov	fp, r1
 8009972:	e776      	b.n	8009862 <_strtod_l+0xa5a>
 8009974:	e9cd 6714 	strd	r6, r7, [sp, #80]	@ 0x50
 8009978:	e7e0      	b.n	800993c <_strtod_l+0xb34>
 800997a:	a30d      	add	r3, pc, #52	@ (adr r3, 80099b0 <_strtod_l+0xba8>)
 800997c:	e9d3 2300 	ldrd	r2, r3, [r3]
 8009980:	f7f7 f8d0 	bl	8000b24 <__aeabi_dcmplt>
 8009984:	e79e      	b.n	80098c4 <_strtod_l+0xabc>
 8009986:	2300      	movs	r3, #0
 8009988:	930b      	str	r3, [sp, #44]	@ 0x2c
 800998a:	9b19      	ldr	r3, [sp, #100]	@ 0x64
 800998c:	9a17      	ldr	r2, [sp, #92]	@ 0x5c
 800998e:	6013      	str	r3, [r2, #0]
 8009990:	f7ff ba77 	b.w	8008e82 <_strtod_l+0x7a>
 8009994:	2a65      	cmp	r2, #101	@ 0x65
 8009996:	f43f ab6e 	beq.w	8009076 <_strtod_l+0x26e>
 800999a:	2a45      	cmp	r2, #69	@ 0x45
 800999c:	f43f ab6b 	beq.w	8009076 <_strtod_l+0x26e>
 80099a0:	2301      	movs	r3, #1
 80099a2:	f7ff bba6 	b.w	80090f2 <_strtod_l+0x2ea>
 80099a6:	bf00      	nop
 80099a8:	ffc00000 	.word	0xffc00000
 80099ac:	41dfffff 	.word	0x41dfffff
 80099b0:	94a03595 	.word	0x94a03595
 80099b4:	3fcfffff 	.word	0x3fcfffff

080099b8 <_strtod_r>:
 80099b8:	4b01      	ldr	r3, [pc, #4]	@ (80099c0 <_strtod_r+0x8>)
 80099ba:	f7ff ba25 	b.w	8008e08 <_strtod_l>
 80099be:	bf00      	nop
 80099c0:	20000164 	.word	0x20000164

080099c4 <__ssputs_r>:
 80099c4:	e92d 47f0 	stmdb	sp!, {r4, r5, r6, r7, r8, r9, sl, lr}
 80099c8:	461f      	mov	r7, r3
 80099ca:	688e      	ldr	r6, [r1, #8]
 80099cc:	4682      	mov	sl, r0
 80099ce:	42be      	cmp	r6, r7
 80099d0:	460c      	mov	r4, r1
 80099d2:	4690      	mov	r8, r2
 80099d4:	680b      	ldr	r3, [r1, #0]
 80099d6:	d82d      	bhi.n	8009a34 <__ssputs_r+0x70>
 80099d8:	f9b1 200c 	ldrsh.w	r2, [r1, #12]
 80099dc:	f412 6f90 	tst.w	r2, #1152	@ 0x480
 80099e0:	d026      	beq.n	8009a30 <__ssputs_r+0x6c>
 80099e2:	6965      	ldr	r5, [r4, #20]
 80099e4:	6909      	ldr	r1, [r1, #16]
 80099e6:	eb05 0545 	add.w	r5, r5, r5, lsl #1
 80099ea:	eba3 0901 	sub.w	r9, r3, r1
 80099ee:	eb05 75d5 	add.w	r5, r5, r5, lsr #31
 80099f2:	1c7b      	adds	r3, r7, #1
 80099f4:	444b      	add	r3, r9
 80099f6:	106d      	asrs	r5, r5, #1
 80099f8:	429d      	cmp	r5, r3
 80099fa:	bf38      	it	cc
 80099fc:	461d      	movcc	r5, r3
 80099fe:	0553      	lsls	r3, r2, #21
 8009a00:	d527      	bpl.n	8009a52 <__ssputs_r+0x8e>
 8009a02:	4629      	mov	r1, r5
 8009a04:	f7fe fcaa 	bl	800835c <_malloc_r>
 8009a08:	4606      	mov	r6, r0
 8009a0a:	b360      	cbz	r0, 8009a66 <__ssputs_r+0xa2>
 8009a0c:	464a      	mov	r2, r9
 8009a0e:	6921      	ldr	r1, [r4, #16]
 8009a10:	f7fd fdb1 	bl	8007576 <memcpy>
 8009a14:	89a3      	ldrh	r3, [r4, #12]
 8009a16:	f423 6390 	bic.w	r3, r3, #1152	@ 0x480
 8009a1a:	f043 0380 	orr.w	r3, r3, #128	@ 0x80
 8009a1e:	81a3      	strh	r3, [r4, #12]
 8009a20:	6126      	str	r6, [r4, #16]
 8009a22:	444e      	add	r6, r9
 8009a24:	6026      	str	r6, [r4, #0]
 8009a26:	463e      	mov	r6, r7
 8009a28:	6165      	str	r5, [r4, #20]
 8009a2a:	eba5 0509 	sub.w	r5, r5, r9
 8009a2e:	60a5      	str	r5, [r4, #8]
 8009a30:	42be      	cmp	r6, r7
 8009a32:	d900      	bls.n	8009a36 <__ssputs_r+0x72>
 8009a34:	463e      	mov	r6, r7
 8009a36:	4632      	mov	r2, r6
 8009a38:	4641      	mov	r1, r8
 8009a3a:	6820      	ldr	r0, [r4, #0]
 8009a3c:	f000 f9d4 	bl	8009de8 <memmove>
 8009a40:	2000      	movs	r0, #0
 8009a42:	68a3      	ldr	r3, [r4, #8]
 8009a44:	1b9b      	subs	r3, r3, r6
 8009a46:	60a3      	str	r3, [r4, #8]
 8009a48:	6823      	ldr	r3, [r4, #0]
 8009a4a:	4433      	add	r3, r6
 8009a4c:	6023      	str	r3, [r4, #0]
 8009a4e:	e8bd 87f0 	ldmia.w	sp!, {r4, r5, r6, r7, r8, r9, sl, pc}
 8009a52:	462a      	mov	r2, r5
 8009a54:	f000 fd71 	bl	800a53a <_realloc_r>
 8009a58:	4606      	mov	r6, r0
 8009a5a:	2800      	cmp	r0, #0
 8009a5c:	d1e0      	bne.n	8009a20 <__ssputs_r+0x5c>
 8009a5e:	4650      	mov	r0, sl
 8009a60:	6921      	ldr	r1, [r4, #16]
 8009a62:	f7fe fc09 	bl	8008278 <_free_r>
 8009a66:	230c      	movs	r3, #12
 8009a68:	f8ca 3000 	str.w	r3, [sl]
 8009a6c:	89a3      	ldrh	r3, [r4, #12]
 8009a6e:	f04f 30ff 	mov.w	r0, #4294967295
 8009a72:	f043 0340 	orr.w	r3, r3, #64	@ 0x40
 8009a76:	81a3      	strh	r3, [r4, #12]
 8009a78:	e7e9      	b.n	8009a4e <__ssputs_r+0x8a>
	...

08009a7c <_svfiprintf_r>:
 8009a7c:	e92d 4ff0 	stmdb	sp!, {r4, r5, r6, r7, r8, r9, sl, fp, lr}
 8009a80:	4698      	mov	r8, r3
 8009a82:	898b      	ldrh	r3, [r1, #12]
 8009a84:	4607      	mov	r7, r0
 8009a86:	061b      	lsls	r3, r3, #24
 8009a88:	460d      	mov	r5, r1
 8009a8a:	4614      	mov	r4, r2
 8009a8c:	b09d      	sub	sp, #116	@ 0x74
 8009a8e:	d510      	bpl.n	8009ab2 <_svfiprintf_r+0x36>
 8009a90:	690b      	ldr	r3, [r1, #16]
 8009a92:	b973      	cbnz	r3, 8009ab2 <_svfiprintf_r+0x36>
 8009a94:	2140      	movs	r1, #64	@ 0x40
 8009a96:	f7fe fc61 	bl	800835c <_malloc_r>
 8009a9a:	6028      	str	r0, [r5, #0]
 8009a9c:	6128      	str	r0, [r5, #16]
 8009a9e:	b930      	cbnz	r0, 8009aae <_svfiprintf_r+0x32>
 8009aa0:	230c      	movs	r3, #12
 8009aa2:	603b      	str	r3, [r7, #0]
 8009aa4:	f04f 30ff 	mov.w	r0, #4294967295
 8009aa8:	b01d      	add	sp, #116	@ 0x74
 8009aaa:	e8bd 8ff0 	ldmia.w	sp!, {r4, r5, r6, r7, r8, r9, sl, fp, pc}
 8009aae:	2340      	movs	r3, #64	@ 0x40
 8009ab0:	616b      	str	r3, [r5, #20]
 8009ab2:	2300      	movs	r3, #0
 8009ab4:	9309      	str	r3, [sp, #36]	@ 0x24
 8009ab6:	2320      	movs	r3, #32
 8009ab8:	f88d 3029 	strb.w	r3, [sp, #41]	@ 0x29
 8009abc:	2330      	movs	r3, #48	@ 0x30
 8009abe:	f04f 0901 	mov.w	r9, #1
 8009ac2:	f8cd 800c 	str.w	r8, [sp, #12]
 8009ac6:	f8df 8198 	ldr.w	r8, [pc, #408]	@ 8009c60 <_svfiprintf_r+0x1e4>
 8009aca:	f88d 302a 	strb.w	r3, [sp, #42]	@ 0x2a
 8009ace:	4623      	mov	r3, r4
 8009ad0:	469a      	mov	sl, r3
 8009ad2:	f813 2b01 	ldrb.w	r2, [r3], #1
 8009ad6:	b10a      	cbz	r2, 8009adc <_svfiprintf_r+0x60>
 8009ad8:	2a25      	cmp	r2, #37	@ 0x25
 8009ada:	d1f9      	bne.n	8009ad0 <_svfiprintf_r+0x54>
 8009adc:	ebba 0b04 	subs.w	fp, sl, r4
 8009ae0:	d00b      	beq.n	8009afa <_svfiprintf_r+0x7e>
 8009ae2:	465b      	mov	r3, fp
 8009ae4:	4622      	mov	r2, r4
 8009ae6:	4629      	mov	r1, r5
 8009ae8:	4638      	mov	r0, r7
 8009aea:	f7ff ff6b 	bl	80099c4 <__ssputs_r>
 8009aee:	3001      	adds	r0, #1
 8009af0:	f000 80a7 	beq.w	8009c42 <_svfiprintf_r+0x1c6>
 8009af4:	9a09      	ldr	r2, [sp, #36]	@ 0x24
 8009af6:	445a      	add	r2, fp
 8009af8:	9209      	str	r2, [sp, #36]	@ 0x24
 8009afa:	f89a 3000 	ldrb.w	r3, [sl]
 8009afe:	2b00      	cmp	r3, #0
 8009b00:	f000 809f 	beq.w	8009c42 <_svfiprintf_r+0x1c6>
 8009b04:	2300      	movs	r3, #0
 8009b06:	f04f 32ff 	mov.w	r2, #4294967295
 8009b0a:	e9cd 2305 	strd	r2, r3, [sp, #20]
 8009b0e:	f10a 0a01 	add.w	sl, sl, #1
 8009b12:	9304      	str	r3, [sp, #16]
 8009b14:	9307      	str	r3, [sp, #28]
 8009b16:	f88d 3053 	strb.w	r3, [sp, #83]	@ 0x53
 8009b1a:	931a      	str	r3, [sp, #104]	@ 0x68
 8009b1c:	4654      	mov	r4, sl
 8009b1e:	2205      	movs	r2, #5
 8009b20:	f814 1b01 	ldrb.w	r1, [r4], #1
 8009b24:	484e      	ldr	r0, [pc, #312]	@ (8009c60 <_svfiprintf_r+0x1e4>)
 8009b26:	f7fd fd18 	bl	800755a <memchr>
 8009b2a:	9a04      	ldr	r2, [sp, #16]
 8009b2c:	b9d8      	cbnz	r0, 8009b66 <_svfiprintf_r+0xea>
 8009b2e:	06d0      	lsls	r0, r2, #27
 8009b30:	bf44      	itt	mi
 8009b32:	2320      	movmi	r3, #32
 8009b34:	f88d 3053 	strbmi.w	r3, [sp, #83]	@ 0x53
 8009b38:	0711      	lsls	r1, r2, #28
 8009b3a:	bf44      	itt	mi
 8009b3c:	232b      	movmi	r3, #43	@ 0x2b
 8009b3e:	f88d 3053 	strbmi.w	r3, [sp, #83]	@ 0x53
 8009b42:	f89a 3000 	ldrb.w	r3, [sl]
 8009b46:	2b2a      	cmp	r3, #42	@ 0x2a
 8009b48:	d015      	beq.n	8009b76 <_svfiprintf_r+0xfa>
 8009b4a:	4654      	mov	r4, sl
 8009b4c:	2000      	movs	r0, #0
 8009b4e:	f04f 0c0a 	mov.w	ip, #10
 8009b52:	9a07      	ldr	r2, [sp, #28]
 8009b54:	4621      	mov	r1, r4
 8009b56:	f811 3b01 	ldrb.w	r3, [r1], #1
 8009b5a:	3b30      	subs	r3, #48	@ 0x30
 8009b5c:	2b09      	cmp	r3, #9
 8009b5e:	d94b      	bls.n	8009bf8 <_svfiprintf_r+0x17c>
 8009b60:	b1b0      	cbz	r0, 8009b90 <_svfiprintf_r+0x114>
 8009b62:	9207      	str	r2, [sp, #28]
 8009b64:	e014      	b.n	8009b90 <_svfiprintf_r+0x114>
 8009b66:	eba0 0308 	sub.w	r3, r0, r8
 8009b6a:	fa09 f303 	lsl.w	r3, r9, r3
 8009b6e:	4313      	orrs	r3, r2
 8009b70:	46a2      	mov	sl, r4
 8009b72:	9304      	str	r3, [sp, #16]
 8009b74:	e7d2      	b.n	8009b1c <_svfiprintf_r+0xa0>
 8009b76:	9b03      	ldr	r3, [sp, #12]
 8009b78:	1d19      	adds	r1, r3, #4
 8009b7a:	681b      	ldr	r3, [r3, #0]
 8009b7c:	9103      	str	r1, [sp, #12]
 8009b7e:	2b00      	cmp	r3, #0
 8009b80:	bfbb      	ittet	lt
 8009b82:	425b      	neglt	r3, r3
 8009b84:	f042 0202 	orrlt.w	r2, r2, #2
 8009b88:	9307      	strge	r3, [sp, #28]
 8009b8a:	9307      	strlt	r3, [sp, #28]
 8009b8c:	bfb8      	it	lt
 8009b8e:	9204      	strlt	r2, [sp, #16]
 8009b90:	7823      	ldrb	r3, [r4, #0]
 8009b92:	2b2e      	cmp	r3, #46	@ 0x2e
 8009b94:	d10a      	bne.n	8009bac <_svfiprintf_r+0x130>
 8009b96:	7863      	ldrb	r3, [r4, #1]
 8009b98:	2b2a      	cmp	r3, #42	@ 0x2a
 8009b9a:	d132      	bne.n	8009c02 <_svfiprintf_r+0x186>
 8009b9c:	9b03      	ldr	r3, [sp, #12]
 8009b9e:	3402      	adds	r4, #2
 8009ba0:	1d1a      	adds	r2, r3, #4
 8009ba2:	681b      	ldr	r3, [r3, #0]
 8009ba4:	9203      	str	r2, [sp, #12]
 8009ba6:	ea43 73e3 	orr.w	r3, r3, r3, asr #31
 8009baa:	9305      	str	r3, [sp, #20]
 8009bac:	f8df a0b4 	ldr.w	sl, [pc, #180]	@ 8009c64 <_svfiprintf_r+0x1e8>
 8009bb0:	2203      	movs	r2, #3
 8009bb2:	4650      	mov	r0, sl
 8009bb4:	7821      	ldrb	r1, [r4, #0]
 8009bb6:	f7fd fcd0 	bl	800755a <memchr>
 8009bba:	b138      	cbz	r0, 8009bcc <_svfiprintf_r+0x150>
 8009bbc:	2240      	movs	r2, #64	@ 0x40
 8009bbe:	9b04      	ldr	r3, [sp, #16]
 8009bc0:	eba0 000a 	sub.w	r0, r0, sl
 8009bc4:	4082      	lsls	r2, r0
 8009bc6:	4313      	orrs	r3, r2
 8009bc8:	3401      	adds	r4, #1
 8009bca:	9304      	str	r3, [sp, #16]
 8009bcc:	f814 1b01 	ldrb.w	r1, [r4], #1
 8009bd0:	2206      	movs	r2, #6
 8009bd2:	4825      	ldr	r0, [pc, #148]	@ (8009c68 <_svfiprintf_r+0x1ec>)
 8009bd4:	f88d 1028 	strb.w	r1, [sp, #40]	@ 0x28
 8009bd8:	f7fd fcbf 	bl	800755a <memchr>
 8009bdc:	2800      	cmp	r0, #0
 8009bde:	d036      	beq.n	8009c4e <_svfiprintf_r+0x1d2>
 8009be0:	4b22      	ldr	r3, [pc, #136]	@ (8009c6c <_svfiprintf_r+0x1f0>)
 8009be2:	bb1b      	cbnz	r3, 8009c2c <_svfiprintf_r+0x1b0>
 8009be4:	9b03      	ldr	r3, [sp, #12]
 8009be6:	3307      	adds	r3, #7
 8009be8:	f023 0307 	bic.w	r3, r3, #7
 8009bec:	3308      	adds	r3, #8
 8009bee:	9303      	str	r3, [sp, #12]
 8009bf0:	9b09      	ldr	r3, [sp, #36]	@ 0x24
 8009bf2:	4433      	add	r3, r6
 8009bf4:	9309      	str	r3, [sp, #36]	@ 0x24
 8009bf6:	e76a      	b.n	8009ace <_svfiprintf_r+0x52>
 8009bf8:	460c      	mov	r4, r1
 8009bfa:	2001      	movs	r0, #1
 8009bfc:	fb0c 3202 	mla	r2, ip, r2, r3
 8009c00:	e7a8      	b.n	8009b54 <_svfiprintf_r+0xd8>
 8009c02:	2300      	movs	r3, #0
 8009c04:	f04f 0c0a 	mov.w	ip, #10
 8009c08:	4619      	mov	r1, r3
 8009c0a:	3401      	adds	r4, #1
 8009c0c:	9305      	str	r3, [sp, #20]
 8009c0e:	4620      	mov	r0, r4
 8009c10:	f810 2b01 	ldrb.w	r2, [r0], #1
 8009c14:	3a30      	subs	r2, #48	@ 0x30
 8009c16:	2a09      	cmp	r2, #9
 8009c18:	d903      	bls.n	8009c22 <_svfiprintf_r+0x1a6>
 8009c1a:	2b00      	cmp	r3, #0
 8009c1c:	d0c6      	beq.n	8009bac <_svfiprintf_r+0x130>
 8009c1e:	9105      	str	r1, [sp, #20]
 8009c20:	e7c4      	b.n	8009bac <_svfiprintf_r+0x130>
 8009c22:	4604      	mov	r4, r0
 8009c24:	2301      	movs	r3, #1
 8009c26:	fb0c 2101 	mla	r1, ip, r1, r2
 8009c2a:	e7f0      	b.n	8009c0e <_svfiprintf_r+0x192>
 8009c2c:	ab03      	add	r3, sp, #12
 8009c2e:	9300      	str	r3, [sp, #0]
 8009c30:	462a      	mov	r2, r5
 8009c32:	4638      	mov	r0, r7
 8009c34:	4b0e      	ldr	r3, [pc, #56]	@ (8009c70 <_svfiprintf_r+0x1f4>)
 8009c36:	a904      	add	r1, sp, #16
 8009c38:	f7fc fc7e 	bl	8006538 <_printf_float>
 8009c3c:	1c42      	adds	r2, r0, #1
 8009c3e:	4606      	mov	r6, r0
 8009c40:	d1d6      	bne.n	8009bf0 <_svfiprintf_r+0x174>
 8009c42:	89ab      	ldrh	r3, [r5, #12]
 8009c44:	065b      	lsls	r3, r3, #25
 8009c46:	f53f af2d 	bmi.w	8009aa4 <_svfiprintf_r+0x28>
 8009c4a:	9809      	ldr	r0, [sp, #36]	@ 0x24
 8009c4c:	e72c      	b.n	8009aa8 <_svfiprintf_r+0x2c>
 8009c4e:	ab03      	add	r3, sp, #12
 8009c50:	9300      	str	r3, [sp, #0]
 8009c52:	462a      	mov	r2, r5
 8009c54:	4638      	mov	r0, r7
 8009c56:	4b06      	ldr	r3, [pc, #24]	@ (8009c70 <_svfiprintf_r+0x1f4>)
 8009c58:	a904      	add	r1, sp, #16
 8009c5a:	f7fc ff0b 	bl	8006a74 <_printf_i>
 8009c5e:	e7ed      	b.n	8009c3c <_svfiprintf_r+0x1c0>
 8009c60:	0800ccb8 	.word	0x0800ccb8
 8009c64:	0800ccbe 	.word	0x0800ccbe
 8009c68:	0800ccc2 	.word	0x0800ccc2
 8009c6c:	08006539 	.word	0x08006539
 8009c70:	080099c5 	.word	0x080099c5

08009c74 <__sflush_r>:
 8009c74:	f9b1 200c 	ldrsh.w	r2, [r1, #12]
 8009c78:	b5f8      	push	{r3, r4, r5, r6, r7, lr}
 8009c7a:	0716      	lsls	r6, r2, #28
 8009c7c:	4605      	mov	r5, r0
 8009c7e:	460c      	mov	r4, r1
 8009c80:	d454      	bmi.n	8009d2c <__sflush_r+0xb8>
 8009c82:	684b      	ldr	r3, [r1, #4]
 8009c84:	2b00      	cmp	r3, #0
 8009c86:	dc02      	bgt.n	8009c8e <__sflush_r+0x1a>
 8009c88:	6c0b      	ldr	r3, [r1, #64]	@ 0x40
 8009c8a:	2b00      	cmp	r3, #0
 8009c8c:	dd48      	ble.n	8009d20 <__sflush_r+0xac>
 8009c8e:	6ae6      	ldr	r6, [r4, #44]	@ 0x2c
 8009c90:	2e00      	cmp	r6, #0
 8009c92:	d045      	beq.n	8009d20 <__sflush_r+0xac>
 8009c94:	2300      	movs	r3, #0
 8009c96:	f412 5280 	ands.w	r2, r2, #4096	@ 0x1000
 8009c9a:	682f      	ldr	r7, [r5, #0]
 8009c9c:	6a21      	ldr	r1, [r4, #32]
 8009c9e:	602b      	str	r3, [r5, #0]
 8009ca0:	d030      	beq.n	8009d04 <__sflush_r+0x90>
 8009ca2:	6d62      	ldr	r2, [r4, #84]	@ 0x54
 8009ca4:	89a3      	ldrh	r3, [r4, #12]
 8009ca6:	0759      	lsls	r1, r3, #29
 8009ca8:	d505      	bpl.n	8009cb6 <__sflush_r+0x42>
 8009caa:	6863      	ldr	r3, [r4, #4]
 8009cac:	1ad2      	subs	r2, r2, r3
 8009cae:	6b63      	ldr	r3, [r4, #52]	@ 0x34
 8009cb0:	b10b      	cbz	r3, 8009cb6 <__sflush_r+0x42>
 8009cb2:	6c23      	ldr	r3, [r4, #64]	@ 0x40
 8009cb4:	1ad2      	subs	r2, r2, r3
 8009cb6:	2300      	movs	r3, #0
 8009cb8:	4628      	mov	r0, r5
 8009cba:	6ae6      	ldr	r6, [r4, #44]	@ 0x2c
 8009cbc:	6a21      	ldr	r1, [r4, #32]
 8009cbe:	47b0      	blx	r6
 8009cc0:	1c43      	adds	r3, r0, #1
 8009cc2:	89a3      	ldrh	r3, [r4, #12]
 8009cc4:	d106      	bne.n	8009cd4 <__sflush_r+0x60>
 8009cc6:	6829      	ldr	r1, [r5, #0]
 8009cc8:	291d      	cmp	r1, #29
 8009cca:	d82b      	bhi.n	8009d24 <__sflush_r+0xb0>
 8009ccc:	4a28      	ldr	r2, [pc, #160]	@ (8009d70 <__sflush_r+0xfc>)
 8009cce:	410a      	asrs	r2, r1
 8009cd0:	07d6      	lsls	r6, r2, #31
 8009cd2:	d427      	bmi.n	8009d24 <__sflush_r+0xb0>
 8009cd4:	2200      	movs	r2, #0
 8009cd6:	6062      	str	r2, [r4, #4]
 8009cd8:	6922      	ldr	r2, [r4, #16]
 8009cda:	04d9      	lsls	r1, r3, #19
 8009cdc:	6022      	str	r2, [r4, #0]
 8009cde:	d504      	bpl.n	8009cea <__sflush_r+0x76>
 8009ce0:	1c42      	adds	r2, r0, #1
 8009ce2:	d101      	bne.n	8009ce8 <__sflush_r+0x74>
 8009ce4:	682b      	ldr	r3, [r5, #0]
 8009ce6:	b903      	cbnz	r3, 8009cea <__sflush_r+0x76>
 8009ce8:	6560      	str	r0, [r4, #84]	@ 0x54
 8009cea:	6b61      	ldr	r1, [r4, #52]	@ 0x34
 8009cec:	602f      	str	r7, [r5, #0]
 8009cee:	b1b9      	cbz	r1, 8009d20 <__sflush_r+0xac>
 8009cf0:	f104 0344 	add.w	r3, r4, #68	@ 0x44
 8009cf4:	4299      	cmp	r1, r3
 8009cf6:	d002      	beq.n	8009cfe <__sflush_r+0x8a>
 8009cf8:	4628      	mov	r0, r5
 8009cfa:	f7fe fabd 	bl	8008278 <_free_r>
 8009cfe:	2300      	movs	r3, #0
 8009d00:	6363      	str	r3, [r4, #52]	@ 0x34
 8009d02:	e00d      	b.n	8009d20 <__sflush_r+0xac>
 8009d04:	2301      	movs	r3, #1
 8009d06:	4628      	mov	r0, r5
 8009d08:	47b0      	blx	r6
 8009d0a:	4602      	mov	r2, r0
 8009d0c:	1c50      	adds	r0, r2, #1
 8009d0e:	d1c9      	bne.n	8009ca4 <__sflush_r+0x30>
 8009d10:	682b      	ldr	r3, [r5, #0]
 8009d12:	2b00      	cmp	r3, #0
 8009d14:	d0c6      	beq.n	8009ca4 <__sflush_r+0x30>
 8009d16:	2b1d      	cmp	r3, #29
 8009d18:	d001      	beq.n	8009d1e <__sflush_r+0xaa>
 8009d1a:	2b16      	cmp	r3, #22
 8009d1c:	d11d      	bne.n	8009d5a <__sflush_r+0xe6>
 8009d1e:	602f      	str	r7, [r5, #0]
 8009d20:	2000      	movs	r0, #0
 8009d22:	e021      	b.n	8009d68 <__sflush_r+0xf4>
 8009d24:	f043 0340 	orr.w	r3, r3, #64	@ 0x40
 8009d28:	b21b      	sxth	r3, r3
 8009d2a:	e01a      	b.n	8009d62 <__sflush_r+0xee>
 8009d2c:	690f      	ldr	r7, [r1, #16]
 8009d2e:	2f00      	cmp	r7, #0
 8009d30:	d0f6      	beq.n	8009d20 <__sflush_r+0xac>
 8009d32:	0793      	lsls	r3, r2, #30
 8009d34:	bf18      	it	ne
 8009d36:	2300      	movne	r3, #0
 8009d38:	680e      	ldr	r6, [r1, #0]
 8009d3a:	bf08      	it	eq
 8009d3c:	694b      	ldreq	r3, [r1, #20]
 8009d3e:	1bf6      	subs	r6, r6, r7
 8009d40:	600f      	str	r7, [r1, #0]
 8009d42:	608b      	str	r3, [r1, #8]
 8009d44:	2e00      	cmp	r6, #0
 8009d46:	ddeb      	ble.n	8009d20 <__sflush_r+0xac>
 8009d48:	4633      	mov	r3, r6
 8009d4a:	463a      	mov	r2, r7
 8009d4c:	4628      	mov	r0, r5
 8009d4e:	6a21      	ldr	r1, [r4, #32]
 8009d50:	f8d4 c028 	ldr.w	ip, [r4, #40]	@ 0x28
 8009d54:	47e0      	blx	ip
 8009d56:	2800      	cmp	r0, #0
 8009d58:	dc07      	bgt.n	8009d6a <__sflush_r+0xf6>
 8009d5a:	f9b4 300c 	ldrsh.w	r3, [r4, #12]
 8009d5e:	f043 0340 	orr.w	r3, r3, #64	@ 0x40
 8009d62:	f04f 30ff 	mov.w	r0, #4294967295
 8009d66:	81a3      	strh	r3, [r4, #12]
 8009d68:	bdf8      	pop	{r3, r4, r5, r6, r7, pc}
 8009d6a:	4407      	add	r7, r0
 8009d6c:	1a36      	subs	r6, r6, r0
 8009d6e:	e7e9      	b.n	8009d44 <__sflush_r+0xd0>
 8009d70:	dfbffffe 	.word	0xdfbffffe

08009d74 <_fflush_r>:
 8009d74:	b538      	push	{r3, r4, r5, lr}
 8009d76:	690b      	ldr	r3, [r1, #16]
 8009d78:	4605      	mov	r5, r0
 8009d7a:	460c      	mov	r4, r1
 8009d7c:	b913      	cbnz	r3, 8009d84 <_fflush_r+0x10>
 8009d7e:	2500      	movs	r5, #0
 8009d80:	4628      	mov	r0, r5
 8009d82:	bd38      	pop	{r3, r4, r5, pc}
 8009d84:	b118      	cbz	r0, 8009d8e <_fflush_r+0x1a>
 8009d86:	6a03      	ldr	r3, [r0, #32]
 8009d88:	b90b      	cbnz	r3, 8009d8e <_fflush_r+0x1a>
 8009d8a:	f7fd fa2f 	bl	80071ec <__sinit>
 8009d8e:	f9b4 300c 	ldrsh.w	r3, [r4, #12]
 8009d92:	2b00      	cmp	r3, #0
 8009d94:	d0f3      	beq.n	8009d7e <_fflush_r+0xa>
 8009d96:	6e62      	ldr	r2, [r4, #100]	@ 0x64
 8009d98:	07d0      	lsls	r0, r2, #31
 8009d9a:	d404      	bmi.n	8009da6 <_fflush_r+0x32>
 8009d9c:	0599      	lsls	r1, r3, #22
 8009d9e:	d402      	bmi.n	8009da6 <_fflush_r+0x32>
 8009da0:	6da0      	ldr	r0, [r4, #88]	@ 0x58
 8009da2:	f7fd fbd0 	bl	8007546 <__retarget_lock_acquire_recursive>
 8009da6:	4628      	mov	r0, r5
 8009da8:	4621      	mov	r1, r4
 8009daa:	f7ff ff63 	bl	8009c74 <__sflush_r>
 8009dae:	6e63      	ldr	r3, [r4, #100]	@ 0x64
 8009db0:	4605      	mov	r5, r0
 8009db2:	07da      	lsls	r2, r3, #31
 8009db4:	d4e4      	bmi.n	8009d80 <_fflush_r+0xc>
 8009db6:	89a3      	ldrh	r3, [r4, #12]
 8009db8:	059b      	lsls	r3, r3, #22
 8009dba:	d4e1      	bmi.n	8009d80 <_fflush_r+0xc>
 8009dbc:	6da0      	ldr	r0, [r4, #88]	@ 0x58
 8009dbe:	f7fd fbc3 	bl	8007548 <__retarget_lock_release_recursive>
 8009dc2:	e7dd      	b.n	8009d80 <_fflush_r+0xc>

08009dc4 <fiprintf>:
 8009dc4:	b40e      	push	{r1, r2, r3}
 8009dc6:	b503      	push	{r0, r1, lr}
 8009dc8:	4601      	mov	r1, r0
 8009dca:	ab03      	add	r3, sp, #12
 8009dcc:	4805      	ldr	r0, [pc, #20]	@ (8009de4 <fiprintf+0x20>)
 8009dce:	f853 2b04 	ldr.w	r2, [r3], #4
 8009dd2:	6800      	ldr	r0, [r0, #0]
 8009dd4:	9301      	str	r3, [sp, #4]
 8009dd6:	f000 fc13 	bl	800a600 <_vfiprintf_r>
 8009dda:	b002      	add	sp, #8
 8009ddc:	f85d eb04 	ldr.w	lr, [sp], #4
 8009de0:	b003      	add	sp, #12
 8009de2:	4770      	bx	lr
 8009de4:	20000114 	.word	0x20000114

08009de8 <memmove>:
 8009de8:	4288      	cmp	r0, r1
 8009dea:	b510      	push	{r4, lr}
 8009dec:	eb01 0402 	add.w	r4, r1, r2
 8009df0:	d902      	bls.n	8009df8 <memmove+0x10>
 8009df2:	4284      	cmp	r4, r0
 8009df4:	4623      	mov	r3, r4
 8009df6:	d807      	bhi.n	8009e08 <memmove+0x20>
 8009df8:	1e43      	subs	r3, r0, #1
 8009dfa:	42a1      	cmp	r1, r4
 8009dfc:	d008      	beq.n	8009e10 <memmove+0x28>
 8009dfe:	f811 2b01 	ldrb.w	r2, [r1], #1
 8009e02:	f803 2f01 	strb.w	r2, [r3, #1]!
 8009e06:	e7f8      	b.n	8009dfa <memmove+0x12>
 8009e08:	4601      	mov	r1, r0
 8009e0a:	4402      	add	r2, r0
 8009e0c:	428a      	cmp	r2, r1
 8009e0e:	d100      	bne.n	8009e12 <memmove+0x2a>
 8009e10:	bd10      	pop	{r4, pc}
 8009e12:	f813 4d01 	ldrb.w	r4, [r3, #-1]!
 8009e16:	f802 4d01 	strb.w	r4, [r2, #-1]!
 8009e1a:	e7f7      	b.n	8009e0c <memmove+0x24>

08009e1c <strncmp>:
 8009e1c:	b510      	push	{r4, lr}
 8009e1e:	b16a      	cbz	r2, 8009e3c <strncmp+0x20>
 8009e20:	3901      	subs	r1, #1
 8009e22:	1884      	adds	r4, r0, r2
 8009e24:	f810 2b01 	ldrb.w	r2, [r0], #1
 8009e28:	f811 3f01 	ldrb.w	r3, [r1, #1]!
 8009e2c:	429a      	cmp	r2, r3
 8009e2e:	d103      	bne.n	8009e38 <strncmp+0x1c>
 8009e30:	42a0      	cmp	r0, r4
 8009e32:	d001      	beq.n	8009e38 <strncmp+0x1c>
 8009e34:	2a00      	cmp	r2, #0
 8009e36:	d1f5      	bne.n	8009e24 <strncmp+0x8>
 8009e38:	1ad0      	subs	r0, r2, r3
 8009e3a:	bd10      	pop	{r4, pc}
 8009e3c:	4610      	mov	r0, r2
 8009e3e:	e7fc      	b.n	8009e3a <strncmp+0x1e>

08009e40 <_sbrk_r>:
 8009e40:	b538      	push	{r3, r4, r5, lr}
 8009e42:	2300      	movs	r3, #0
 8009e44:	4d05      	ldr	r5, [pc, #20]	@ (8009e5c <_sbrk_r+0x1c>)
 8009e46:	4604      	mov	r4, r0
 8009e48:	4608      	mov	r0, r1
 8009e4a:	602b      	str	r3, [r5, #0]
 8009e4c:	f7f9 fbb8 	bl	80035c0 <_sbrk>
 8009e50:	1c43      	adds	r3, r0, #1
 8009e52:	d102      	bne.n	8009e5a <_sbrk_r+0x1a>
 8009e54:	682b      	ldr	r3, [r5, #0]
 8009e56:	b103      	cbz	r3, 8009e5a <_sbrk_r+0x1a>
 8009e58:	6023      	str	r3, [r4, #0]
 8009e5a:	bd38      	pop	{r3, r4, r5, pc}
 8009e5c:	20000c18 	.word	0x20000c18

08009e60 <nan>:
 8009e60:	2000      	movs	r0, #0
 8009e62:	4901      	ldr	r1, [pc, #4]	@ (8009e68 <nan+0x8>)
 8009e64:	4770      	bx	lr
 8009e66:	bf00      	nop
 8009e68:	7ff80000 	.word	0x7ff80000

08009e6c <abort>:
 8009e6c:	2006      	movs	r0, #6
 8009e6e:	b508      	push	{r3, lr}
 8009e70:	f000 fd9a 	bl	800a9a8 <raise>
 8009e74:	2001      	movs	r0, #1
 8009e76:	f7f9 fb77 	bl	8003568 <_exit>

08009e7a <_calloc_r>:
 8009e7a:	b570      	push	{r4, r5, r6, lr}
 8009e7c:	fba1 5402 	umull	r5, r4, r1, r2
 8009e80:	b93c      	cbnz	r4, 8009e92 <_calloc_r+0x18>
 8009e82:	4629      	mov	r1, r5
 8009e84:	f7fe fa6a 	bl	800835c <_malloc_r>
 8009e88:	4606      	mov	r6, r0
 8009e8a:	b928      	cbnz	r0, 8009e98 <_calloc_r+0x1e>
 8009e8c:	2600      	movs	r6, #0
 8009e8e:	4630      	mov	r0, r6
 8009e90:	bd70      	pop	{r4, r5, r6, pc}
 8009e92:	220c      	movs	r2, #12
 8009e94:	6002      	str	r2, [r0, #0]
 8009e96:	e7f9      	b.n	8009e8c <_calloc_r+0x12>
 8009e98:	462a      	mov	r2, r5
 8009e9a:	4621      	mov	r1, r4
 8009e9c:	f7fd fa3f 	bl	800731e <memset>
 8009ea0:	e7f5      	b.n	8009e8e <_calloc_r+0x14>

08009ea2 <rshift>:
 8009ea2:	6903      	ldr	r3, [r0, #16]
 8009ea4:	e92d 43f0 	stmdb	sp!, {r4, r5, r6, r7, r8, r9, lr}
 8009ea8:	ebb3 1f61 	cmp.w	r3, r1, asr #5
 8009eac:	f100 0414 	add.w	r4, r0, #20
 8009eb0:	ea4f 1261 	mov.w	r2, r1, asr #5
 8009eb4:	dd46      	ble.n	8009f44 <rshift+0xa2>
 8009eb6:	f011 011f 	ands.w	r1, r1, #31
 8009eba:	eb04 0683 	add.w	r6, r4, r3, lsl #2
 8009ebe:	eb04 0582 	add.w	r5, r4, r2, lsl #2
 8009ec2:	d10c      	bne.n	8009ede <rshift+0x3c>
 8009ec4:	4629      	mov	r1, r5
 8009ec6:	f100 0710 	add.w	r7, r0, #16
 8009eca:	42b1      	cmp	r1, r6
 8009ecc:	d335      	bcc.n	8009f3a <rshift+0x98>
 8009ece:	1a9b      	subs	r3, r3, r2
 8009ed0:	009b      	lsls	r3, r3, #2
 8009ed2:	1eea      	subs	r2, r5, #3
 8009ed4:	4296      	cmp	r6, r2
 8009ed6:	bf38      	it	cc
 8009ed8:	2300      	movcc	r3, #0
 8009eda:	4423      	add	r3, r4
 8009edc:	e015      	b.n	8009f0a <rshift+0x68>
 8009ede:	46a1      	mov	r9, r4
 8009ee0:	f854 7022 	ldr.w	r7, [r4, r2, lsl #2]
 8009ee4:	f1c1 0820 	rsb	r8, r1, #32
 8009ee8:	40cf      	lsrs	r7, r1
 8009eea:	f105 0e04 	add.w	lr, r5, #4
 8009eee:	4576      	cmp	r6, lr
 8009ef0:	46f4      	mov	ip, lr
 8009ef2:	d816      	bhi.n	8009f22 <rshift+0x80>
 8009ef4:	1a9a      	subs	r2, r3, r2
 8009ef6:	0092      	lsls	r2, r2, #2
 8009ef8:	3a04      	subs	r2, #4
 8009efa:	3501      	adds	r5, #1
 8009efc:	42ae      	cmp	r6, r5
 8009efe:	bf38      	it	cc
 8009f00:	2200      	movcc	r2, #0
 8009f02:	18a3      	adds	r3, r4, r2
 8009f04:	50a7      	str	r7, [r4, r2]
 8009f06:	b107      	cbz	r7, 8009f0a <rshift+0x68>
 8009f08:	3304      	adds	r3, #4
 8009f0a:	42a3      	cmp	r3, r4
 8009f0c:	eba3 0204 	sub.w	r2, r3, r4
 8009f10:	bf08      	it	eq
 8009f12:	2300      	moveq	r3, #0
 8009f14:	ea4f 02a2 	mov.w	r2, r2, asr #2
 8009f18:	6102      	str	r2, [r0, #16]
 8009f1a:	bf08      	it	eq
 8009f1c:	6143      	streq	r3, [r0, #20]
 8009f1e:	e8bd 83f0 	ldmia.w	sp!, {r4, r5, r6, r7, r8, r9, pc}
 8009f22:	f8dc c000 	ldr.w	ip, [ip]
 8009f26:	fa0c fc08 	lsl.w	ip, ip, r8
 8009f2a:	ea4c 0707 	orr.w	r7, ip, r7
 8009f2e:	f849 7b04 	str.w	r7, [r9], #4
 8009f32:	f85e 7b04 	ldr.w	r7, [lr], #4
 8009f36:	40cf      	lsrs	r7, r1
 8009f38:	e7d9      	b.n	8009eee <rshift+0x4c>
 8009f3a:	f851 cb04 	ldr.w	ip, [r1], #4
 8009f3e:	f847 cf04 	str.w	ip, [r7, #4]!
 8009f42:	e7c2      	b.n	8009eca <rshift+0x28>
 8009f44:	4623      	mov	r3, r4
 8009f46:	e7e0      	b.n	8009f0a <rshift+0x68>

08009f48 <__hexdig_fun>:
 8009f48:	f1a0 0330 	sub.w	r3, r0, #48	@ 0x30
 8009f4c:	2b09      	cmp	r3, #9
 8009f4e:	d802      	bhi.n	8009f56 <__hexdig_fun+0xe>
 8009f50:	3820      	subs	r0, #32
 8009f52:	b2c0      	uxtb	r0, r0
 8009f54:	4770      	bx	lr
 8009f56:	f1a0 0361 	sub.w	r3, r0, #97	@ 0x61
 8009f5a:	2b05      	cmp	r3, #5
 8009f5c:	d801      	bhi.n	8009f62 <__hexdig_fun+0x1a>
 8009f5e:	3847      	subs	r0, #71	@ 0x47
 8009f60:	e7f7      	b.n	8009f52 <__hexdig_fun+0xa>
 8009f62:	f1a0 0341 	sub.w	r3, r0, #65	@ 0x41
 8009f66:	2b05      	cmp	r3, #5
 8009f68:	d801      	bhi.n	8009f6e <__hexdig_fun+0x26>
 8009f6a:	3827      	subs	r0, #39	@ 0x27
 8009f6c:	e7f1      	b.n	8009f52 <__hexdig_fun+0xa>
 8009f6e:	2000      	movs	r0, #0
 8009f70:	4770      	bx	lr
	...

08009f74 <__gethex>:
 8009f74:	e92d 4ff0 	stmdb	sp!, {r4, r5, r6, r7, r8, r9, sl, fp, lr}
 8009f78:	468a      	mov	sl, r1
 8009f7a:	4690      	mov	r8, r2
 8009f7c:	b085      	sub	sp, #20
 8009f7e:	9302      	str	r3, [sp, #8]
 8009f80:	680b      	ldr	r3, [r1, #0]
 8009f82:	9001      	str	r0, [sp, #4]
 8009f84:	1c9c      	adds	r4, r3, #2
 8009f86:	46a1      	mov	r9, r4
 8009f88:	f814 0b01 	ldrb.w	r0, [r4], #1
 8009f8c:	2830      	cmp	r0, #48	@ 0x30
 8009f8e:	d0fa      	beq.n	8009f86 <__gethex+0x12>
 8009f90:	eba9 0303 	sub.w	r3, r9, r3
 8009f94:	f1a3 0b02 	sub.w	fp, r3, #2
 8009f98:	f7ff ffd6 	bl	8009f48 <__hexdig_fun>
 8009f9c:	4605      	mov	r5, r0
 8009f9e:	2800      	cmp	r0, #0
 8009fa0:	d168      	bne.n	800a074 <__gethex+0x100>
 8009fa2:	2201      	movs	r2, #1
 8009fa4:	4648      	mov	r0, r9
 8009fa6:	499f      	ldr	r1, [pc, #636]	@ (800a224 <__gethex+0x2b0>)
 8009fa8:	f7ff ff38 	bl	8009e1c <strncmp>
 8009fac:	4607      	mov	r7, r0
 8009fae:	2800      	cmp	r0, #0
 8009fb0:	d167      	bne.n	800a082 <__gethex+0x10e>
 8009fb2:	f899 0001 	ldrb.w	r0, [r9, #1]
 8009fb6:	4626      	mov	r6, r4
 8009fb8:	f7ff ffc6 	bl	8009f48 <__hexdig_fun>
 8009fbc:	2800      	cmp	r0, #0
 8009fbe:	d062      	beq.n	800a086 <__gethex+0x112>
 8009fc0:	4623      	mov	r3, r4
 8009fc2:	7818      	ldrb	r0, [r3, #0]
 8009fc4:	4699      	mov	r9, r3
 8009fc6:	2830      	cmp	r0, #48	@ 0x30
 8009fc8:	f103 0301 	add.w	r3, r3, #1
 8009fcc:	d0f9      	beq.n	8009fc2 <__gethex+0x4e>
 8009fce:	f7ff ffbb 	bl	8009f48 <__hexdig_fun>
 8009fd2:	fab0 f580 	clz	r5, r0
 8009fd6:	f04f 0b01 	mov.w	fp, #1
 8009fda:	096d      	lsrs	r5, r5, #5
 8009fdc:	464a      	mov	r2, r9
 8009fde:	4616      	mov	r6, r2
 8009fe0:	7830      	ldrb	r0, [r6, #0]
 8009fe2:	3201      	adds	r2, #1
 8009fe4:	f7ff ffb0 	bl	8009f48 <__hexdig_fun>
 8009fe8:	2800      	cmp	r0, #0
 8009fea:	d1f8      	bne.n	8009fde <__gethex+0x6a>
 8009fec:	2201      	movs	r2, #1
 8009fee:	4630      	mov	r0, r6
 8009ff0:	498c      	ldr	r1, [pc, #560]	@ (800a224 <__gethex+0x2b0>)
 8009ff2:	f7ff ff13 	bl	8009e1c <strncmp>
 8009ff6:	2800      	cmp	r0, #0
 8009ff8:	d13f      	bne.n	800a07a <__gethex+0x106>
 8009ffa:	b944      	cbnz	r4, 800a00e <__gethex+0x9a>
 8009ffc:	1c74      	adds	r4, r6, #1
 8009ffe:	4622      	mov	r2, r4
 800a000:	4616      	mov	r6, r2
 800a002:	7830      	ldrb	r0, [r6, #0]
 800a004:	3201      	adds	r2, #1
 800a006:	f7ff ff9f 	bl	8009f48 <__hexdig_fun>
 800a00a:	2800      	cmp	r0, #0
 800a00c:	d1f8      	bne.n	800a000 <__gethex+0x8c>
 800a00e:	1ba4      	subs	r4, r4, r6
 800a010:	00a7      	lsls	r7, r4, #2
 800a012:	7833      	ldrb	r3, [r6, #0]
 800a014:	f003 03df 	and.w	r3, r3, #223	@ 0xdf
 800a018:	2b50      	cmp	r3, #80	@ 0x50
 800a01a:	d13e      	bne.n	800a09a <__gethex+0x126>
 800a01c:	7873      	ldrb	r3, [r6, #1]
 800a01e:	2b2b      	cmp	r3, #43	@ 0x2b
 800a020:	d033      	beq.n	800a08a <__gethex+0x116>
 800a022:	2b2d      	cmp	r3, #45	@ 0x2d
 800a024:	d034      	beq.n	800a090 <__gethex+0x11c>
 800a026:	2400      	movs	r4, #0
 800a028:	1c71      	adds	r1, r6, #1
 800a02a:	7808      	ldrb	r0, [r1, #0]
 800a02c:	f7ff ff8c 	bl	8009f48 <__hexdig_fun>
 800a030:	1e43      	subs	r3, r0, #1
 800a032:	b2db      	uxtb	r3, r3
 800a034:	2b18      	cmp	r3, #24
 800a036:	d830      	bhi.n	800a09a <__gethex+0x126>
 800a038:	f1a0 0210 	sub.w	r2, r0, #16
 800a03c:	f811 0f01 	ldrb.w	r0, [r1, #1]!
 800a040:	f7ff ff82 	bl	8009f48 <__hexdig_fun>
 800a044:	f100 3cff 	add.w	ip, r0, #4294967295
 800a048:	fa5f fc8c 	uxtb.w	ip, ip
 800a04c:	f1bc 0f18 	cmp.w	ip, #24
 800a050:	f04f 030a 	mov.w	r3, #10
 800a054:	d91e      	bls.n	800a094 <__gethex+0x120>
 800a056:	b104      	cbz	r4, 800a05a <__gethex+0xe6>
 800a058:	4252      	negs	r2, r2
 800a05a:	4417      	add	r7, r2
 800a05c:	f8ca 1000 	str.w	r1, [sl]
 800a060:	b1ed      	cbz	r5, 800a09e <__gethex+0x12a>
 800a062:	f1bb 0f00 	cmp.w	fp, #0
 800a066:	bf0c      	ite	eq
 800a068:	2506      	moveq	r5, #6
 800a06a:	2500      	movne	r5, #0
 800a06c:	4628      	mov	r0, r5
 800a06e:	b005      	add	sp, #20
 800a070:	e8bd 8ff0 	ldmia.w	sp!, {r4, r5, r6, r7, r8, r9, sl, fp, pc}
 800a074:	2500      	movs	r5, #0
 800a076:	462c      	mov	r4, r5
 800a078:	e7b0      	b.n	8009fdc <__gethex+0x68>
 800a07a:	2c00      	cmp	r4, #0
 800a07c:	d1c7      	bne.n	800a00e <__gethex+0x9a>
 800a07e:	4627      	mov	r7, r4
 800a080:	e7c7      	b.n	800a012 <__gethex+0x9e>
 800a082:	464e      	mov	r6, r9
 800a084:	462f      	mov	r7, r5
 800a086:	2501      	movs	r5, #1
 800a088:	e7c3      	b.n	800a012 <__gethex+0x9e>
 800a08a:	2400      	movs	r4, #0
 800a08c:	1cb1      	adds	r1, r6, #2
 800a08e:	e7cc      	b.n	800a02a <__gethex+0xb6>
 800a090:	2401      	movs	r4, #1
 800a092:	e7fb      	b.n	800a08c <__gethex+0x118>
 800a094:	fb03 0002 	mla	r0, r3, r2, r0
 800a098:	e7ce      	b.n	800a038 <__gethex+0xc4>
 800a09a:	4631      	mov	r1, r6
 800a09c:	e7de      	b.n	800a05c <__gethex+0xe8>
 800a09e:	4629      	mov	r1, r5
 800a0a0:	eba6 0309 	sub.w	r3, r6, r9
 800a0a4:	3b01      	subs	r3, #1
 800a0a6:	2b07      	cmp	r3, #7
 800a0a8:	dc0a      	bgt.n	800a0c0 <__gethex+0x14c>
 800a0aa:	9801      	ldr	r0, [sp, #4]
 800a0ac:	f7fe f9e2 	bl	8008474 <_Balloc>
 800a0b0:	4604      	mov	r4, r0
 800a0b2:	b940      	cbnz	r0, 800a0c6 <__gethex+0x152>
 800a0b4:	4602      	mov	r2, r0
 800a0b6:	21e4      	movs	r1, #228	@ 0xe4
 800a0b8:	4b5b      	ldr	r3, [pc, #364]	@ (800a228 <__gethex+0x2b4>)
 800a0ba:	485c      	ldr	r0, [pc, #368]	@ (800a22c <__gethex+0x2b8>)
 800a0bc:	f7fd fa6e 	bl	800759c <__assert_func>
 800a0c0:	3101      	adds	r1, #1
 800a0c2:	105b      	asrs	r3, r3, #1
 800a0c4:	e7ef      	b.n	800a0a6 <__gethex+0x132>
 800a0c6:	2300      	movs	r3, #0
 800a0c8:	f100 0a14 	add.w	sl, r0, #20
 800a0cc:	4655      	mov	r5, sl
 800a0ce:	469b      	mov	fp, r3
 800a0d0:	45b1      	cmp	r9, r6
 800a0d2:	d337      	bcc.n	800a144 <__gethex+0x1d0>
 800a0d4:	f845 bb04 	str.w	fp, [r5], #4
 800a0d8:	eba5 050a 	sub.w	r5, r5, sl
 800a0dc:	10ad      	asrs	r5, r5, #2
 800a0de:	6125      	str	r5, [r4, #16]
 800a0e0:	4658      	mov	r0, fp
 800a0e2:	f7fe fab9 	bl	8008658 <__hi0bits>
 800a0e6:	016d      	lsls	r5, r5, #5
 800a0e8:	f8d8 6000 	ldr.w	r6, [r8]
 800a0ec:	1a2d      	subs	r5, r5, r0
 800a0ee:	42b5      	cmp	r5, r6
 800a0f0:	dd54      	ble.n	800a19c <__gethex+0x228>
 800a0f2:	1bad      	subs	r5, r5, r6
 800a0f4:	4629      	mov	r1, r5
 800a0f6:	4620      	mov	r0, r4
 800a0f8:	f7fe fe41 	bl	8008d7e <__any_on>
 800a0fc:	4681      	mov	r9, r0
 800a0fe:	b178      	cbz	r0, 800a120 <__gethex+0x1ac>
 800a100:	f04f 0901 	mov.w	r9, #1
 800a104:	1e6b      	subs	r3, r5, #1
 800a106:	1159      	asrs	r1, r3, #5
 800a108:	f85a 1021 	ldr.w	r1, [sl, r1, lsl #2]
 800a10c:	f003 021f 	and.w	r2, r3, #31
 800a110:	fa09 f202 	lsl.w	r2, r9, r2
 800a114:	420a      	tst	r2, r1
 800a116:	d003      	beq.n	800a120 <__gethex+0x1ac>
 800a118:	454b      	cmp	r3, r9
 800a11a:	dc36      	bgt.n	800a18a <__gethex+0x216>
 800a11c:	f04f 0902 	mov.w	r9, #2
 800a120:	4629      	mov	r1, r5
 800a122:	4620      	mov	r0, r4
 800a124:	f7ff febd 	bl	8009ea2 <rshift>
 800a128:	442f      	add	r7, r5
 800a12a:	f8d8 3008 	ldr.w	r3, [r8, #8]
 800a12e:	42bb      	cmp	r3, r7
 800a130:	da42      	bge.n	800a1b8 <__gethex+0x244>
 800a132:	4621      	mov	r1, r4
 800a134:	9801      	ldr	r0, [sp, #4]
 800a136:	f7fe f9dd 	bl	80084f4 <_Bfree>
 800a13a:	2300      	movs	r3, #0
 800a13c:	9a0e      	ldr	r2, [sp, #56]	@ 0x38
 800a13e:	25a3      	movs	r5, #163	@ 0xa3
 800a140:	6013      	str	r3, [r2, #0]
 800a142:	e793      	b.n	800a06c <__gethex+0xf8>
 800a144:	f816 2d01 	ldrb.w	r2, [r6, #-1]!
 800a148:	2a2e      	cmp	r2, #46	@ 0x2e
 800a14a:	d012      	beq.n	800a172 <__gethex+0x1fe>
 800a14c:	2b20      	cmp	r3, #32
 800a14e:	d104      	bne.n	800a15a <__gethex+0x1e6>
 800a150:	f845 bb04 	str.w	fp, [r5], #4
 800a154:	f04f 0b00 	mov.w	fp, #0
 800a158:	465b      	mov	r3, fp
 800a15a:	7830      	ldrb	r0, [r6, #0]
 800a15c:	9303      	str	r3, [sp, #12]
 800a15e:	f7ff fef3 	bl	8009f48 <__hexdig_fun>
 800a162:	9b03      	ldr	r3, [sp, #12]
 800a164:	f000 000f 	and.w	r0, r0, #15
 800a168:	4098      	lsls	r0, r3
 800a16a:	ea4b 0b00 	orr.w	fp, fp, r0
 800a16e:	3304      	adds	r3, #4
 800a170:	e7ae      	b.n	800a0d0 <__gethex+0x15c>
 800a172:	45b1      	cmp	r9, r6
 800a174:	d8ea      	bhi.n	800a14c <__gethex+0x1d8>
 800a176:	2201      	movs	r2, #1
 800a178:	4630      	mov	r0, r6
 800a17a:	492a      	ldr	r1, [pc, #168]	@ (800a224 <__gethex+0x2b0>)
 800a17c:	9303      	str	r3, [sp, #12]
 800a17e:	f7ff fe4d 	bl	8009e1c <strncmp>
 800a182:	9b03      	ldr	r3, [sp, #12]
 800a184:	2800      	cmp	r0, #0
 800a186:	d1e1      	bne.n	800a14c <__gethex+0x1d8>
 800a188:	e7a2      	b.n	800a0d0 <__gethex+0x15c>
 800a18a:	4620      	mov	r0, r4
 800a18c:	1ea9      	subs	r1, r5, #2
 800a18e:	f7fe fdf6 	bl	8008d7e <__any_on>
 800a192:	2800      	cmp	r0, #0
 800a194:	d0c2      	beq.n	800a11c <__gethex+0x1a8>
 800a196:	f04f 0903 	mov.w	r9, #3
 800a19a:	e7c1      	b.n	800a120 <__gethex+0x1ac>
 800a19c:	da09      	bge.n	800a1b2 <__gethex+0x23e>
 800a19e:	1b75      	subs	r5, r6, r5
 800a1a0:	4621      	mov	r1, r4
 800a1a2:	462a      	mov	r2, r5
 800a1a4:	9801      	ldr	r0, [sp, #4]
 800a1a6:	f7fe fbbb 	bl	8008920 <__lshift>
 800a1aa:	4604      	mov	r4, r0
 800a1ac:	1b7f      	subs	r7, r7, r5
 800a1ae:	f100 0a14 	add.w	sl, r0, #20
 800a1b2:	f04f 0900 	mov.w	r9, #0
 800a1b6:	e7b8      	b.n	800a12a <__gethex+0x1b6>
 800a1b8:	f8d8 5004 	ldr.w	r5, [r8, #4]
 800a1bc:	42bd      	cmp	r5, r7
 800a1be:	dd6f      	ble.n	800a2a0 <__gethex+0x32c>
 800a1c0:	1bed      	subs	r5, r5, r7
 800a1c2:	42ae      	cmp	r6, r5
 800a1c4:	dc34      	bgt.n	800a230 <__gethex+0x2bc>
 800a1c6:	f8d8 300c 	ldr.w	r3, [r8, #12]
 800a1ca:	2b02      	cmp	r3, #2
 800a1cc:	d022      	beq.n	800a214 <__gethex+0x2a0>
 800a1ce:	2b03      	cmp	r3, #3
 800a1d0:	d024      	beq.n	800a21c <__gethex+0x2a8>
 800a1d2:	2b01      	cmp	r3, #1
 800a1d4:	d115      	bne.n	800a202 <__gethex+0x28e>
 800a1d6:	42ae      	cmp	r6, r5
 800a1d8:	d113      	bne.n	800a202 <__gethex+0x28e>
 800a1da:	2e01      	cmp	r6, #1
 800a1dc:	d10b      	bne.n	800a1f6 <__gethex+0x282>
 800a1de:	f8d8 3004 	ldr.w	r3, [r8, #4]
 800a1e2:	9a02      	ldr	r2, [sp, #8]
 800a1e4:	2562      	movs	r5, #98	@ 0x62
 800a1e6:	6013      	str	r3, [r2, #0]
 800a1e8:	2301      	movs	r3, #1
 800a1ea:	6123      	str	r3, [r4, #16]
 800a1ec:	f8ca 3000 	str.w	r3, [sl]
 800a1f0:	9b0e      	ldr	r3, [sp, #56]	@ 0x38
 800a1f2:	601c      	str	r4, [r3, #0]
 800a1f4:	e73a      	b.n	800a06c <__gethex+0xf8>
 800a1f6:	4620      	mov	r0, r4
 800a1f8:	1e71      	subs	r1, r6, #1
 800a1fa:	f7fe fdc0 	bl	8008d7e <__any_on>
 800a1fe:	2800      	cmp	r0, #0
 800a200:	d1ed      	bne.n	800a1de <__gethex+0x26a>
 800a202:	4621      	mov	r1, r4
 800a204:	9801      	ldr	r0, [sp, #4]
 800a206:	f7fe f975 	bl	80084f4 <_Bfree>
 800a20a:	2300      	movs	r3, #0
 800a20c:	9a0e      	ldr	r2, [sp, #56]	@ 0x38
 800a20e:	2550      	movs	r5, #80	@ 0x50
 800a210:	6013      	str	r3, [r2, #0]
 800a212:	e72b      	b.n	800a06c <__gethex+0xf8>
 800a214:	9b0f      	ldr	r3, [sp, #60]	@ 0x3c
 800a216:	2b00      	cmp	r3, #0
 800a218:	d1f3      	bne.n	800a202 <__gethex+0x28e>
 800a21a:	e7e0      	b.n	800a1de <__gethex+0x26a>
 800a21c:	9b0f      	ldr	r3, [sp, #60]	@ 0x3c
 800a21e:	2b00      	cmp	r3, #0
 800a220:	d1dd      	bne.n	800a1de <__gethex+0x26a>
 800a222:	e7ee      	b.n	800a202 <__gethex+0x28e>
 800a224:	0800cc60 	.word	0x0800cc60
 800a228:	0800caf8 	.word	0x0800caf8
 800a22c:	0800ccd1 	.word	0x0800ccd1
 800a230:	1e6f      	subs	r7, r5, #1
 800a232:	f1b9 0f00 	cmp.w	r9, #0
 800a236:	d130      	bne.n	800a29a <__gethex+0x326>
 800a238:	b127      	cbz	r7, 800a244 <__gethex+0x2d0>
 800a23a:	4639      	mov	r1, r7
 800a23c:	4620      	mov	r0, r4
 800a23e:	f7fe fd9e 	bl	8008d7e <__any_on>
 800a242:	4681      	mov	r9, r0
 800a244:	2301      	movs	r3, #1
 800a246:	4629      	mov	r1, r5
 800a248:	1b76      	subs	r6, r6, r5
 800a24a:	2502      	movs	r5, #2
 800a24c:	117a      	asrs	r2, r7, #5
 800a24e:	f85a 2022 	ldr.w	r2, [sl, r2, lsl #2]
 800a252:	f007 071f 	and.w	r7, r7, #31
 800a256:	40bb      	lsls	r3, r7
 800a258:	4213      	tst	r3, r2
 800a25a:	4620      	mov	r0, r4
 800a25c:	bf18      	it	ne
 800a25e:	f049 0902 	orrne.w	r9, r9, #2
 800a262:	f7ff fe1e 	bl	8009ea2 <rshift>
 800a266:	f8d8 7004 	ldr.w	r7, [r8, #4]
 800a26a:	f1b9 0f00 	cmp.w	r9, #0
 800a26e:	d047      	beq.n	800a300 <__gethex+0x38c>
 800a270:	f8d8 300c 	ldr.w	r3, [r8, #12]
 800a274:	2b02      	cmp	r3, #2
 800a276:	d015      	beq.n	800a2a4 <__gethex+0x330>
 800a278:	2b03      	cmp	r3, #3
 800a27a:	d017      	beq.n	800a2ac <__gethex+0x338>
 800a27c:	2b01      	cmp	r3, #1
 800a27e:	d109      	bne.n	800a294 <__gethex+0x320>
 800a280:	f019 0f02 	tst.w	r9, #2
 800a284:	d006      	beq.n	800a294 <__gethex+0x320>
 800a286:	f8da 3000 	ldr.w	r3, [sl]
 800a28a:	ea49 0903 	orr.w	r9, r9, r3
 800a28e:	f019 0f01 	tst.w	r9, #1
 800a292:	d10e      	bne.n	800a2b2 <__gethex+0x33e>
 800a294:	f045 0510 	orr.w	r5, r5, #16
 800a298:	e032      	b.n	800a300 <__gethex+0x38c>
 800a29a:	f04f 0901 	mov.w	r9, #1
 800a29e:	e7d1      	b.n	800a244 <__gethex+0x2d0>
 800a2a0:	2501      	movs	r5, #1
 800a2a2:	e7e2      	b.n	800a26a <__gethex+0x2f6>
 800a2a4:	9b0f      	ldr	r3, [sp, #60]	@ 0x3c
 800a2a6:	f1c3 0301 	rsb	r3, r3, #1
 800a2aa:	930f      	str	r3, [sp, #60]	@ 0x3c
 800a2ac:	9b0f      	ldr	r3, [sp, #60]	@ 0x3c
 800a2ae:	2b00      	cmp	r3, #0
 800a2b0:	d0f0      	beq.n	800a294 <__gethex+0x320>
 800a2b2:	f04f 0c00 	mov.w	ip, #0
 800a2b6:	f8d4 b010 	ldr.w	fp, [r4, #16]
 800a2ba:	f104 0314 	add.w	r3, r4, #20
 800a2be:	ea4f 0a8b 	mov.w	sl, fp, lsl #2
 800a2c2:	eb03 018b 	add.w	r1, r3, fp, lsl #2
 800a2c6:	4618      	mov	r0, r3
 800a2c8:	f853 2b04 	ldr.w	r2, [r3], #4
 800a2cc:	f1b2 3fff 	cmp.w	r2, #4294967295
 800a2d0:	d01b      	beq.n	800a30a <__gethex+0x396>
 800a2d2:	3201      	adds	r2, #1
 800a2d4:	6002      	str	r2, [r0, #0]
 800a2d6:	2d02      	cmp	r5, #2
 800a2d8:	f104 0314 	add.w	r3, r4, #20
 800a2dc:	d13c      	bne.n	800a358 <__gethex+0x3e4>
 800a2de:	f8d8 2000 	ldr.w	r2, [r8]
 800a2e2:	3a01      	subs	r2, #1
 800a2e4:	42b2      	cmp	r2, r6
 800a2e6:	d109      	bne.n	800a2fc <__gethex+0x388>
 800a2e8:	2201      	movs	r2, #1
 800a2ea:	1171      	asrs	r1, r6, #5
 800a2ec:	f853 3021 	ldr.w	r3, [r3, r1, lsl #2]
 800a2f0:	f006 061f 	and.w	r6, r6, #31
 800a2f4:	fa02 f606 	lsl.w	r6, r2, r6
 800a2f8:	421e      	tst	r6, r3
 800a2fa:	d13a      	bne.n	800a372 <__gethex+0x3fe>
 800a2fc:	f045 0520 	orr.w	r5, r5, #32
 800a300:	9b0e      	ldr	r3, [sp, #56]	@ 0x38
 800a302:	601c      	str	r4, [r3, #0]
 800a304:	9b02      	ldr	r3, [sp, #8]
 800a306:	601f      	str	r7, [r3, #0]
 800a308:	e6b0      	b.n	800a06c <__gethex+0xf8>
 800a30a:	4299      	cmp	r1, r3
 800a30c:	f843 cc04 	str.w	ip, [r3, #-4]
 800a310:	d8d9      	bhi.n	800a2c6 <__gethex+0x352>
 800a312:	68a3      	ldr	r3, [r4, #8]
 800a314:	459b      	cmp	fp, r3
 800a316:	db17      	blt.n	800a348 <__gethex+0x3d4>
 800a318:	6861      	ldr	r1, [r4, #4]
 800a31a:	9801      	ldr	r0, [sp, #4]
 800a31c:	3101      	adds	r1, #1
 800a31e:	f7fe f8a9 	bl	8008474 <_Balloc>
 800a322:	4681      	mov	r9, r0
 800a324:	b918      	cbnz	r0, 800a32e <__gethex+0x3ba>
 800a326:	4602      	mov	r2, r0
 800a328:	2184      	movs	r1, #132	@ 0x84
 800a32a:	4b19      	ldr	r3, [pc, #100]	@ (800a390 <__gethex+0x41c>)
 800a32c:	e6c5      	b.n	800a0ba <__gethex+0x146>
 800a32e:	6922      	ldr	r2, [r4, #16]
 800a330:	f104 010c 	add.w	r1, r4, #12
 800a334:	3202      	adds	r2, #2
 800a336:	0092      	lsls	r2, r2, #2
 800a338:	300c      	adds	r0, #12
 800a33a:	f7fd f91c 	bl	8007576 <memcpy>
 800a33e:	4621      	mov	r1, r4
 800a340:	9801      	ldr	r0, [sp, #4]
 800a342:	f7fe f8d7 	bl	80084f4 <_Bfree>
 800a346:	464c      	mov	r4, r9
 800a348:	6923      	ldr	r3, [r4, #16]
 800a34a:	1c5a      	adds	r2, r3, #1
 800a34c:	6122      	str	r2, [r4, #16]
 800a34e:	2201      	movs	r2, #1
 800a350:	eb04 0383 	add.w	r3, r4, r3, lsl #2
 800a354:	615a      	str	r2, [r3, #20]
 800a356:	e7be      	b.n	800a2d6 <__gethex+0x362>
 800a358:	6922      	ldr	r2, [r4, #16]
 800a35a:	455a      	cmp	r2, fp
 800a35c:	dd0b      	ble.n	800a376 <__gethex+0x402>
 800a35e:	2101      	movs	r1, #1
 800a360:	4620      	mov	r0, r4
 800a362:	f7ff fd9e 	bl	8009ea2 <rshift>
 800a366:	f8d8 3008 	ldr.w	r3, [r8, #8]
 800a36a:	3701      	adds	r7, #1
 800a36c:	42bb      	cmp	r3, r7
 800a36e:	f6ff aee0 	blt.w	800a132 <__gethex+0x1be>
 800a372:	2501      	movs	r5, #1
 800a374:	e7c2      	b.n	800a2fc <__gethex+0x388>
 800a376:	f016 061f 	ands.w	r6, r6, #31
 800a37a:	d0fa      	beq.n	800a372 <__gethex+0x3fe>
 800a37c:	4453      	add	r3, sl
 800a37e:	f853 0c04 	ldr.w	r0, [r3, #-4]
 800a382:	f7fe f969 	bl	8008658 <__hi0bits>
 800a386:	f1c6 0620 	rsb	r6, r6, #32
 800a38a:	42b0      	cmp	r0, r6
 800a38c:	dbe7      	blt.n	800a35e <__gethex+0x3ea>
 800a38e:	e7f0      	b.n	800a372 <__gethex+0x3fe>
 800a390:	0800caf8 	.word	0x0800caf8

0800a394 <L_shift>:
 800a394:	f1c2 0208 	rsb	r2, r2, #8
 800a398:	0092      	lsls	r2, r2, #2
 800a39a:	b570      	push	{r4, r5, r6, lr}
 800a39c:	f1c2 0620 	rsb	r6, r2, #32
 800a3a0:	6843      	ldr	r3, [r0, #4]
 800a3a2:	6804      	ldr	r4, [r0, #0]
 800a3a4:	fa03 f506 	lsl.w	r5, r3, r6
 800a3a8:	432c      	orrs	r4, r5
 800a3aa:	40d3      	lsrs	r3, r2
 800a3ac:	6004      	str	r4, [r0, #0]
 800a3ae:	f840 3f04 	str.w	r3, [r0, #4]!
 800a3b2:	4288      	cmp	r0, r1
 800a3b4:	d3f4      	bcc.n	800a3a0 <L_shift+0xc>
 800a3b6:	bd70      	pop	{r4, r5, r6, pc}

0800a3b8 <__match>:
 800a3b8:	b530      	push	{r4, r5, lr}
 800a3ba:	6803      	ldr	r3, [r0, #0]
 800a3bc:	3301      	adds	r3, #1
 800a3be:	f811 4b01 	ldrb.w	r4, [r1], #1
 800a3c2:	b914      	cbnz	r4, 800a3ca <__match+0x12>
 800a3c4:	6003      	str	r3, [r0, #0]
 800a3c6:	2001      	movs	r0, #1
 800a3c8:	bd30      	pop	{r4, r5, pc}
 800a3ca:	f813 2b01 	ldrb.w	r2, [r3], #1
 800a3ce:	f1a2 0541 	sub.w	r5, r2, #65	@ 0x41
 800a3d2:	2d19      	cmp	r5, #25
 800a3d4:	bf98      	it	ls
 800a3d6:	3220      	addls	r2, #32
 800a3d8:	42a2      	cmp	r2, r4
 800a3da:	d0f0      	beq.n	800a3be <__match+0x6>
 800a3dc:	2000      	movs	r0, #0
 800a3de:	e7f3      	b.n	800a3c8 <__match+0x10>

0800a3e0 <__hexnan>:
 800a3e0:	e92d 4ff0 	stmdb	sp!, {r4, r5, r6, r7, r8, r9, sl, fp, lr}
 800a3e4:	2500      	movs	r5, #0
 800a3e6:	680b      	ldr	r3, [r1, #0]
 800a3e8:	4682      	mov	sl, r0
 800a3ea:	115e      	asrs	r6, r3, #5
 800a3ec:	eb02 0686 	add.w	r6, r2, r6, lsl #2
 800a3f0:	f013 031f 	ands.w	r3, r3, #31
 800a3f4:	bf18      	it	ne
 800a3f6:	3604      	addne	r6, #4
 800a3f8:	1f37      	subs	r7, r6, #4
 800a3fa:	4690      	mov	r8, r2
 800a3fc:	46b9      	mov	r9, r7
 800a3fe:	463c      	mov	r4, r7
 800a400:	46ab      	mov	fp, r5
 800a402:	b087      	sub	sp, #28
 800a404:	6801      	ldr	r1, [r0, #0]
 800a406:	9301      	str	r3, [sp, #4]
 800a408:	f846 5c04 	str.w	r5, [r6, #-4]
 800a40c:	9502      	str	r5, [sp, #8]
 800a40e:	784a      	ldrb	r2, [r1, #1]
 800a410:	1c4b      	adds	r3, r1, #1
 800a412:	9303      	str	r3, [sp, #12]
 800a414:	b342      	cbz	r2, 800a468 <__hexnan+0x88>
 800a416:	4610      	mov	r0, r2
 800a418:	9105      	str	r1, [sp, #20]
 800a41a:	9204      	str	r2, [sp, #16]
 800a41c:	f7ff fd94 	bl	8009f48 <__hexdig_fun>
 800a420:	2800      	cmp	r0, #0
 800a422:	d151      	bne.n	800a4c8 <__hexnan+0xe8>
 800a424:	9a04      	ldr	r2, [sp, #16]
 800a426:	9905      	ldr	r1, [sp, #20]
 800a428:	2a20      	cmp	r2, #32
 800a42a:	d818      	bhi.n	800a45e <__hexnan+0x7e>
 800a42c:	9b02      	ldr	r3, [sp, #8]
 800a42e:	459b      	cmp	fp, r3
 800a430:	dd13      	ble.n	800a45a <__hexnan+0x7a>
 800a432:	454c      	cmp	r4, r9
 800a434:	d206      	bcs.n	800a444 <__hexnan+0x64>
 800a436:	2d07      	cmp	r5, #7
 800a438:	dc04      	bgt.n	800a444 <__hexnan+0x64>
 800a43a:	462a      	mov	r2, r5
 800a43c:	4649      	mov	r1, r9
 800a43e:	4620      	mov	r0, r4
 800a440:	f7ff ffa8 	bl	800a394 <L_shift>
 800a444:	4544      	cmp	r4, r8
 800a446:	d952      	bls.n	800a4ee <__hexnan+0x10e>
 800a448:	2300      	movs	r3, #0
 800a44a:	f1a4 0904 	sub.w	r9, r4, #4
 800a44e:	f844 3c04 	str.w	r3, [r4, #-4]
 800a452:	461d      	mov	r5, r3
 800a454:	464c      	mov	r4, r9
 800a456:	f8cd b008 	str.w	fp, [sp, #8]
 800a45a:	9903      	ldr	r1, [sp, #12]
 800a45c:	e7d7      	b.n	800a40e <__hexnan+0x2e>
 800a45e:	2a29      	cmp	r2, #41	@ 0x29
 800a460:	d157      	bne.n	800a512 <__hexnan+0x132>
 800a462:	3102      	adds	r1, #2
 800a464:	f8ca 1000 	str.w	r1, [sl]
 800a468:	f1bb 0f00 	cmp.w	fp, #0
 800a46c:	d051      	beq.n	800a512 <__hexnan+0x132>
 800a46e:	454c      	cmp	r4, r9
 800a470:	d206      	bcs.n	800a480 <__hexnan+0xa0>
 800a472:	2d07      	cmp	r5, #7
 800a474:	dc04      	bgt.n	800a480 <__hexnan+0xa0>
 800a476:	462a      	mov	r2, r5
 800a478:	4649      	mov	r1, r9
 800a47a:	4620      	mov	r0, r4
 800a47c:	f7ff ff8a 	bl	800a394 <L_shift>
 800a480:	4544      	cmp	r4, r8
 800a482:	d936      	bls.n	800a4f2 <__hexnan+0x112>
 800a484:	4623      	mov	r3, r4
 800a486:	f1a8 0204 	sub.w	r2, r8, #4
 800a48a:	f853 1b04 	ldr.w	r1, [r3], #4
 800a48e:	429f      	cmp	r7, r3
 800a490:	f842 1f04 	str.w	r1, [r2, #4]!
 800a494:	d2f9      	bcs.n	800a48a <__hexnan+0xaa>
 800a496:	1b3b      	subs	r3, r7, r4
 800a498:	f023 0303 	bic.w	r3, r3, #3
 800a49c:	3304      	adds	r3, #4
 800a49e:	3401      	adds	r4, #1
 800a4a0:	3e03      	subs	r6, #3
 800a4a2:	42b4      	cmp	r4, r6
 800a4a4:	bf88      	it	hi
 800a4a6:	2304      	movhi	r3, #4
 800a4a8:	2200      	movs	r2, #0
 800a4aa:	4443      	add	r3, r8
 800a4ac:	f843 2b04 	str.w	r2, [r3], #4
 800a4b0:	429f      	cmp	r7, r3
 800a4b2:	d2fb      	bcs.n	800a4ac <__hexnan+0xcc>
 800a4b4:	683b      	ldr	r3, [r7, #0]
 800a4b6:	b91b      	cbnz	r3, 800a4c0 <__hexnan+0xe0>
 800a4b8:	4547      	cmp	r7, r8
 800a4ba:	d128      	bne.n	800a50e <__hexnan+0x12e>
 800a4bc:	2301      	movs	r3, #1
 800a4be:	603b      	str	r3, [r7, #0]
 800a4c0:	2005      	movs	r0, #5
 800a4c2:	b007      	add	sp, #28
 800a4c4:	e8bd 8ff0 	ldmia.w	sp!, {r4, r5, r6, r7, r8, r9, sl, fp, pc}
 800a4c8:	3501      	adds	r5, #1
 800a4ca:	2d08      	cmp	r5, #8
 800a4cc:	f10b 0b01 	add.w	fp, fp, #1
 800a4d0:	dd06      	ble.n	800a4e0 <__hexnan+0x100>
 800a4d2:	4544      	cmp	r4, r8
 800a4d4:	d9c1      	bls.n	800a45a <__hexnan+0x7a>
 800a4d6:	2300      	movs	r3, #0
 800a4d8:	2501      	movs	r5, #1
 800a4da:	f844 3c04 	str.w	r3, [r4, #-4]
 800a4de:	3c04      	subs	r4, #4
 800a4e0:	6822      	ldr	r2, [r4, #0]
 800a4e2:	f000 000f 	and.w	r0, r0, #15
 800a4e6:	ea40 1002 	orr.w	r0, r0, r2, lsl #4
 800a4ea:	6020      	str	r0, [r4, #0]
 800a4ec:	e7b5      	b.n	800a45a <__hexnan+0x7a>
 800a4ee:	2508      	movs	r5, #8
 800a4f0:	e7b3      	b.n	800a45a <__hexnan+0x7a>
 800a4f2:	9b01      	ldr	r3, [sp, #4]
 800a4f4:	2b00      	cmp	r3, #0
 800a4f6:	d0dd      	beq.n	800a4b4 <__hexnan+0xd4>
 800a4f8:	f04f 32ff 	mov.w	r2, #4294967295
 800a4fc:	f1c3 0320 	rsb	r3, r3, #32
 800a500:	40da      	lsrs	r2, r3
 800a502:	f856 3c04 	ldr.w	r3, [r6, #-4]
 800a506:	4013      	ands	r3, r2
 800a508:	f846 3c04 	str.w	r3, [r6, #-4]
 800a50c:	e7d2      	b.n	800a4b4 <__hexnan+0xd4>
 800a50e:	3f04      	subs	r7, #4
 800a510:	e7d0      	b.n	800a4b4 <__hexnan+0xd4>
 800a512:	2004      	movs	r0, #4
 800a514:	e7d5      	b.n	800a4c2 <__hexnan+0xe2>

0800a516 <__ascii_mbtowc>:
 800a516:	b082      	sub	sp, #8
 800a518:	b901      	cbnz	r1, 800a51c <__ascii_mbtowc+0x6>
 800a51a:	a901      	add	r1, sp, #4
 800a51c:	b142      	cbz	r2, 800a530 <__ascii_mbtowc+0x1a>
 800a51e:	b14b      	cbz	r3, 800a534 <__ascii_mbtowc+0x1e>
 800a520:	7813      	ldrb	r3, [r2, #0]
 800a522:	600b      	str	r3, [r1, #0]
 800a524:	7812      	ldrb	r2, [r2, #0]
 800a526:	1e10      	subs	r0, r2, #0
 800a528:	bf18      	it	ne
 800a52a:	2001      	movne	r0, #1
 800a52c:	b002      	add	sp, #8
 800a52e:	4770      	bx	lr
 800a530:	4610      	mov	r0, r2
 800a532:	e7fb      	b.n	800a52c <__ascii_mbtowc+0x16>
 800a534:	f06f 0001 	mvn.w	r0, #1
 800a538:	e7f8      	b.n	800a52c <__ascii_mbtowc+0x16>

0800a53a <_realloc_r>:
 800a53a:	e92d 41f0 	stmdb	sp!, {r4, r5, r6, r7, r8, lr}
 800a53e:	4680      	mov	r8, r0
 800a540:	4615      	mov	r5, r2
 800a542:	460c      	mov	r4, r1
 800a544:	b921      	cbnz	r1, 800a550 <_realloc_r+0x16>
 800a546:	4611      	mov	r1, r2
 800a548:	e8bd 41f0 	ldmia.w	sp!, {r4, r5, r6, r7, r8, lr}
 800a54c:	f7fd bf06 	b.w	800835c <_malloc_r>
 800a550:	b92a      	cbnz	r2, 800a55e <_realloc_r+0x24>
 800a552:	f7fd fe91 	bl	8008278 <_free_r>
 800a556:	2400      	movs	r4, #0
 800a558:	4620      	mov	r0, r4
 800a55a:	e8bd 81f0 	ldmia.w	sp!, {r4, r5, r6, r7, r8, pc}
 800a55e:	f000 fa3f 	bl	800a9e0 <_malloc_usable_size_r>
 800a562:	4285      	cmp	r5, r0
 800a564:	4606      	mov	r6, r0
 800a566:	d802      	bhi.n	800a56e <_realloc_r+0x34>
 800a568:	ebb5 0f50 	cmp.w	r5, r0, lsr #1
 800a56c:	d8f4      	bhi.n	800a558 <_realloc_r+0x1e>
 800a56e:	4629      	mov	r1, r5
 800a570:	4640      	mov	r0, r8
 800a572:	f7fd fef3 	bl	800835c <_malloc_r>
 800a576:	4607      	mov	r7, r0
 800a578:	2800      	cmp	r0, #0
 800a57a:	d0ec      	beq.n	800a556 <_realloc_r+0x1c>
 800a57c:	42b5      	cmp	r5, r6
 800a57e:	462a      	mov	r2, r5
 800a580:	4621      	mov	r1, r4
 800a582:	bf28      	it	cs
 800a584:	4632      	movcs	r2, r6
 800a586:	f7fc fff6 	bl	8007576 <memcpy>
 800a58a:	4621      	mov	r1, r4
 800a58c:	4640      	mov	r0, r8
 800a58e:	f7fd fe73 	bl	8008278 <_free_r>
 800a592:	463c      	mov	r4, r7
 800a594:	e7e0      	b.n	800a558 <_realloc_r+0x1e>

0800a596 <__ascii_wctomb>:
 800a596:	4603      	mov	r3, r0
 800a598:	4608      	mov	r0, r1
 800a59a:	b141      	cbz	r1, 800a5ae <__ascii_wctomb+0x18>
 800a59c:	2aff      	cmp	r2, #255	@ 0xff
 800a59e:	d904      	bls.n	800a5aa <__ascii_wctomb+0x14>
 800a5a0:	228a      	movs	r2, #138	@ 0x8a
 800a5a2:	f04f 30ff 	mov.w	r0, #4294967295
 800a5a6:	601a      	str	r2, [r3, #0]
 800a5a8:	4770      	bx	lr
 800a5aa:	2001      	movs	r0, #1
 800a5ac:	700a      	strb	r2, [r1, #0]
 800a5ae:	4770      	bx	lr

0800a5b0 <__sfputc_r>:
 800a5b0:	6893      	ldr	r3, [r2, #8]
 800a5b2:	b410      	push	{r4}
 800a5b4:	3b01      	subs	r3, #1
 800a5b6:	2b00      	cmp	r3, #0
 800a5b8:	6093      	str	r3, [r2, #8]
 800a5ba:	da07      	bge.n	800a5cc <__sfputc_r+0x1c>
 800a5bc:	6994      	ldr	r4, [r2, #24]
 800a5be:	42a3      	cmp	r3, r4
 800a5c0:	db01      	blt.n	800a5c6 <__sfputc_r+0x16>
 800a5c2:	290a      	cmp	r1, #10
 800a5c4:	d102      	bne.n	800a5cc <__sfputc_r+0x1c>
 800a5c6:	bc10      	pop	{r4}
 800a5c8:	f000 b932 	b.w	800a830 <__swbuf_r>
 800a5cc:	6813      	ldr	r3, [r2, #0]
 800a5ce:	1c58      	adds	r0, r3, #1
 800a5d0:	6010      	str	r0, [r2, #0]
 800a5d2:	7019      	strb	r1, [r3, #0]
 800a5d4:	4608      	mov	r0, r1
 800a5d6:	bc10      	pop	{r4}
 800a5d8:	4770      	bx	lr

0800a5da <__sfputs_r>:
 800a5da:	b5f8      	push	{r3, r4, r5, r6, r7, lr}
 800a5dc:	4606      	mov	r6, r0
 800a5de:	460f      	mov	r7, r1
 800a5e0:	4614      	mov	r4, r2
 800a5e2:	18d5      	adds	r5, r2, r3
 800a5e4:	42ac      	cmp	r4, r5
 800a5e6:	d101      	bne.n	800a5ec <__sfputs_r+0x12>
 800a5e8:	2000      	movs	r0, #0
 800a5ea:	e007      	b.n	800a5fc <__sfputs_r+0x22>
 800a5ec:	463a      	mov	r2, r7
 800a5ee:	4630      	mov	r0, r6
 800a5f0:	f814 1b01 	ldrb.w	r1, [r4], #1
 800a5f4:	f7ff ffdc 	bl	800a5b0 <__sfputc_r>
 800a5f8:	1c43      	adds	r3, r0, #1
 800a5fa:	d1f3      	bne.n	800a5e4 <__sfputs_r+0xa>
 800a5fc:	bdf8      	pop	{r3, r4, r5, r6, r7, pc}
	...

0800a600 <_vfiprintf_r>:
 800a600:	e92d 4ff0 	stmdb	sp!, {r4, r5, r6, r7, r8, r9, sl, fp, lr}
 800a604:	460d      	mov	r5, r1
 800a606:	4614      	mov	r4, r2
 800a608:	4698      	mov	r8, r3
 800a60a:	4606      	mov	r6, r0
 800a60c:	b09d      	sub	sp, #116	@ 0x74
 800a60e:	b118      	cbz	r0, 800a618 <_vfiprintf_r+0x18>
 800a610:	6a03      	ldr	r3, [r0, #32]
 800a612:	b90b      	cbnz	r3, 800a618 <_vfiprintf_r+0x18>
 800a614:	f7fc fdea 	bl	80071ec <__sinit>
 800a618:	6e6b      	ldr	r3, [r5, #100]	@ 0x64
 800a61a:	07d9      	lsls	r1, r3, #31
 800a61c:	d405      	bmi.n	800a62a <_vfiprintf_r+0x2a>
 800a61e:	89ab      	ldrh	r3, [r5, #12]
 800a620:	059a      	lsls	r2, r3, #22
 800a622:	d402      	bmi.n	800a62a <_vfiprintf_r+0x2a>
 800a624:	6da8      	ldr	r0, [r5, #88]	@ 0x58
 800a626:	f7fc ff8e 	bl	8007546 <__retarget_lock_acquire_recursive>
 800a62a:	89ab      	ldrh	r3, [r5, #12]
 800a62c:	071b      	lsls	r3, r3, #28
 800a62e:	d501      	bpl.n	800a634 <_vfiprintf_r+0x34>
 800a630:	692b      	ldr	r3, [r5, #16]
 800a632:	b99b      	cbnz	r3, 800a65c <_vfiprintf_r+0x5c>
 800a634:	4629      	mov	r1, r5
 800a636:	4630      	mov	r0, r6
 800a638:	f000 f938 	bl	800a8ac <__swsetup_r>
 800a63c:	b170      	cbz	r0, 800a65c <_vfiprintf_r+0x5c>
 800a63e:	6e6b      	ldr	r3, [r5, #100]	@ 0x64
 800a640:	07dc      	lsls	r4, r3, #31
 800a642:	d504      	bpl.n	800a64e <_vfiprintf_r+0x4e>
 800a644:	f04f 30ff 	mov.w	r0, #4294967295
 800a648:	b01d      	add	sp, #116	@ 0x74
 800a64a:	e8bd 8ff0 	ldmia.w	sp!, {r4, r5, r6, r7, r8, r9, sl, fp, pc}
 800a64e:	89ab      	ldrh	r3, [r5, #12]
 800a650:	0598      	lsls	r0, r3, #22
 800a652:	d4f7      	bmi.n	800a644 <_vfiprintf_r+0x44>
 800a654:	6da8      	ldr	r0, [r5, #88]	@ 0x58
 800a656:	f7fc ff77 	bl	8007548 <__retarget_lock_release_recursive>
 800a65a:	e7f3      	b.n	800a644 <_vfiprintf_r+0x44>
 800a65c:	2300      	movs	r3, #0
 800a65e:	9309      	str	r3, [sp, #36]	@ 0x24
 800a660:	2320      	movs	r3, #32
 800a662:	f88d 3029 	strb.w	r3, [sp, #41]	@ 0x29
 800a666:	2330      	movs	r3, #48	@ 0x30
 800a668:	f04f 0901 	mov.w	r9, #1
 800a66c:	f8cd 800c 	str.w	r8, [sp, #12]
 800a670:	f8df 81a8 	ldr.w	r8, [pc, #424]	@ 800a81c <_vfiprintf_r+0x21c>
 800a674:	f88d 302a 	strb.w	r3, [sp, #42]	@ 0x2a
 800a678:	4623      	mov	r3, r4
 800a67a:	469a      	mov	sl, r3
 800a67c:	f813 2b01 	ldrb.w	r2, [r3], #1
 800a680:	b10a      	cbz	r2, 800a686 <_vfiprintf_r+0x86>
 800a682:	2a25      	cmp	r2, #37	@ 0x25
 800a684:	d1f9      	bne.n	800a67a <_vfiprintf_r+0x7a>
 800a686:	ebba 0b04 	subs.w	fp, sl, r4
 800a68a:	d00b      	beq.n	800a6a4 <_vfiprintf_r+0xa4>
 800a68c:	465b      	mov	r3, fp
 800a68e:	4622      	mov	r2, r4
 800a690:	4629      	mov	r1, r5
 800a692:	4630      	mov	r0, r6
 800a694:	f7ff ffa1 	bl	800a5da <__sfputs_r>
 800a698:	3001      	adds	r0, #1
 800a69a:	f000 80a7 	beq.w	800a7ec <_vfiprintf_r+0x1ec>
 800a69e:	9a09      	ldr	r2, [sp, #36]	@ 0x24
 800a6a0:	445a      	add	r2, fp
 800a6a2:	9209      	str	r2, [sp, #36]	@ 0x24
 800a6a4:	f89a 3000 	ldrb.w	r3, [sl]
 800a6a8:	2b00      	cmp	r3, #0
 800a6aa:	f000 809f 	beq.w	800a7ec <_vfiprintf_r+0x1ec>
 800a6ae:	2300      	movs	r3, #0
 800a6b0:	f04f 32ff 	mov.w	r2, #4294967295
 800a6b4:	e9cd 2305 	strd	r2, r3, [sp, #20]
 800a6b8:	f10a 0a01 	add.w	sl, sl, #1
 800a6bc:	9304      	str	r3, [sp, #16]
 800a6be:	9307      	str	r3, [sp, #28]
 800a6c0:	f88d 3053 	strb.w	r3, [sp, #83]	@ 0x53
 800a6c4:	931a      	str	r3, [sp, #104]	@ 0x68
 800a6c6:	4654      	mov	r4, sl
 800a6c8:	2205      	movs	r2, #5
 800a6ca:	f814 1b01 	ldrb.w	r1, [r4], #1
 800a6ce:	4853      	ldr	r0, [pc, #332]	@ (800a81c <_vfiprintf_r+0x21c>)
 800a6d0:	f7fc ff43 	bl	800755a <memchr>
 800a6d4:	9a04      	ldr	r2, [sp, #16]
 800a6d6:	b9d8      	cbnz	r0, 800a710 <_vfiprintf_r+0x110>
 800a6d8:	06d1      	lsls	r1, r2, #27
 800a6da:	bf44      	itt	mi
 800a6dc:	2320      	movmi	r3, #32
 800a6de:	f88d 3053 	strbmi.w	r3, [sp, #83]	@ 0x53
 800a6e2:	0713      	lsls	r3, r2, #28
 800a6e4:	bf44      	itt	mi
 800a6e6:	232b      	movmi	r3, #43	@ 0x2b
 800a6e8:	f88d 3053 	strbmi.w	r3, [sp, #83]	@ 0x53
 800a6ec:	f89a 3000 	ldrb.w	r3, [sl]
 800a6f0:	2b2a      	cmp	r3, #42	@ 0x2a
 800a6f2:	d015      	beq.n	800a720 <_vfiprintf_r+0x120>
 800a6f4:	4654      	mov	r4, sl
 800a6f6:	2000      	movs	r0, #0
 800a6f8:	f04f 0c0a 	mov.w	ip, #10
 800a6fc:	9a07      	ldr	r2, [sp, #28]
 800a6fe:	4621      	mov	r1, r4
 800a700:	f811 3b01 	ldrb.w	r3, [r1], #1
 800a704:	3b30      	subs	r3, #48	@ 0x30
 800a706:	2b09      	cmp	r3, #9
 800a708:	d94b      	bls.n	800a7a2 <_vfiprintf_r+0x1a2>
 800a70a:	b1b0      	cbz	r0, 800a73a <_vfiprintf_r+0x13a>
 800a70c:	9207      	str	r2, [sp, #28]
 800a70e:	e014      	b.n	800a73a <_vfiprintf_r+0x13a>
 800a710:	eba0 0308 	sub.w	r3, r0, r8
 800a714:	fa09 f303 	lsl.w	r3, r9, r3
 800a718:	4313      	orrs	r3, r2
 800a71a:	46a2      	mov	sl, r4
 800a71c:	9304      	str	r3, [sp, #16]
 800a71e:	e7d2      	b.n	800a6c6 <_vfiprintf_r+0xc6>
 800a720:	9b03      	ldr	r3, [sp, #12]
 800a722:	1d19      	adds	r1, r3, #4
 800a724:	681b      	ldr	r3, [r3, #0]
 800a726:	9103      	str	r1, [sp, #12]
 800a728:	2b00      	cmp	r3, #0
 800a72a:	bfbb      	ittet	lt
 800a72c:	425b      	neglt	r3, r3
 800a72e:	f042 0202 	orrlt.w	r2, r2, #2
 800a732:	9307      	strge	r3, [sp, #28]
 800a734:	9307      	strlt	r3, [sp, #28]
 800a736:	bfb8      	it	lt
 800a738:	9204      	strlt	r2, [sp, #16]
 800a73a:	7823      	ldrb	r3, [r4, #0]
 800a73c:	2b2e      	cmp	r3, #46	@ 0x2e
 800a73e:	d10a      	bne.n	800a756 <_vfiprintf_r+0x156>
 800a740:	7863      	ldrb	r3, [r4, #1]
 800a742:	2b2a      	cmp	r3, #42	@ 0x2a
 800a744:	d132      	bne.n	800a7ac <_vfiprintf_r+0x1ac>
 800a746:	9b03      	ldr	r3, [sp, #12]
 800a748:	3402      	adds	r4, #2
 800a74a:	1d1a      	adds	r2, r3, #4
 800a74c:	681b      	ldr	r3, [r3, #0]
 800a74e:	9203      	str	r2, [sp, #12]
 800a750:	ea43 73e3 	orr.w	r3, r3, r3, asr #31
 800a754:	9305      	str	r3, [sp, #20]
 800a756:	f8df a0c8 	ldr.w	sl, [pc, #200]	@ 800a820 <_vfiprintf_r+0x220>
 800a75a:	2203      	movs	r2, #3
 800a75c:	4650      	mov	r0, sl
 800a75e:	7821      	ldrb	r1, [r4, #0]
 800a760:	f7fc fefb 	bl	800755a <memchr>
 800a764:	b138      	cbz	r0, 800a776 <_vfiprintf_r+0x176>
 800a766:	2240      	movs	r2, #64	@ 0x40
 800a768:	9b04      	ldr	r3, [sp, #16]
 800a76a:	eba0 000a 	sub.w	r0, r0, sl
 800a76e:	4082      	lsls	r2, r0
 800a770:	4313      	orrs	r3, r2
 800a772:	3401      	adds	r4, #1
 800a774:	9304      	str	r3, [sp, #16]
 800a776:	f814 1b01 	ldrb.w	r1, [r4], #1
 800a77a:	2206      	movs	r2, #6
 800a77c:	4829      	ldr	r0, [pc, #164]	@ (800a824 <_vfiprintf_r+0x224>)
 800a77e:	f88d 1028 	strb.w	r1, [sp, #40]	@ 0x28
 800a782:	f7fc feea 	bl	800755a <memchr>
 800a786:	2800      	cmp	r0, #0
 800a788:	d03f      	beq.n	800a80a <_vfiprintf_r+0x20a>
 800a78a:	4b27      	ldr	r3, [pc, #156]	@ (800a828 <_vfiprintf_r+0x228>)
 800a78c:	bb1b      	cbnz	r3, 800a7d6 <_vfiprintf_r+0x1d6>
 800a78e:	9b03      	ldr	r3, [sp, #12]
 800a790:	3307      	adds	r3, #7
 800a792:	f023 0307 	bic.w	r3, r3, #7
 800a796:	3308      	adds	r3, #8
 800a798:	9303      	str	r3, [sp, #12]
 800a79a:	9b09      	ldr	r3, [sp, #36]	@ 0x24
 800a79c:	443b      	add	r3, r7
 800a79e:	9309      	str	r3, [sp, #36]	@ 0x24
 800a7a0:	e76a      	b.n	800a678 <_vfiprintf_r+0x78>
 800a7a2:	460c      	mov	r4, r1
 800a7a4:	2001      	movs	r0, #1
 800a7a6:	fb0c 3202 	mla	r2, ip, r2, r3
 800a7aa:	e7a8      	b.n	800a6fe <_vfiprintf_r+0xfe>
 800a7ac:	2300      	movs	r3, #0
 800a7ae:	f04f 0c0a 	mov.w	ip, #10
 800a7b2:	4619      	mov	r1, r3
 800a7b4:	3401      	adds	r4, #1
 800a7b6:	9305      	str	r3, [sp, #20]
 800a7b8:	4620      	mov	r0, r4
 800a7ba:	f810 2b01 	ldrb.w	r2, [r0], #1
 800a7be:	3a30      	subs	r2, #48	@ 0x30
 800a7c0:	2a09      	cmp	r2, #9
 800a7c2:	d903      	bls.n	800a7cc <_vfiprintf_r+0x1cc>
 800a7c4:	2b00      	cmp	r3, #0
 800a7c6:	d0c6      	beq.n	800a756 <_vfiprintf_r+0x156>
 800a7c8:	9105      	str	r1, [sp, #20]
 800a7ca:	e7c4      	b.n	800a756 <_vfiprintf_r+0x156>
 800a7cc:	4604      	mov	r4, r0
 800a7ce:	2301      	movs	r3, #1
 800a7d0:	fb0c 2101 	mla	r1, ip, r1, r2
 800a7d4:	e7f0      	b.n	800a7b8 <_vfiprintf_r+0x1b8>
 800a7d6:	ab03      	add	r3, sp, #12
 800a7d8:	9300      	str	r3, [sp, #0]
 800a7da:	462a      	mov	r2, r5
 800a7dc:	4630      	mov	r0, r6
 800a7de:	4b13      	ldr	r3, [pc, #76]	@ (800a82c <_vfiprintf_r+0x22c>)
 800a7e0:	a904      	add	r1, sp, #16
 800a7e2:	f7fb fea9 	bl	8006538 <_printf_float>
 800a7e6:	4607      	mov	r7, r0
 800a7e8:	1c78      	adds	r0, r7, #1
 800a7ea:	d1d6      	bne.n	800a79a <_vfiprintf_r+0x19a>
 800a7ec:	6e6b      	ldr	r3, [r5, #100]	@ 0x64
 800a7ee:	07d9      	lsls	r1, r3, #31
 800a7f0:	d405      	bmi.n	800a7fe <_vfiprintf_r+0x1fe>
 800a7f2:	89ab      	ldrh	r3, [r5, #12]
 800a7f4:	059a      	lsls	r2, r3, #22
 800a7f6:	d402      	bmi.n	800a7fe <_vfiprintf_r+0x1fe>
 800a7f8:	6da8      	ldr	r0, [r5, #88]	@ 0x58
 800a7fa:	f7fc fea5 	bl	8007548 <__retarget_lock_release_recursive>
 800a7fe:	89ab      	ldrh	r3, [r5, #12]
 800a800:	065b      	lsls	r3, r3, #25
 800a802:	f53f af1f 	bmi.w	800a644 <_vfiprintf_r+0x44>
 800a806:	9809      	ldr	r0, [sp, #36]	@ 0x24
 800a808:	e71e      	b.n	800a648 <_vfiprintf_r+0x48>
 800a80a:	ab03      	add	r3, sp, #12
 800a80c:	9300      	str	r3, [sp, #0]
 800a80e:	462a      	mov	r2, r5
 800a810:	4630      	mov	r0, r6
 800a812:	4b06      	ldr	r3, [pc, #24]	@ (800a82c <_vfiprintf_r+0x22c>)
 800a814:	a904      	add	r1, sp, #16
 800a816:	f7fc f92d 	bl	8006a74 <_printf_i>
 800a81a:	e7e4      	b.n	800a7e6 <_vfiprintf_r+0x1e6>
 800a81c:	0800ccb8 	.word	0x0800ccb8
 800a820:	0800ccbe 	.word	0x0800ccbe
 800a824:	0800ccc2 	.word	0x0800ccc2
 800a828:	08006539 	.word	0x08006539
 800a82c:	0800a5db 	.word	0x0800a5db

0800a830 <__swbuf_r>:
 800a830:	b5f8      	push	{r3, r4, r5, r6, r7, lr}
 800a832:	460e      	mov	r6, r1
 800a834:	4614      	mov	r4, r2
 800a836:	4605      	mov	r5, r0
 800a838:	b118      	cbz	r0, 800a842 <__swbuf_r+0x12>
 800a83a:	6a03      	ldr	r3, [r0, #32]
 800a83c:	b90b      	cbnz	r3, 800a842 <__swbuf_r+0x12>
 800a83e:	f7fc fcd5 	bl	80071ec <__sinit>
 800a842:	69a3      	ldr	r3, [r4, #24]
 800a844:	60a3      	str	r3, [r4, #8]
 800a846:	89a3      	ldrh	r3, [r4, #12]
 800a848:	071a      	lsls	r2, r3, #28
 800a84a:	d501      	bpl.n	800a850 <__swbuf_r+0x20>
 800a84c:	6923      	ldr	r3, [r4, #16]
 800a84e:	b943      	cbnz	r3, 800a862 <__swbuf_r+0x32>
 800a850:	4621      	mov	r1, r4
 800a852:	4628      	mov	r0, r5
 800a854:	f000 f82a 	bl	800a8ac <__swsetup_r>
 800a858:	b118      	cbz	r0, 800a862 <__swbuf_r+0x32>
 800a85a:	f04f 37ff 	mov.w	r7, #4294967295
 800a85e:	4638      	mov	r0, r7
 800a860:	bdf8      	pop	{r3, r4, r5, r6, r7, pc}
 800a862:	6823      	ldr	r3, [r4, #0]
 800a864:	6922      	ldr	r2, [r4, #16]
 800a866:	b2f6      	uxtb	r6, r6
 800a868:	1a98      	subs	r0, r3, r2
 800a86a:	6963      	ldr	r3, [r4, #20]
 800a86c:	4637      	mov	r7, r6
 800a86e:	4283      	cmp	r3, r0
 800a870:	dc05      	bgt.n	800a87e <__swbuf_r+0x4e>
 800a872:	4621      	mov	r1, r4
 800a874:	4628      	mov	r0, r5
 800a876:	f7ff fa7d 	bl	8009d74 <_fflush_r>
 800a87a:	2800      	cmp	r0, #0
 800a87c:	d1ed      	bne.n	800a85a <__swbuf_r+0x2a>
 800a87e:	68a3      	ldr	r3, [r4, #8]
 800a880:	3b01      	subs	r3, #1
 800a882:	60a3      	str	r3, [r4, #8]
 800a884:	6823      	ldr	r3, [r4, #0]
 800a886:	1c5a      	adds	r2, r3, #1
 800a888:	6022      	str	r2, [r4, #0]
 800a88a:	701e      	strb	r6, [r3, #0]
 800a88c:	6962      	ldr	r2, [r4, #20]
 800a88e:	1c43      	adds	r3, r0, #1
 800a890:	429a      	cmp	r2, r3
 800a892:	d004      	beq.n	800a89e <__swbuf_r+0x6e>
 800a894:	89a3      	ldrh	r3, [r4, #12]
 800a896:	07db      	lsls	r3, r3, #31
 800a898:	d5e1      	bpl.n	800a85e <__swbuf_r+0x2e>
 800a89a:	2e0a      	cmp	r6, #10
 800a89c:	d1df      	bne.n	800a85e <__swbuf_r+0x2e>
 800a89e:	4621      	mov	r1, r4
 800a8a0:	4628      	mov	r0, r5
 800a8a2:	f7ff fa67 	bl	8009d74 <_fflush_r>
 800a8a6:	2800      	cmp	r0, #0
 800a8a8:	d0d9      	beq.n	800a85e <__swbuf_r+0x2e>
 800a8aa:	e7d6      	b.n	800a85a <__swbuf_r+0x2a>

0800a8ac <__swsetup_r>:
 800a8ac:	b538      	push	{r3, r4, r5, lr}
 800a8ae:	4b29      	ldr	r3, [pc, #164]	@ (800a954 <__swsetup_r+0xa8>)
 800a8b0:	4605      	mov	r5, r0
 800a8b2:	6818      	ldr	r0, [r3, #0]
 800a8b4:	460c      	mov	r4, r1
 800a8b6:	b118      	cbz	r0, 800a8c0 <__swsetup_r+0x14>
 800a8b8:	6a03      	ldr	r3, [r0, #32]
 800a8ba:	b90b      	cbnz	r3, 800a8c0 <__swsetup_r+0x14>
 800a8bc:	f7fc fc96 	bl	80071ec <__sinit>
 800a8c0:	f9b4 300c 	ldrsh.w	r3, [r4, #12]
 800a8c4:	0719      	lsls	r1, r3, #28
 800a8c6:	d422      	bmi.n	800a90e <__swsetup_r+0x62>
 800a8c8:	06da      	lsls	r2, r3, #27
 800a8ca:	d407      	bmi.n	800a8dc <__swsetup_r+0x30>
 800a8cc:	2209      	movs	r2, #9
 800a8ce:	602a      	str	r2, [r5, #0]
 800a8d0:	f043 0340 	orr.w	r3, r3, #64	@ 0x40
 800a8d4:	f04f 30ff 	mov.w	r0, #4294967295
 800a8d8:	81a3      	strh	r3, [r4, #12]
 800a8da:	e033      	b.n	800a944 <__swsetup_r+0x98>
 800a8dc:	0758      	lsls	r0, r3, #29
 800a8de:	d512      	bpl.n	800a906 <__swsetup_r+0x5a>
 800a8e0:	6b61      	ldr	r1, [r4, #52]	@ 0x34
 800a8e2:	b141      	cbz	r1, 800a8f6 <__swsetup_r+0x4a>
 800a8e4:	f104 0344 	add.w	r3, r4, #68	@ 0x44
 800a8e8:	4299      	cmp	r1, r3
 800a8ea:	d002      	beq.n	800a8f2 <__swsetup_r+0x46>
 800a8ec:	4628      	mov	r0, r5
 800a8ee:	f7fd fcc3 	bl	8008278 <_free_r>
 800a8f2:	2300      	movs	r3, #0
 800a8f4:	6363      	str	r3, [r4, #52]	@ 0x34
 800a8f6:	89a3      	ldrh	r3, [r4, #12]
 800a8f8:	f023 0324 	bic.w	r3, r3, #36	@ 0x24
 800a8fc:	81a3      	strh	r3, [r4, #12]
 800a8fe:	2300      	movs	r3, #0
 800a900:	6063      	str	r3, [r4, #4]
 800a902:	6923      	ldr	r3, [r4, #16]
 800a904:	6023      	str	r3, [r4, #0]
 800a906:	89a3      	ldrh	r3, [r4, #12]
 800a908:	f043 0308 	orr.w	r3, r3, #8
 800a90c:	81a3      	strh	r3, [r4, #12]
 800a90e:	6923      	ldr	r3, [r4, #16]
 800a910:	b94b      	cbnz	r3, 800a926 <__swsetup_r+0x7a>
 800a912:	89a3      	ldrh	r3, [r4, #12]
 800a914:	f403 7320 	and.w	r3, r3, #640	@ 0x280
 800a918:	f5b3 7f00 	cmp.w	r3, #512	@ 0x200
 800a91c:	d003      	beq.n	800a926 <__swsetup_r+0x7a>
 800a91e:	4621      	mov	r1, r4
 800a920:	4628      	mov	r0, r5
 800a922:	f000 f88a 	bl	800aa3a <__smakebuf_r>
 800a926:	f9b4 300c 	ldrsh.w	r3, [r4, #12]
 800a92a:	f013 0201 	ands.w	r2, r3, #1
 800a92e:	d00a      	beq.n	800a946 <__swsetup_r+0x9a>
 800a930:	2200      	movs	r2, #0
 800a932:	60a2      	str	r2, [r4, #8]
 800a934:	6962      	ldr	r2, [r4, #20]
 800a936:	4252      	negs	r2, r2
 800a938:	61a2      	str	r2, [r4, #24]
 800a93a:	6922      	ldr	r2, [r4, #16]
 800a93c:	b942      	cbnz	r2, 800a950 <__swsetup_r+0xa4>
 800a93e:	f013 0080 	ands.w	r0, r3, #128	@ 0x80
 800a942:	d1c5      	bne.n	800a8d0 <__swsetup_r+0x24>
 800a944:	bd38      	pop	{r3, r4, r5, pc}
 800a946:	0799      	lsls	r1, r3, #30
 800a948:	bf58      	it	pl
 800a94a:	6962      	ldrpl	r2, [r4, #20]
 800a94c:	60a2      	str	r2, [r4, #8]
 800a94e:	e7f4      	b.n	800a93a <__swsetup_r+0x8e>
 800a950:	2000      	movs	r0, #0
 800a952:	e7f7      	b.n	800a944 <__swsetup_r+0x98>
 800a954:	20000114 	.word	0x20000114

0800a958 <_raise_r>:
 800a958:	291f      	cmp	r1, #31
 800a95a:	b538      	push	{r3, r4, r5, lr}
 800a95c:	4605      	mov	r5, r0
 800a95e:	460c      	mov	r4, r1
 800a960:	d904      	bls.n	800a96c <_raise_r+0x14>
 800a962:	2316      	movs	r3, #22
 800a964:	6003      	str	r3, [r0, #0]
 800a966:	f04f 30ff 	mov.w	r0, #4294967295
 800a96a:	bd38      	pop	{r3, r4, r5, pc}
 800a96c:	6bc2      	ldr	r2, [r0, #60]	@ 0x3c
 800a96e:	b112      	cbz	r2, 800a976 <_raise_r+0x1e>
 800a970:	f852 3021 	ldr.w	r3, [r2, r1, lsl #2]
 800a974:	b94b      	cbnz	r3, 800a98a <_raise_r+0x32>
 800a976:	4628      	mov	r0, r5
 800a978:	f000 f830 	bl	800a9dc <_getpid_r>
 800a97c:	4622      	mov	r2, r4
 800a97e:	4601      	mov	r1, r0
 800a980:	4628      	mov	r0, r5
 800a982:	e8bd 4038 	ldmia.w	sp!, {r3, r4, r5, lr}
 800a986:	f000 b817 	b.w	800a9b8 <_kill_r>
 800a98a:	2b01      	cmp	r3, #1
 800a98c:	d00a      	beq.n	800a9a4 <_raise_r+0x4c>
 800a98e:	1c59      	adds	r1, r3, #1
 800a990:	d103      	bne.n	800a99a <_raise_r+0x42>
 800a992:	2316      	movs	r3, #22
 800a994:	6003      	str	r3, [r0, #0]
 800a996:	2001      	movs	r0, #1
 800a998:	e7e7      	b.n	800a96a <_raise_r+0x12>
 800a99a:	2100      	movs	r1, #0
 800a99c:	4620      	mov	r0, r4
 800a99e:	f842 1024 	str.w	r1, [r2, r4, lsl #2]
 800a9a2:	4798      	blx	r3
 800a9a4:	2000      	movs	r0, #0
 800a9a6:	e7e0      	b.n	800a96a <_raise_r+0x12>

0800a9a8 <raise>:
 800a9a8:	4b02      	ldr	r3, [pc, #8]	@ (800a9b4 <raise+0xc>)
 800a9aa:	4601      	mov	r1, r0
 800a9ac:	6818      	ldr	r0, [r3, #0]
 800a9ae:	f7ff bfd3 	b.w	800a958 <_raise_r>
 800a9b2:	bf00      	nop
 800a9b4:	20000114 	.word	0x20000114

0800a9b8 <_kill_r>:
 800a9b8:	b538      	push	{r3, r4, r5, lr}
 800a9ba:	2300      	movs	r3, #0
 800a9bc:	4d06      	ldr	r5, [pc, #24]	@ (800a9d8 <_kill_r+0x20>)
 800a9be:	4604      	mov	r4, r0
 800a9c0:	4608      	mov	r0, r1
 800a9c2:	4611      	mov	r1, r2
 800a9c4:	602b      	str	r3, [r5, #0]
 800a9c6:	f7f8 fdc7 	bl	8003558 <_kill>
 800a9ca:	1c43      	adds	r3, r0, #1
 800a9cc:	d102      	bne.n	800a9d4 <_kill_r+0x1c>
 800a9ce:	682b      	ldr	r3, [r5, #0]
 800a9d0:	b103      	cbz	r3, 800a9d4 <_kill_r+0x1c>
 800a9d2:	6023      	str	r3, [r4, #0]
 800a9d4:	bd38      	pop	{r3, r4, r5, pc}
 800a9d6:	bf00      	nop
 800a9d8:	20000c18 	.word	0x20000c18

0800a9dc <_getpid_r>:
 800a9dc:	f7f8 bdba 	b.w	8003554 <_getpid>

0800a9e0 <_malloc_usable_size_r>:
 800a9e0:	f851 3c04 	ldr.w	r3, [r1, #-4]
 800a9e4:	1f18      	subs	r0, r3, #4
 800a9e6:	2b00      	cmp	r3, #0
 800a9e8:	bfbc      	itt	lt
 800a9ea:	580b      	ldrlt	r3, [r1, r0]
 800a9ec:	18c0      	addlt	r0, r0, r3
 800a9ee:	4770      	bx	lr

0800a9f0 <__swhatbuf_r>:
 800a9f0:	b570      	push	{r4, r5, r6, lr}
 800a9f2:	460c      	mov	r4, r1
 800a9f4:	f9b1 100e 	ldrsh.w	r1, [r1, #14]
 800a9f8:	4615      	mov	r5, r2
 800a9fa:	2900      	cmp	r1, #0
 800a9fc:	461e      	mov	r6, r3
 800a9fe:	b096      	sub	sp, #88	@ 0x58
 800aa00:	da0c      	bge.n	800aa1c <__swhatbuf_r+0x2c>
 800aa02:	89a3      	ldrh	r3, [r4, #12]
 800aa04:	2100      	movs	r1, #0
 800aa06:	f013 0f80 	tst.w	r3, #128	@ 0x80
 800aa0a:	bf14      	ite	ne
 800aa0c:	2340      	movne	r3, #64	@ 0x40
 800aa0e:	f44f 6380 	moveq.w	r3, #1024	@ 0x400
 800aa12:	2000      	movs	r0, #0
 800aa14:	6031      	str	r1, [r6, #0]
 800aa16:	602b      	str	r3, [r5, #0]
 800aa18:	b016      	add	sp, #88	@ 0x58
 800aa1a:	bd70      	pop	{r4, r5, r6, pc}
 800aa1c:	466a      	mov	r2, sp
 800aa1e:	f000 f849 	bl	800aab4 <_fstat_r>
 800aa22:	2800      	cmp	r0, #0
 800aa24:	dbed      	blt.n	800aa02 <__swhatbuf_r+0x12>
 800aa26:	9901      	ldr	r1, [sp, #4]
 800aa28:	f401 4170 	and.w	r1, r1, #61440	@ 0xf000
 800aa2c:	f5a1 5300 	sub.w	r3, r1, #8192	@ 0x2000
 800aa30:	4259      	negs	r1, r3
 800aa32:	4159      	adcs	r1, r3
 800aa34:	f44f 6380 	mov.w	r3, #1024	@ 0x400
 800aa38:	e7eb      	b.n	800aa12 <__swhatbuf_r+0x22>

0800aa3a <__smakebuf_r>:
 800aa3a:	898b      	ldrh	r3, [r1, #12]
 800aa3c:	b5f7      	push	{r0, r1, r2, r4, r5, r6, r7, lr}
 800aa3e:	079d      	lsls	r5, r3, #30
 800aa40:	4606      	mov	r6, r0
 800aa42:	460c      	mov	r4, r1
 800aa44:	d507      	bpl.n	800aa56 <__smakebuf_r+0x1c>
 800aa46:	f104 0347 	add.w	r3, r4, #71	@ 0x47
 800aa4a:	6023      	str	r3, [r4, #0]
 800aa4c:	6123      	str	r3, [r4, #16]
 800aa4e:	2301      	movs	r3, #1
 800aa50:	6163      	str	r3, [r4, #20]
 800aa52:	b003      	add	sp, #12
 800aa54:	bdf0      	pop	{r4, r5, r6, r7, pc}
 800aa56:	466a      	mov	r2, sp
 800aa58:	ab01      	add	r3, sp, #4
 800aa5a:	f7ff ffc9 	bl	800a9f0 <__swhatbuf_r>
 800aa5e:	9f00      	ldr	r7, [sp, #0]
 800aa60:	4605      	mov	r5, r0
 800aa62:	4639      	mov	r1, r7
 800aa64:	4630      	mov	r0, r6
 800aa66:	f7fd fc79 	bl	800835c <_malloc_r>
 800aa6a:	b948      	cbnz	r0, 800aa80 <__smakebuf_r+0x46>
 800aa6c:	f9b4 300c 	ldrsh.w	r3, [r4, #12]
 800aa70:	059a      	lsls	r2, r3, #22
 800aa72:	d4ee      	bmi.n	800aa52 <__smakebuf_r+0x18>
 800aa74:	f023 0303 	bic.w	r3, r3, #3
 800aa78:	f043 0302 	orr.w	r3, r3, #2
 800aa7c:	81a3      	strh	r3, [r4, #12]
 800aa7e:	e7e2      	b.n	800aa46 <__smakebuf_r+0xc>
 800aa80:	89a3      	ldrh	r3, [r4, #12]
 800aa82:	e9c4 0704 	strd	r0, r7, [r4, #16]
 800aa86:	f043 0380 	orr.w	r3, r3, #128	@ 0x80
 800aa8a:	81a3      	strh	r3, [r4, #12]
 800aa8c:	9b01      	ldr	r3, [sp, #4]
 800aa8e:	6020      	str	r0, [r4, #0]
 800aa90:	b15b      	cbz	r3, 800aaaa <__smakebuf_r+0x70>
 800aa92:	4630      	mov	r0, r6
 800aa94:	f9b4 100e 	ldrsh.w	r1, [r4, #14]
 800aa98:	f000 f81e 	bl	800aad8 <_isatty_r>
 800aa9c:	b128      	cbz	r0, 800aaaa <__smakebuf_r+0x70>
 800aa9e:	89a3      	ldrh	r3, [r4, #12]
 800aaa0:	f023 0303 	bic.w	r3, r3, #3
 800aaa4:	f043 0301 	orr.w	r3, r3, #1
 800aaa8:	81a3      	strh	r3, [r4, #12]
 800aaaa:	89a3      	ldrh	r3, [r4, #12]
 800aaac:	431d      	orrs	r5, r3
 800aaae:	81a5      	strh	r5, [r4, #12]
 800aab0:	e7cf      	b.n	800aa52 <__smakebuf_r+0x18>
	...

0800aab4 <_fstat_r>:
 800aab4:	b538      	push	{r3, r4, r5, lr}
 800aab6:	2300      	movs	r3, #0
 800aab8:	4d06      	ldr	r5, [pc, #24]	@ (800aad4 <_fstat_r+0x20>)
 800aaba:	4604      	mov	r4, r0
 800aabc:	4608      	mov	r0, r1
 800aabe:	4611      	mov	r1, r2
 800aac0:	602b      	str	r3, [r5, #0]
 800aac2:	f7f8 fd74 	bl	80035ae <_fstat>
 800aac6:	1c43      	adds	r3, r0, #1
 800aac8:	d102      	bne.n	800aad0 <_fstat_r+0x1c>
 800aaca:	682b      	ldr	r3, [r5, #0]
 800aacc:	b103      	cbz	r3, 800aad0 <_fstat_r+0x1c>
 800aace:	6023      	str	r3, [r4, #0]
 800aad0:	bd38      	pop	{r3, r4, r5, pc}
 800aad2:	bf00      	nop
 800aad4:	20000c18 	.word	0x20000c18

0800aad8 <_isatty_r>:
 800aad8:	b538      	push	{r3, r4, r5, lr}
 800aada:	2300      	movs	r3, #0
 800aadc:	4d05      	ldr	r5, [pc, #20]	@ (800aaf4 <_isatty_r+0x1c>)
 800aade:	4604      	mov	r4, r0
 800aae0:	4608      	mov	r0, r1
 800aae2:	602b      	str	r3, [r5, #0]
 800aae4:	f7f8 fd68 	bl	80035b8 <_isatty>
 800aae8:	1c43      	adds	r3, r0, #1
 800aaea:	d102      	bne.n	800aaf2 <_isatty_r+0x1a>
 800aaec:	682b      	ldr	r3, [r5, #0]
 800aaee:	b103      	cbz	r3, 800aaf2 <_isatty_r+0x1a>
 800aaf0:	6023      	str	r3, [r4, #0]
 800aaf2:	bd38      	pop	{r3, r4, r5, pc}
 800aaf4:	20000c18 	.word	0x20000c18

0800aaf8 <_init>:
 800aaf8:	b5f8      	push	{r3, r4, r5, r6, r7, lr}
 800aafa:	bf00      	nop
 800aafc:	bcf8      	pop	{r3, r4, r5, r6, r7}
 800aafe:	bc08      	pop	{r3}
 800ab00:	469e      	mov	lr, r3
 800ab02:	4770      	bx	lr

0800ab04 <_fini>:
 800ab04:	b5f8      	push	{r3, r4, r5, r6, r7, lr}
 800ab06:	bf00      	nop
 800ab08:	bcf8      	pop	{r3, r4, r5, r6, r7}
 800ab0a:	bc08      	pop	{r3}
 800ab0c:	469e      	mov	lr, r3
 800ab0e:	4770      	bx	lr
